; ModuleID = '/home/common/FPGA/CONV/CNNIOT/deeplib/deeplib/solution1/.autopilot/db/a.o.bc'
target datalayout = "e-p:64:64:64-i1:8:8-i8:8:8-i16:16:16-i32:32:32-i64:64:64-f32:32:32-f64:64:64-v64:64:64-v128:128:128-a0:0:64-s0:64:64-f80:128:128-n8:16:32:64-S128"
target triple = "x86_64-unknown-linux-gnu"

%struct.ap_axiu = type { %struct.ap_uint, %struct.ap_uint.0, %struct.ap_uint.0, %struct.ap_uint.3, %struct.ap_uint.3, %struct.ap_uint.3, %struct.ap_uint.3 }
%struct.ap_uint = type { %struct.ap_int_base }
%struct.ap_int_base = type { %struct.ssdm_int }
%struct.ssdm_int = type { i32 }
%struct.ap_uint.0 = type { %struct.ap_int_base.1 }
%struct.ap_int_base.1 = type { %struct.ssdm_int.2 }
%struct.ssdm_int.2 = type { i4 }
%struct.ap_uint.3 = type { %struct.ap_int_base.4 }
%struct.ap_int_base.4 = type { %struct.ssdm_int.5 }
%struct.ssdm_int.5 = type { i1 }

@.str = private unnamed_addr constant [13 x i8] c"ap_ctrl_none\00", align 1 ; [#uses=1 type=[13 x i8]*]
@.str1 = private unnamed_addr constant [1 x i8] zeroinitializer, align 1 ; [#uses=1 type=[1 x i8]*]
@.str2 = private unnamed_addr constant [5 x i8] c"axis\00", align 1 ; [#uses=1 type=[5 x i8]*]
@.str3 = private unnamed_addr constant [5 x i8] c"both\00", align 1 ; [#uses=1 type=[5 x i8]*]
@.str4 = private unnamed_addr constant [12 x i8] c"hls_label_0\00", align 1 ; [#uses=1 type=[12 x i8]*]
@.str5 = private unnamed_addr constant [12 x i8] c"hls_label_1\00", align 1 ; [#uses=1 type=[12 x i8]*]
@llvm.global_ctors = appending global [0 x { i32, void ()* }] zeroinitializer ; [#uses=0 type=[0 x { i32, void ()* }]*]

; [#uses=17]
define internal i32 @_Z12Axi_TransferP7ap_axiuILi32ELi1ELi1ELi1EES1_ii(%struct.ap_axiu* %in_data, %struct.ap_axiu* %out_data, i32 %value, i32 %loop) nounwind uwtable {
  %1 = alloca %struct.ap_axiu*, align 8           ; [#uses=8 type=%struct.ap_axiu**]
  %2 = alloca %struct.ap_axiu*, align 8           ; [#uses=9 type=%struct.ap_axiu**]
  %3 = alloca i32, align 4                        ; [#uses=2 type=i32*]
  %4 = alloca i32, align 4                        ; [#uses=2 type=i32*]
  %Temproray = alloca i32, align 4                ; [#uses=3 type=i32*]
  %5 = alloca %struct.ap_uint, align 4            ; [#uses=2 type=%struct.ap_uint*]
  %6 = alloca %struct.ap_uint, align 4            ; [#uses=2 type=%struct.ap_uint*]
  store %struct.ap_axiu* %in_data, %struct.ap_axiu** %1, align 8
  call void @llvm.dbg.declare(metadata !{%struct.ap_axiu** %1}, metadata !4246), !dbg !4247 ; [debug line = 12:27] [debug variable = in_data]
  store %struct.ap_axiu* %out_data, %struct.ap_axiu** %2, align 8
  call void @llvm.dbg.declare(metadata !{%struct.ap_axiu** %2}, metadata !4248), !dbg !4249 ; [debug line = 12:45] [debug variable = out_data]
  store i32 %value, i32* %3, align 4
  call void @llvm.dbg.declare(metadata !{i32* %3}, metadata !4250), !dbg !4251 ; [debug line = 12:59] [debug variable = value]
  store i32 %loop, i32* %4, align 4
  call void @llvm.dbg.declare(metadata !{i32* %4}, metadata !4252), !dbg !4253 ; [debug line = 12:70] [debug variable = loop]
  call void @llvm.dbg.declare(metadata !{i32* %Temproray}, metadata !4254), !dbg !4256 ; [debug line = 14:6] [debug variable = Temproray]
  %7 = load %struct.ap_axiu** %1, align 8, !dbg !4257 ; [#uses=1 type=%struct.ap_axiu*] [debug line = 15:13]
  %8 = getelementptr inbounds %struct.ap_axiu* %7, i32 0, i32 0, !dbg !4257 ; [#uses=1 type=%struct.ap_uint*] [debug line = 15:13]
  %9 = bitcast %struct.ap_uint* %8 to %struct.ap_int_base*, !dbg !4257 ; [#uses=1 type=%struct.ap_int_base*] [debug line = 15:13]
  %10 = call i32 @_ZNK11ap_int_baseILi32ELb0ELb1EEcvjEv(%struct.ap_int_base* %9), !dbg !4257 ; [#uses=1 type=i32] [debug line = 15:13]
  store i32 %10, i32* %Temproray, align 4, !dbg !4257 ; [debug line = 15:13]
  %11 = load i32* %4, align 4, !dbg !4258         ; [#uses=1 type=i32] [debug line = 16:2]
  %12 = icmp eq i32 %11, 1, !dbg !4258            ; [#uses=1 type=i1] [debug line = 16:2]
  br i1 %12, label %13, label %18, !dbg !4258     ; [debug line = 16:2]

; <label>:13                                      ; preds = %0
  %14 = load %struct.ap_axiu** %2, align 8, !dbg !4259 ; [#uses=1 type=%struct.ap_axiu*] [debug line = 18:2]
  %15 = getelementptr inbounds %struct.ap_axiu* %14, i32 0, i32 0, !dbg !4259 ; [#uses=1 type=%struct.ap_uint*] [debug line = 18:2]
  %16 = load i32* %Temproray, align 4, !dbg !4259 ; [#uses=1 type=i32] [debug line = 18:2]
  call void @_ZN7ap_uintILi32EEC1Ei(%struct.ap_uint* %5, i32 %16), !dbg !4259 ; [debug line = 18:2]
  %17 = call %struct.ap_uint* @_ZN7ap_uintILi32EEaSERKS0_(%struct.ap_uint* %15, %struct.ap_uint* %5), !dbg !4259 ; [#uses=0 type=%struct.ap_uint*] [debug line = 18:2]
  br label %23, !dbg !4261                        ; [debug line = 19:2]

; <label>:18                                      ; preds = %0
  %19 = load %struct.ap_axiu** %2, align 8, !dbg !4262 ; [#uses=1 type=%struct.ap_axiu*] [debug line = 19:8]
  %20 = getelementptr inbounds %struct.ap_axiu* %19, i32 0, i32 0, !dbg !4262 ; [#uses=1 type=%struct.ap_uint*] [debug line = 19:8]
  %21 = load i32* %3, align 4, !dbg !4262         ; [#uses=1 type=i32] [debug line = 19:8]
  call void @_ZN7ap_uintILi32EEC1Ei(%struct.ap_uint* %6, i32 %21), !dbg !4262 ; [debug line = 19:8]
  %22 = call %struct.ap_uint* @_ZN7ap_uintILi32EEaSERKS0_(%struct.ap_uint* %20, %struct.ap_uint* %6), !dbg !4262 ; [#uses=0 type=%struct.ap_uint*] [debug line = 19:8]
  br label %23

; <label>:23                                      ; preds = %18, %13
  %24 = load %struct.ap_axiu** %2, align 8, !dbg !4263 ; [#uses=1 type=%struct.ap_axiu*] [debug line = 20:2]
  %25 = getelementptr inbounds %struct.ap_axiu* %24, i32 0, i32 6, !dbg !4263 ; [#uses=1 type=%struct.ap_uint.3*] [debug line = 20:2]
  %26 = load %struct.ap_axiu** %1, align 8, !dbg !4263 ; [#uses=1 type=%struct.ap_axiu*] [debug line = 20:2]
  %27 = getelementptr inbounds %struct.ap_axiu* %26, i32 0, i32 6, !dbg !4263 ; [#uses=1 type=%struct.ap_uint.3*] [debug line = 20:2]
  %28 = call %struct.ap_uint.3* @_ZN7ap_uintILi1EEaSERKS0_(%struct.ap_uint.3* %25, %struct.ap_uint.3* %27), !dbg !4263 ; [#uses=0 type=%struct.ap_uint.3*] [debug line = 20:2]
  %29 = load %struct.ap_axiu** %2, align 8, !dbg !4264 ; [#uses=1 type=%struct.ap_axiu*] [debug line = 21:2]
  %30 = getelementptr inbounds %struct.ap_axiu* %29, i32 0, i32 5, !dbg !4264 ; [#uses=1 type=%struct.ap_uint.3*] [debug line = 21:2]
  %31 = load %struct.ap_axiu** %1, align 8, !dbg !4264 ; [#uses=1 type=%struct.ap_axiu*] [debug line = 21:2]
  %32 = getelementptr inbounds %struct.ap_axiu* %31, i32 0, i32 5, !dbg !4264 ; [#uses=1 type=%struct.ap_uint.3*] [debug line = 21:2]
  %33 = call %struct.ap_uint.3* @_ZN7ap_uintILi1EEaSERKS0_(%struct.ap_uint.3* %30, %struct.ap_uint.3* %32), !dbg !4264 ; [#uses=0 type=%struct.ap_uint.3*] [debug line = 21:2]
  %34 = load %struct.ap_axiu** %2, align 8, !dbg !4265 ; [#uses=1 type=%struct.ap_axiu*] [debug line = 22:2]
  %35 = getelementptr inbounds %struct.ap_axiu* %34, i32 0, i32 1, !dbg !4265 ; [#uses=1 type=%struct.ap_uint.0*] [debug line = 22:2]
  %36 = load %struct.ap_axiu** %1, align 8, !dbg !4265 ; [#uses=1 type=%struct.ap_axiu*] [debug line = 22:2]
  %37 = getelementptr inbounds %struct.ap_axiu* %36, i32 0, i32 1, !dbg !4265 ; [#uses=1 type=%struct.ap_uint.0*] [debug line = 22:2]
  %38 = call %struct.ap_uint.0* @_ZN7ap_uintILi4EEaSERKS0_(%struct.ap_uint.0* %35, %struct.ap_uint.0* %37), !dbg !4265 ; [#uses=0 type=%struct.ap_uint.0*] [debug line = 22:2]
  %39 = load %struct.ap_axiu** %2, align 8, !dbg !4266 ; [#uses=1 type=%struct.ap_axiu*] [debug line = 23:2]
  %40 = getelementptr inbounds %struct.ap_axiu* %39, i32 0, i32 4, !dbg !4266 ; [#uses=1 type=%struct.ap_uint.3*] [debug line = 23:2]
  %41 = load %struct.ap_axiu** %1, align 8, !dbg !4266 ; [#uses=1 type=%struct.ap_axiu*] [debug line = 23:2]
  %42 = getelementptr inbounds %struct.ap_axiu* %41, i32 0, i32 4, !dbg !4266 ; [#uses=1 type=%struct.ap_uint.3*] [debug line = 23:2]
  %43 = call %struct.ap_uint.3* @_ZN7ap_uintILi1EEaSERKS0_(%struct.ap_uint.3* %40, %struct.ap_uint.3* %42), !dbg !4266 ; [#uses=0 type=%struct.ap_uint.3*] [debug line = 23:2]
  %44 = load %struct.ap_axiu** %2, align 8, !dbg !4267 ; [#uses=1 type=%struct.ap_axiu*] [debug line = 24:2]
  %45 = getelementptr inbounds %struct.ap_axiu* %44, i32 0, i32 2, !dbg !4267 ; [#uses=1 type=%struct.ap_uint.0*] [debug line = 24:2]
  %46 = load %struct.ap_axiu** %1, align 8, !dbg !4267 ; [#uses=1 type=%struct.ap_axiu*] [debug line = 24:2]
  %47 = getelementptr inbounds %struct.ap_axiu* %46, i32 0, i32 2, !dbg !4267 ; [#uses=1 type=%struct.ap_uint.0*] [debug line = 24:2]
  %48 = call %struct.ap_uint.0* @_ZN7ap_uintILi4EEaSERKS0_(%struct.ap_uint.0* %45, %struct.ap_uint.0* %47), !dbg !4267 ; [#uses=0 type=%struct.ap_uint.0*] [debug line = 24:2]
  %49 = load %struct.ap_axiu** %2, align 8, !dbg !4268 ; [#uses=1 type=%struct.ap_axiu*] [debug line = 25:2]
  %50 = getelementptr inbounds %struct.ap_axiu* %49, i32 0, i32 3, !dbg !4268 ; [#uses=1 type=%struct.ap_uint.3*] [debug line = 25:2]
  %51 = load %struct.ap_axiu** %1, align 8, !dbg !4268 ; [#uses=1 type=%struct.ap_axiu*] [debug line = 25:2]
  %52 = getelementptr inbounds %struct.ap_axiu* %51, i32 0, i32 3, !dbg !4268 ; [#uses=1 type=%struct.ap_uint.3*] [debug line = 25:2]
  %53 = call %struct.ap_uint.3* @_ZN7ap_uintILi1EEaSERKS0_(%struct.ap_uint.3* %50, %struct.ap_uint.3* %52), !dbg !4268 ; [#uses=0 type=%struct.ap_uint.3*] [debug line = 25:2]
  %54 = load i32* %Temproray, align 4, !dbg !4269 ; [#uses=1 type=i32] [debug line = 26:2]
  ret i32 %54, !dbg !4269                         ; [debug line = 26:2]
}

; [#uses=66]
declare void @llvm.dbg.declare(metadata, metadata) nounwind readnone

; [#uses=1]
define internal i32 @_ZNK11ap_int_baseILi32ELb0ELb1EEcvjEv(%struct.ap_int_base* %this) nounwind uwtable inlinehint alwaysinline align 2 {
  %1 = alloca %struct.ap_int_base*, align 8       ; [#uses=2 type=%struct.ap_int_base**]
  store %struct.ap_int_base* %this, %struct.ap_int_base** %1, align 8
  call void @llvm.dbg.declare(metadata !{%struct.ap_int_base** %1}, metadata !4270), !dbg !4272 ; [debug line = 1710:41] [debug variable = this]
  %2 = load %struct.ap_int_base** %1              ; [#uses=1 type=%struct.ap_int_base*]
  %3 = bitcast %struct.ap_int_base* %2 to %struct.ssdm_int*, !dbg !4273 ; [#uses=1 type=%struct.ssdm_int*] [debug line = 1710:68]
  %4 = getelementptr inbounds %struct.ssdm_int* %3, i32 0, i32 0, !dbg !4273 ; [#uses=1 type=i32*] [debug line = 1710:68]
  %5 = load i32* %4, align 4, !dbg !4273          ; [#uses=1 type=i32] [debug line = 1710:68]
  ret i32 %5, !dbg !4273                          ; [debug line = 1710:68]
}

; [#uses=2]
define internal %struct.ap_uint* @_ZN7ap_uintILi32EEaSERKS0_(%struct.ap_uint* %this, %struct.ap_uint* %op2) nounwind uwtable inlinehint alwaysinline align 2 {
  %1 = alloca %struct.ap_uint*, align 8           ; [#uses=2 type=%struct.ap_uint**]
  %2 = alloca %struct.ap_uint*, align 8           ; [#uses=2 type=%struct.ap_uint**]
  store %struct.ap_uint* %this, %struct.ap_uint** %1, align 8
  call void @llvm.dbg.declare(metadata !{%struct.ap_uint** %1}, metadata !4275), !dbg !4277 ; [debug line = 280:50] [debug variable = this]
  store %struct.ap_uint* %op2, %struct.ap_uint** %2, align 8
  call void @llvm.dbg.declare(metadata !{%struct.ap_uint** %2}, metadata !4278), !dbg !4279 ; [debug line = 280:84] [debug variable = op2]
  %3 = load %struct.ap_uint** %1                  ; [#uses=2 type=%struct.ap_uint*]
  %4 = load %struct.ap_uint** %2, align 8, !dbg !4280 ; [#uses=1 type=%struct.ap_uint*] [debug line = 281:5]
  %5 = bitcast %struct.ap_uint* %4 to %struct.ssdm_int*, !dbg !4280 ; [#uses=1 type=%struct.ssdm_int*] [debug line = 281:5]
  %6 = getelementptr inbounds %struct.ssdm_int* %5, i32 0, i32 0, !dbg !4280 ; [#uses=1 type=i32*] [debug line = 281:5]
  %7 = load i32* %6, align 4, !dbg !4280          ; [#uses=1 type=i32] [debug line = 281:5]
  %8 = bitcast %struct.ap_uint* %3 to %struct.ap_int_base*, !dbg !4280 ; [#uses=1 type=%struct.ap_int_base*] [debug line = 281:5]
  %9 = bitcast %struct.ap_int_base* %8 to %struct.ssdm_int*, !dbg !4280 ; [#uses=1 type=%struct.ssdm_int*] [debug line = 281:5]
  %10 = getelementptr inbounds %struct.ssdm_int* %9, i32 0, i32 0, !dbg !4280 ; [#uses=1 type=i32*] [debug line = 281:5]
  store i32 %7, i32* %10, align 4, !dbg !4280     ; [debug line = 281:5]
  ret %struct.ap_uint* %3, !dbg !4282             ; [debug line = 282:5]
}

; [#uses=2]
define internal void @_ZN7ap_uintILi32EEC1Ei(%struct.ap_uint* %this, i32 %val) unnamed_addr nounwind uwtable inlinehint alwaysinline align 2 {
  %1 = alloca %struct.ap_uint*, align 8           ; [#uses=2 type=%struct.ap_uint**]
  %2 = alloca i32, align 4                        ; [#uses=2 type=i32*]
  store %struct.ap_uint* %this, %struct.ap_uint** %1, align 8
  call void @llvm.dbg.declare(metadata !{%struct.ap_uint** %1}, metadata !4283), !dbg !4284 ; [debug line = 253:41] [debug variable = this]
  store i32 %val, i32* %2, align 4
  call void @llvm.dbg.declare(metadata !{i32* %2}, metadata !4285), !dbg !4286 ; [debug line = 253:53] [debug variable = val]
  %3 = load %struct.ap_uint** %1                  ; [#uses=1 type=%struct.ap_uint*]
  %4 = load i32* %2, align 4, !dbg !4287          ; [#uses=1 type=i32] [debug line = 253:75]
  call void @_ZN7ap_uintILi32EEC2Ei(%struct.ap_uint* %3, i32 %4), !dbg !4287 ; [debug line = 253:75]
  ret void, !dbg !4287                            ; [debug line = 253:75]
}

; [#uses=4]
define internal %struct.ap_uint.3* @_ZN7ap_uintILi1EEaSERKS0_(%struct.ap_uint.3* %this, %struct.ap_uint.3* %op2) nounwind uwtable inlinehint alwaysinline align 2 {
  %1 = alloca %struct.ap_uint.3*, align 8         ; [#uses=2 type=%struct.ap_uint.3**]
  %2 = alloca %struct.ap_uint.3*, align 8         ; [#uses=2 type=%struct.ap_uint.3**]
  store %struct.ap_uint.3* %this, %struct.ap_uint.3** %1, align 8
  call void @llvm.dbg.declare(metadata !{%struct.ap_uint.3** %1}, metadata !4288), !dbg !4290 ; [debug line = 280:50] [debug variable = this]
  store %struct.ap_uint.3* %op2, %struct.ap_uint.3** %2, align 8
  call void @llvm.dbg.declare(metadata !{%struct.ap_uint.3** %2}, metadata !4291), !dbg !4292 ; [debug line = 280:84] [debug variable = op2]
  %3 = load %struct.ap_uint.3** %1                ; [#uses=2 type=%struct.ap_uint.3*]
  %4 = load %struct.ap_uint.3** %2, align 8, !dbg !4293 ; [#uses=1 type=%struct.ap_uint.3*] [debug line = 281:5]
  %5 = bitcast %struct.ap_uint.3* %4 to %struct.ssdm_int.5*, !dbg !4293 ; [#uses=1 type=%struct.ssdm_int.5*] [debug line = 281:5]
  %6 = getelementptr inbounds %struct.ssdm_int.5* %5, i32 0, i32 0, !dbg !4293 ; [#uses=1 type=i1*] [debug line = 281:5]
  %7 = load i1* %6, align 1, !dbg !4293           ; [#uses=1 type=i1] [debug line = 281:5]
  %8 = bitcast %struct.ap_uint.3* %3 to %struct.ap_int_base.4*, !dbg !4293 ; [#uses=1 type=%struct.ap_int_base.4*] [debug line = 281:5]
  %9 = bitcast %struct.ap_int_base.4* %8 to %struct.ssdm_int.5*, !dbg !4293 ; [#uses=1 type=%struct.ssdm_int.5*] [debug line = 281:5]
  %10 = getelementptr inbounds %struct.ssdm_int.5* %9, i32 0, i32 0, !dbg !4293 ; [#uses=1 type=i1*] [debug line = 281:5]
  store i1 %7, i1* %10, align 1, !dbg !4293       ; [debug line = 281:5]
  ret %struct.ap_uint.3* %3, !dbg !4295           ; [debug line = 282:5]
}

; [#uses=2]
define internal %struct.ap_uint.0* @_ZN7ap_uintILi4EEaSERKS0_(%struct.ap_uint.0* %this, %struct.ap_uint.0* %op2) nounwind uwtable inlinehint alwaysinline align 2 {
  %1 = alloca %struct.ap_uint.0*, align 8         ; [#uses=2 type=%struct.ap_uint.0**]
  %2 = alloca %struct.ap_uint.0*, align 8         ; [#uses=2 type=%struct.ap_uint.0**]
  store %struct.ap_uint.0* %this, %struct.ap_uint.0** %1, align 8
  call void @llvm.dbg.declare(metadata !{%struct.ap_uint.0** %1}, metadata !4296), !dbg !4298 ; [debug line = 280:50] [debug variable = this]
  store %struct.ap_uint.0* %op2, %struct.ap_uint.0** %2, align 8
  call void @llvm.dbg.declare(metadata !{%struct.ap_uint.0** %2}, metadata !4299), !dbg !4300 ; [debug line = 280:84] [debug variable = op2]
  %3 = load %struct.ap_uint.0** %1                ; [#uses=2 type=%struct.ap_uint.0*]
  %4 = load %struct.ap_uint.0** %2, align 8, !dbg !4301 ; [#uses=1 type=%struct.ap_uint.0*] [debug line = 281:5]
  %5 = bitcast %struct.ap_uint.0* %4 to %struct.ssdm_int.2*, !dbg !4301 ; [#uses=1 type=%struct.ssdm_int.2*] [debug line = 281:5]
  %6 = getelementptr inbounds %struct.ssdm_int.2* %5, i32 0, i32 0, !dbg !4301 ; [#uses=1 type=i4*] [debug line = 281:5]
  %7 = load i4* %6, align 1, !dbg !4301           ; [#uses=1 type=i4] [debug line = 281:5]
  %8 = bitcast %struct.ap_uint.0* %3 to %struct.ap_int_base.1*, !dbg !4301 ; [#uses=1 type=%struct.ap_int_base.1*] [debug line = 281:5]
  %9 = bitcast %struct.ap_int_base.1* %8 to %struct.ssdm_int.2*, !dbg !4301 ; [#uses=1 type=%struct.ssdm_int.2*] [debug line = 281:5]
  %10 = getelementptr inbounds %struct.ssdm_int.2* %9, i32 0, i32 0, !dbg !4301 ; [#uses=1 type=i4*] [debug line = 281:5]
  store i4 %7, i4* %10, align 1, !dbg !4301       ; [debug line = 281:5]
  ret %struct.ap_uint.0* %3, !dbg !4303           ; [debug line = 282:5]
}

; [#uses=0]
define void @_Z3cnnP7ap_axiuILi32ELi1ELi1ELi1EES1_(%struct.ap_axiu* %in_data, %struct.ap_axiu* %out_data) nounwind uwtable {
  %1 = alloca %struct.ap_axiu*, align 8           ; [#uses=19 type=%struct.ap_axiu**]
  %2 = alloca %struct.ap_axiu*, align 8           ; [#uses=19 type=%struct.ap_axiu**]
  %Input = alloca [30000 x float], align 16       ; [#uses=8 type=[30000 x float]*]
  %Weight = alloca [30000 x float], align 16      ; [#uses=4 type=[30000 x float]*]
  %Bias = alloca [2000 x float], align 16         ; [#uses=4 type=[2000 x float]*]
  %Temproray = alloca float, align 4              ; [#uses=23 type=float*]
  %Precision = alloca float, align 4              ; [#uses=11 type=float*]
  %Transfer_value = alloca float, align 4         ; [#uses=18 type=float*]
  %Convolve_value = alloca float, align 4         ; [#uses=10 type=float*]
  %Pool_Value = alloca float, align 4             ; [#uses=11 type=float*]
  %H_Result = alloca i32, align 4                 ; [#uses=9 type=i32*]
  %W_Result = alloca i32, align 4                 ; [#uses=10 type=i32*]
  %Index = alloca i32, align 4                    ; [#uses=2 type=i32*]
  %Index2 = alloca i32, align 4                   ; [#uses=1 type=i32*]
  %Parameters = alloca [17 x i32], align 16       ; [#uses=39 type=[17 x i32]*]
  %Counter = alloca i32, align 4                  ; [#uses=0 type=i32*]
  %R_Plane = alloca i32, align 4                  ; [#uses=2 type=i32*]
  %R_Row = alloca i32, align 4                    ; [#uses=2 type=i32*]
  %Relu_Activation = alloca i32, align 4          ; [#uses=6 type=i32*]
  %Load_Input = alloca i32, align 4               ; [#uses=6 type=i32*]
  %Load_Weight = alloca i32, align 4              ; [#uses=2 type=i32*]
  %Stride_Size = alloca [2 x i32], align 4        ; [#uses=16 type=[2 x i32]*]
  %Window_Size = alloca [2 x i32], align 4        ; [#uses=6 type=[2 x i32]*]
  %Filter_size = alloca [4 x i32], align 16       ; [#uses=22 type=[4 x i32]*]
  %Input_Size = alloca [3 x i32], align 4         ; [#uses=28 type=[3 x i32]*]
  %Bias_Activation = alloca i32, align 4          ; [#uses=6 type=i32*]
  %Pooling_Mode = alloca i32, align 4             ; [#uses=4 type=i32*]
  %idx = alloca i32, align 4                      ; [#uses=5 type=i32*]
  %idx1 = alloca i32, align 4                     ; [#uses=5 type=i32*]
  %idx2 = alloca i32, align 4                     ; [#uses=5 type=i32*]
  %idx3 = alloca i32, align 4                     ; [#uses=5 type=i32*]
  %idx4 = alloca i32, align 4                     ; [#uses=7 type=i32*]
  %idx25 = alloca i32, align 4                    ; [#uses=6 type=i32*]
  %idx36 = alloca i32, align 4                    ; [#uses=6 type=i32*]
  %k = alloca i32, align 4                        ; [#uses=6 type=i32*]
  %i = alloca i32, align 4                        ; [#uses=6 type=i32*]
  %j = alloca i32, align 4                        ; [#uses=6 type=i32*]
  %idx7 = alloca i32, align 4                     ; [#uses=5 type=i32*]
  %idx8 = alloca i32, align 4                     ; [#uses=7 type=i32*]
  %idx29 = alloca i32, align 4                    ; [#uses=7 type=i32*]
  %idx310 = alloca i32, align 4                   ; [#uses=7 type=i32*]
  %k11 = alloca i32, align 4                      ; [#uses=8 type=i32*]
  %i12 = alloca i32, align 4                      ; [#uses=8 type=i32*]
  %idx13 = alloca i32, align 4                    ; [#uses=5 type=i32*]
  %idx14 = alloca i32, align 4                    ; [#uses=5 type=i32*]
  %idx15 = alloca i32, align 4                    ; [#uses=6 type=i32*]
  %idx216 = alloca i32, align 4                   ; [#uses=5 type=i32*]
  %idx17 = alloca i32, align 4                    ; [#uses=5 type=i32*]
  store %struct.ap_axiu* %in_data, %struct.ap_axiu** %1, align 8
  call void @llvm.dbg.declare(metadata !{%struct.ap_axiu** %1}, metadata !4304), !dbg !4305 ; [debug line = 32:20] [debug variable = in_data]
  store %struct.ap_axiu* %out_data, %struct.ap_axiu** %2, align 8
  call void @llvm.dbg.declare(metadata !{%struct.ap_axiu** %2}, metadata !4306), !dbg !4307 ; [debug line = 32:38] [debug variable = out_data]
  call void (...)* @_ssdm_op_SpecInterface(i32 0, i8* getelementptr inbounds ([13 x i8]* @.str, i32 0, i32 0), i32 0, i32 0, i8* getelementptr inbounds ([1 x i8]* @.str1, i32 0, i32 0), i32 0, i32 0, i8* getelementptr inbounds ([1 x i8]* @.str1, i32 0, i32 0), i8* getelementptr inbounds ([1 x i8]* @.str1, i32 0, i32 0), i8* getelementptr inbounds ([1 x i8]* @.str1, i32 0, i32 0), i32 0, i32 0, i32 0, i32 0, i8* getelementptr inbounds ([1 x i8]* @.str1, i32 0, i32 0), i8* getelementptr inbounds ([1 x i8]* @.str1, i32 0, i32 0)) nounwind, !dbg !4308 ; [debug line = 34:1]
  %3 = load %struct.ap_axiu** %1, align 8, !dbg !4310 ; [#uses=1 type=%struct.ap_axiu*] [debug line = 35:1]
  call void (...)* @_ssdm_op_SpecInterface(%struct.ap_axiu* %3, i8* getelementptr inbounds ([5 x i8]* @.str2, i32 0, i32 0), i32 1, i32 1, i8* getelementptr inbounds ([5 x i8]* @.str3, i32 0, i32 0), i32 0, i32 0, i8* getelementptr inbounds ([1 x i8]* @.str1, i32 0, i32 0), i8* getelementptr inbounds ([1 x i8]* @.str1, i32 0, i32 0), i8* getelementptr inbounds ([1 x i8]* @.str1, i32 0, i32 0), i32 0, i32 0, i32 0, i32 0, i8* getelementptr inbounds ([1 x i8]* @.str1, i32 0, i32 0), i8* getelementptr inbounds ([1 x i8]* @.str1, i32 0, i32 0)) nounwind, !dbg !4310 ; [debug line = 35:1]
  %4 = load %struct.ap_axiu** %2, align 8, !dbg !4311 ; [#uses=1 type=%struct.ap_axiu*] [debug line = 36:1]
  call void (...)* @_ssdm_op_SpecInterface(%struct.ap_axiu* %4, i8* getelementptr inbounds ([5 x i8]* @.str2, i32 0, i32 0), i32 1, i32 1, i8* getelementptr inbounds ([5 x i8]* @.str3, i32 0, i32 0), i32 0, i32 0, i8* getelementptr inbounds ([1 x i8]* @.str1, i32 0, i32 0), i8* getelementptr inbounds ([1 x i8]* @.str1, i32 0, i32 0), i8* getelementptr inbounds ([1 x i8]* @.str1, i32 0, i32 0), i32 0, i32 0, i32 0, i32 0, i8* getelementptr inbounds ([1 x i8]* @.str1, i32 0, i32 0), i8* getelementptr inbounds ([1 x i8]* @.str1, i32 0, i32 0)) nounwind, !dbg !4311 ; [debug line = 36:1]
  br label %5, !dbg !4312                         ; [debug line = 38:1]

; <label>:5                                       ; preds = %758, %0
  call void @llvm.dbg.declare(metadata !{[30000 x float]* %Input}, metadata !4313), !dbg !4318 ; [debug line = 40:8] [debug variable = Input]
  call void @llvm.dbg.declare(metadata !{[30000 x float]* %Weight}, metadata !4319), !dbg !4320 ; [debug line = 40:21] [debug variable = Weight]
  call void @llvm.dbg.declare(metadata !{[2000 x float]* %Bias}, metadata !4321), !dbg !4325 ; [debug line = 40:35] [debug variable = Bias]
  call void @llvm.dbg.declare(metadata !{float* %Temproray}, metadata !4326), !dbg !4327 ; [debug line = 41:8] [debug variable = Temproray]
  call void @llvm.dbg.declare(metadata !{float* %Precision}, metadata !4328), !dbg !4329 ; [debug line = 41:18] [debug variable = Precision]
  call void @llvm.dbg.declare(metadata !{float* %Transfer_value}, metadata !4330), !dbg !4331 ; [debug line = 41:28] [debug variable = Transfer_value]
  call void @llvm.dbg.declare(metadata !{float* %Convolve_value}, metadata !4332), !dbg !4333 ; [debug line = 41:43] [debug variable = Convolve_value]
  call void @llvm.dbg.declare(metadata !{float* %Pool_Value}, metadata !4334), !dbg !4335 ; [debug line = 41:58] [debug variable = Pool_Value]
  call void @llvm.dbg.declare(metadata !{i32* %H_Result}, metadata !4336), !dbg !4337 ; [debug line = 42:6] [debug variable = H_Result]
  call void @llvm.dbg.declare(metadata !{i32* %W_Result}, metadata !4338), !dbg !4339 ; [debug line = 42:15] [debug variable = W_Result]
  call void @llvm.dbg.declare(metadata !{i32* %Index}, metadata !4340), !dbg !4341 ; [debug line = 42:24] [debug variable = Index]
  call void @llvm.dbg.declare(metadata !{i32* %Index2}, metadata !4342), !dbg !4343 ; [debug line = 42:30] [debug variable = Index2]
  call void @llvm.dbg.declare(metadata !{[17 x i32]* %Parameters}, metadata !4344), !dbg !4348 ; [debug line = 42:37] [debug variable = Parameters]
  call void @llvm.dbg.declare(metadata !{i32* %Counter}, metadata !4349), !dbg !4350 ; [debug line = 42:52] [debug variable = Counter]
  call void @llvm.dbg.declare(metadata !{i32* %R_Plane}, metadata !4351), !dbg !4352 ; [debug line = 42:60] [debug variable = R_Plane]
  call void @llvm.dbg.declare(metadata !{i32* %R_Row}, metadata !4353), !dbg !4354 ; [debug line = 42:68] [debug variable = R_Row]
  call void @llvm.dbg.declare(metadata !{i32* %Relu_Activation}, metadata !4355), !dbg !4356 ; [debug line = 42:74] [debug variable = Relu_Activation]
  call void @llvm.dbg.declare(metadata !{i32* %Load_Input}, metadata !4357), !dbg !4358 ; [debug line = 42:90] [debug variable = Load_Input]
  call void @llvm.dbg.declare(metadata !{i32* %Load_Weight}, metadata !4359), !dbg !4360 ; [debug line = 42:101] [debug variable = Load_Weight]
  call void @llvm.dbg.declare(metadata !{[2 x i32]* %Stride_Size}, metadata !4361), !dbg !4365 ; [debug line = 42:113] [debug variable = Stride_Size]
  call void @llvm.dbg.declare(metadata !{[2 x i32]* %Window_Size}, metadata !4366), !dbg !4367 ; [debug line = 42:128] [debug variable = Window_Size]
  call void @llvm.dbg.declare(metadata !{[4 x i32]* %Filter_size}, metadata !4368), !dbg !4372 ; [debug line = 42:144] [debug variable = Filter_size]
  call void @llvm.dbg.declare(metadata !{[3 x i32]* %Input_Size}, metadata !4373), !dbg !4377 ; [debug line = 42:159] [debug variable = Input_Size]
  call void @llvm.dbg.declare(metadata !{i32* %Bias_Activation}, metadata !4378), !dbg !4379 ; [debug line = 42:173] [debug variable = Bias_Activation]
  call void @llvm.dbg.declare(metadata !{i32* %Pooling_Mode}, metadata !4380), !dbg !4381 ; [debug line = 42:189] [debug variable = Pooling_Mode]
  call void @llvm.dbg.declare(metadata !{i32* %idx}, metadata !4382), !dbg !4384 ; [debug line = 46:10] [debug variable = idx]
  store i32 0, i32* %idx, align 4, !dbg !4385     ; [debug line = 46:15]
  br label %6, !dbg !4385                         ; [debug line = 46:15]

; <label>:6                                       ; preds = %18, %5
  %7 = load i32* %idx, align 4, !dbg !4385        ; [#uses=1 type=i32] [debug line = 46:15]
  %8 = icmp slt i32 %7, 17, !dbg !4385            ; [#uses=1 type=i1] [debug line = 46:15]
  br i1 %8, label %9, label %21, !dbg !4385       ; [debug line = 46:15]

; <label>:9                                       ; preds = %6
  store float 0.000000e+00, float* %Transfer_value, align 4, !dbg !4386 ; [debug line = 48:3]
  %10 = load %struct.ap_axiu** %1, align 8, !dbg !4388 ; [#uses=1 type=%struct.ap_axiu*] [debug line = 49:20]
  %11 = load %struct.ap_axiu** %2, align 8, !dbg !4388 ; [#uses=1 type=%struct.ap_axiu*] [debug line = 49:20]
  %12 = load float* %Transfer_value, align 4, !dbg !4388 ; [#uses=1 type=float] [debug line = 49:20]
  %13 = fptosi float %12 to i32, !dbg !4388       ; [#uses=1 type=i32] [debug line = 49:20]
  %14 = call i32 @_Z12Axi_TransferP7ap_axiuILi32ELi1ELi1ELi1EES1_ii(%struct.ap_axiu* %10, %struct.ap_axiu* %11, i32 %13, i32 1), !dbg !4388 ; [#uses=1 type=i32] [debug line = 49:20]
  %15 = load i32* %idx, align 4, !dbg !4388       ; [#uses=1 type=i32] [debug line = 49:20]
  %16 = sext i32 %15 to i64, !dbg !4388           ; [#uses=1 type=i64] [debug line = 49:20]
  %17 = getelementptr inbounds [17 x i32]* %Parameters, i32 0, i64 %16, !dbg !4388 ; [#uses=1 type=i32*] [debug line = 49:20]
  store i32 %14, i32* %17, align 4, !dbg !4388    ; [debug line = 49:20]
  br label %18, !dbg !4389                        ; [debug line = 50:2]

; <label>:18                                      ; preds = %9
  %19 = load i32* %idx, align 4, !dbg !4390       ; [#uses=1 type=i32] [debug line = 46:28]
  %20 = add nsw i32 %19, 1, !dbg !4390            ; [#uses=1 type=i32] [debug line = 46:28]
  store i32 %20, i32* %idx, align 4, !dbg !4390   ; [debug line = 46:28]
  br label %6, !dbg !4390                         ; [debug line = 46:28]

; <label>:21                                      ; preds = %6
  %22 = getelementptr inbounds [17 x i32]* %Parameters, i32 0, i64 0, !dbg !4391 ; [#uses=1 type=i32*] [debug line = 58:2]
  %23 = load i32* %22, align 4, !dbg !4391        ; [#uses=1 type=i32] [debug line = 58:2]
  %24 = icmp eq i32 %23, 0, !dbg !4391            ; [#uses=1 type=i1] [debug line = 58:2]
  br i1 %24, label %25, label %343, !dbg !4391    ; [debug line = 58:2]

; <label>:25                                      ; preds = %21
  %26 = getelementptr inbounds [17 x i32]* %Parameters, i32 0, i64 13, !dbg !4392 ; [#uses=1 type=i32*] [debug line = 60:3]
  %27 = load i32* %26, align 4, !dbg !4392        ; [#uses=1 type=i32] [debug line = 60:3]
  store i32 %27, i32* %Relu_Activation, align 4, !dbg !4392 ; [debug line = 60:3]
  %28 = getelementptr inbounds [17 x i32]* %Parameters, i32 0, i64 12, !dbg !4394 ; [#uses=1 type=i32*] [debug line = 61:3]
  %29 = load i32* %28, align 4, !dbg !4394        ; [#uses=1 type=i32] [debug line = 61:3]
  store i32 %29, i32* %Bias_Activation, align 4, !dbg !4394 ; [debug line = 61:3]
  %30 = getelementptr inbounds [17 x i32]* %Parameters, i32 0, i64 15, !dbg !4395 ; [#uses=1 type=i32*] [debug line = 62:3]
  %31 = load i32* %30, align 4, !dbg !4395        ; [#uses=1 type=i32] [debug line = 62:3]
  store i32 %31, i32* %Load_Input, align 4, !dbg !4395 ; [debug line = 62:3]
  %32 = getelementptr inbounds [17 x i32]* %Parameters, i32 0, i64 16, !dbg !4396 ; [#uses=1 type=i32*] [debug line = 63:3]
  %33 = load i32* %32, align 4, !dbg !4396        ; [#uses=1 type=i32] [debug line = 63:3]
  store i32 %33, i32* %Load_Weight, align 4, !dbg !4396 ; [debug line = 63:3]
  %34 = getelementptr inbounds [17 x i32]* %Parameters, i32 0, i64 9, !dbg !4397 ; [#uses=1 type=i32*] [debug line = 64:3]
  %35 = load i32* %34, align 4, !dbg !4397        ; [#uses=1 type=i32] [debug line = 64:3]
  %36 = getelementptr inbounds [2 x i32]* %Stride_Size, i32 0, i64 0, !dbg !4397 ; [#uses=1 type=i32*] [debug line = 64:3]
  store i32 %35, i32* %36, align 4, !dbg !4397    ; [debug line = 64:3]
  %37 = getelementptr inbounds [17 x i32]* %Parameters, i32 0, i64 10, !dbg !4398 ; [#uses=1 type=i32*] [debug line = 65:3]
  %38 = load i32* %37, align 4, !dbg !4398        ; [#uses=1 type=i32] [debug line = 65:3]
  %39 = getelementptr inbounds [2 x i32]* %Stride_Size, i32 0, i64 1, !dbg !4398 ; [#uses=1 type=i32*] [debug line = 65:3]
  store i32 %38, i32* %39, align 4, !dbg !4398    ; [debug line = 65:3]
  %40 = getelementptr inbounds [17 x i32]* %Parameters, i32 0, i64 5, !dbg !4399 ; [#uses=1 type=i32*] [debug line = 66:3]
  %41 = load i32* %40, align 4, !dbg !4399        ; [#uses=1 type=i32] [debug line = 66:3]
  %42 = getelementptr inbounds [4 x i32]* %Filter_size, i32 0, i64 0, !dbg !4399 ; [#uses=1 type=i32*] [debug line = 66:3]
  store i32 %41, i32* %42, align 4, !dbg !4399    ; [debug line = 66:3]
  %43 = getelementptr inbounds [17 x i32]* %Parameters, i32 0, i64 6, !dbg !4400 ; [#uses=1 type=i32*] [debug line = 67:3]
  %44 = load i32* %43, align 4, !dbg !4400        ; [#uses=1 type=i32] [debug line = 67:3]
  %45 = getelementptr inbounds [4 x i32]* %Filter_size, i32 0, i64 1, !dbg !4400 ; [#uses=1 type=i32*] [debug line = 67:3]
  store i32 %44, i32* %45, align 4, !dbg !4400    ; [debug line = 67:3]
  %46 = getelementptr inbounds [17 x i32]* %Parameters, i32 0, i64 7, !dbg !4401 ; [#uses=1 type=i32*] [debug line = 68:3]
  %47 = load i32* %46, align 4, !dbg !4401        ; [#uses=1 type=i32] [debug line = 68:3]
  %48 = getelementptr inbounds [4 x i32]* %Filter_size, i32 0, i64 2, !dbg !4401 ; [#uses=1 type=i32*] [debug line = 68:3]
  store i32 %47, i32* %48, align 4, !dbg !4401    ; [debug line = 68:3]
  %49 = getelementptr inbounds [17 x i32]* %Parameters, i32 0, i64 8, !dbg !4402 ; [#uses=1 type=i32*] [debug line = 69:3]
  %50 = load i32* %49, align 4, !dbg !4402        ; [#uses=1 type=i32] [debug line = 69:3]
  %51 = getelementptr inbounds [4 x i32]* %Filter_size, i32 0, i64 3, !dbg !4402 ; [#uses=1 type=i32*] [debug line = 69:3]
  store i32 %50, i32* %51, align 4, !dbg !4402    ; [debug line = 69:3]
  %52 = getelementptr inbounds [17 x i32]* %Parameters, i32 0, i64 2, !dbg !4403 ; [#uses=1 type=i32*] [debug line = 70:3]
  %53 = load i32* %52, align 4, !dbg !4403        ; [#uses=1 type=i32] [debug line = 70:3]
  %54 = getelementptr inbounds [3 x i32]* %Input_Size, i32 0, i64 0, !dbg !4403 ; [#uses=1 type=i32*] [debug line = 70:3]
  store i32 %53, i32* %54, align 4, !dbg !4403    ; [debug line = 70:3]
  %55 = getelementptr inbounds [17 x i32]* %Parameters, i32 0, i64 3, !dbg !4404 ; [#uses=1 type=i32*] [debug line = 71:3]
  %56 = load i32* %55, align 4, !dbg !4404        ; [#uses=1 type=i32] [debug line = 71:3]
  %57 = getelementptr inbounds [3 x i32]* %Input_Size, i32 0, i64 1, !dbg !4404 ; [#uses=1 type=i32*] [debug line = 71:3]
  store i32 %56, i32* %57, align 4, !dbg !4404    ; [debug line = 71:3]
  %58 = getelementptr inbounds [17 x i32]* %Parameters, i32 0, i64 4, !dbg !4405 ; [#uses=1 type=i32*] [debug line = 72:3]
  %59 = load i32* %58, align 4, !dbg !4405        ; [#uses=1 type=i32] [debug line = 72:3]
  %60 = getelementptr inbounds [3 x i32]* %Input_Size, i32 0, i64 2, !dbg !4405 ; [#uses=1 type=i32*] [debug line = 72:3]
  store i32 %59, i32* %60, align 4, !dbg !4405    ; [debug line = 72:3]
  %61 = getelementptr inbounds [17 x i32]* %Parameters, i32 0, i64 14, !dbg !4406 ; [#uses=1 type=i32*] [debug line = 75:3]
  %62 = load i32* %61, align 4, !dbg !4406        ; [#uses=1 type=i32] [debug line = 75:3]
  %63 = sitofp i32 %62 to float, !dbg !4406       ; [#uses=1 type=float] [debug line = 75:3]
  store float %63, float* %Precision, align 4, !dbg !4406 ; [debug line = 75:3]
  %64 = load i32* %Load_Input, align 4, !dbg !4407 ; [#uses=1 type=i32] [debug line = 77:3]
  %65 = icmp eq i32 %64, 1, !dbg !4407            ; [#uses=1 type=i1] [debug line = 77:3]
  br i1 %65, label %66, label %87, !dbg !4407     ; [debug line = 77:3]

; <label>:66                                      ; preds = %25
  call void @llvm.dbg.declare(metadata !{i32* %idx1}, metadata !4408), !dbg !4411 ; [debug line = 79:12] [debug variable = idx]
  store i32 0, i32* %idx1, align 4, !dbg !4412    ; [debug line = 79:17]
  br label %67, !dbg !4412                        ; [debug line = 79:17]

; <label>:67                                      ; preds = %83, %66
  %68 = load i32* %idx1, align 4, !dbg !4412      ; [#uses=1 type=i32] [debug line = 79:17]
  %69 = getelementptr inbounds [17 x i32]* %Parameters, i32 0, i64 1, !dbg !4412 ; [#uses=1 type=i32*] [debug line = 79:17]
  %70 = load i32* %69, align 4, !dbg !4412        ; [#uses=1 type=i32] [debug line = 79:17]
  %71 = icmp slt i32 %68, %70, !dbg !4412         ; [#uses=1 type=i1] [debug line = 79:17]
  br i1 %71, label %72, label %86, !dbg !4412     ; [debug line = 79:17]

; <label>:72                                      ; preds = %67
  %73 = load %struct.ap_axiu** %1, align 8, !dbg !4413 ; [#uses=1 type=%struct.ap_axiu*] [debug line = 81:15]
  %74 = load %struct.ap_axiu** %2, align 8, !dbg !4413 ; [#uses=1 type=%struct.ap_axiu*] [debug line = 81:15]
  %75 = call i32 @_Z12Axi_TransferP7ap_axiuILi32ELi1ELi1ELi1EES1_ii(%struct.ap_axiu* %73, %struct.ap_axiu* %74, i32 1, i32 0), !dbg !4413 ; [#uses=1 type=i32] [debug line = 81:15]
  %76 = sitofp i32 %75 to float, !dbg !4413       ; [#uses=1 type=float] [debug line = 81:15]
  store float %76, float* %Temproray, align 4, !dbg !4413 ; [debug line = 81:15]
  %77 = load float* %Temproray, align 4, !dbg !4415 ; [#uses=1 type=float] [debug line = 82:4]
  %78 = load float* %Precision, align 4, !dbg !4415 ; [#uses=1 type=float] [debug line = 82:4]
  %79 = fdiv float %77, %78, !dbg !4415           ; [#uses=1 type=float] [debug line = 82:4]
  %80 = load i32* %idx1, align 4, !dbg !4415      ; [#uses=1 type=i32] [debug line = 82:4]
  %81 = sext i32 %80 to i64, !dbg !4415           ; [#uses=1 type=i64] [debug line = 82:4]
  %82 = getelementptr inbounds [30000 x float]* %Input, i32 0, i64 %81, !dbg !4415 ; [#uses=1 type=float*] [debug line = 82:4]
  store float %79, float* %82, align 4, !dbg !4415 ; [debug line = 82:4]
  br label %83, !dbg !4416                        ; [debug line = 83:3]

; <label>:83                                      ; preds = %72
  %84 = load i32* %idx1, align 4, !dbg !4417      ; [#uses=1 type=i32] [debug line = 79:37]
  %85 = add nsw i32 %84, 1, !dbg !4417            ; [#uses=1 type=i32] [debug line = 79:37]
  store i32 %85, i32* %idx1, align 4, !dbg !4417  ; [debug line = 79:37]
  br label %67, !dbg !4417                        ; [debug line = 79:37]

; <label>:86                                      ; preds = %67
  br label %87, !dbg !4418                        ; [debug line = 84:3]

; <label>:87                                      ; preds = %86, %25
  %88 = load i32* %Load_Weight, align 4, !dbg !4419 ; [#uses=1 type=i32] [debug line = 85:3]
  %89 = icmp eq i32 %88, 1, !dbg !4419            ; [#uses=1 type=i1] [debug line = 85:3]
  br i1 %89, label %90, label %148, !dbg !4419    ; [debug line = 85:3]

; <label>:90                                      ; preds = %87
  %91 = load i32* %Bias_Activation, align 4, !dbg !4420 ; [#uses=1 type=i32] [debug line = 88:3]
  %92 = icmp eq i32 %91, 1, !dbg !4420            ; [#uses=1 type=i1] [debug line = 88:3]
  br i1 %92, label %93, label %116, !dbg !4420    ; [debug line = 88:3]

; <label>:93                                      ; preds = %90
  call void @llvm.dbg.declare(metadata !{i32* %idx2}, metadata !4422), !dbg !4425 ; [debug line = 90:13] [debug variable = idx]
  store i32 0, i32* %idx2, align 4, !dbg !4426    ; [debug line = 90:18]
  br label %94, !dbg !4426                        ; [debug line = 90:18]

; <label>:94                                      ; preds = %112, %93
  %95 = load i32* %idx2, align 4, !dbg !4426      ; [#uses=1 type=i32] [debug line = 90:18]
  %96 = getelementptr inbounds [4 x i32]* %Filter_size, i32 0, i64 0, !dbg !4426 ; [#uses=1 type=i32*] [debug line = 90:18]
  %97 = load i32* %96, align 4, !dbg !4426        ; [#uses=1 type=i32] [debug line = 90:18]
  %98 = icmp slt i32 %95, %97, !dbg !4426         ; [#uses=1 type=i1] [debug line = 90:18]
  br i1 %98, label %99, label %115, !dbg !4426    ; [debug line = 90:18]

; <label>:99                                      ; preds = %94
  store float 2.000000e+00, float* %Transfer_value, align 4, !dbg !4427 ; [debug line = 92:5]
  %100 = load %struct.ap_axiu** %1, align 8, !dbg !4429 ; [#uses=1 type=%struct.ap_axiu*] [debug line = 93:16]
  %101 = load %struct.ap_axiu** %2, align 8, !dbg !4429 ; [#uses=1 type=%struct.ap_axiu*] [debug line = 93:16]
  %102 = load float* %Transfer_value, align 4, !dbg !4429 ; [#uses=1 type=float] [debug line = 93:16]
  %103 = fptosi float %102 to i32, !dbg !4429     ; [#uses=1 type=i32] [debug line = 93:16]
  %104 = call i32 @_Z12Axi_TransferP7ap_axiuILi32ELi1ELi1ELi1EES1_ii(%struct.ap_axiu* %100, %struct.ap_axiu* %101, i32 %103, i32 0), !dbg !4429 ; [#uses=1 type=i32] [debug line = 93:16]
  %105 = sitofp i32 %104 to float, !dbg !4429     ; [#uses=1 type=float] [debug line = 93:16]
  store float %105, float* %Temproray, align 4, !dbg !4429 ; [debug line = 93:16]
  %106 = load float* %Temproray, align 4, !dbg !4430 ; [#uses=1 type=float] [debug line = 94:5]
  %107 = load float* %Precision, align 4, !dbg !4430 ; [#uses=1 type=float] [debug line = 94:5]
  %108 = fdiv float %106, %107, !dbg !4430        ; [#uses=1 type=float] [debug line = 94:5]
  %109 = load i32* %idx2, align 4, !dbg !4430     ; [#uses=1 type=i32] [debug line = 94:5]
  %110 = sext i32 %109 to i64, !dbg !4430         ; [#uses=1 type=i64] [debug line = 94:5]
  %111 = getelementptr inbounds [2000 x float]* %Bias, i32 0, i64 %110, !dbg !4430 ; [#uses=1 type=float*] [debug line = 94:5]
  store float %108, float* %111, align 4, !dbg !4430 ; [debug line = 94:5]
  br label %112, !dbg !4431                       ; [debug line = 95:4]

; <label>:112                                     ; preds = %99
  %113 = load i32* %idx2, align 4, !dbg !4432     ; [#uses=1 type=i32] [debug line = 90:39]
  %114 = add nsw i32 %113, 1, !dbg !4432          ; [#uses=1 type=i32] [debug line = 90:39]
  store i32 %114, i32* %idx2, align 4, !dbg !4432 ; [debug line = 90:39]
  br label %94, !dbg !4432                        ; [debug line = 90:39]

; <label>:115                                     ; preds = %94
  br label %116, !dbg !4433                       ; [debug line = 96:3]

; <label>:116                                     ; preds = %115, %90
  call void @llvm.dbg.declare(metadata !{i32* %idx3}, metadata !4434), !dbg !4436 ; [debug line = 99:12] [debug variable = idx]
  store i32 0, i32* %idx3, align 4, !dbg !4437    ; [debug line = 99:17]
  br label %117, !dbg !4437                       ; [debug line = 99:17]

; <label>:117                                     ; preds = %144, %116
  %118 = load i32* %idx3, align 4, !dbg !4437     ; [#uses=1 type=i32] [debug line = 99:17]
  %119 = getelementptr inbounds [4 x i32]* %Filter_size, i32 0, i64 0, !dbg !4437 ; [#uses=1 type=i32*] [debug line = 99:17]
  %120 = load i32* %119, align 4, !dbg !4437      ; [#uses=1 type=i32] [debug line = 99:17]
  %121 = getelementptr inbounds [4 x i32]* %Filter_size, i32 0, i64 1, !dbg !4437 ; [#uses=1 type=i32*] [debug line = 99:17]
  %122 = load i32* %121, align 4, !dbg !4437      ; [#uses=1 type=i32] [debug line = 99:17]
  %123 = mul nsw i32 %120, %122, !dbg !4437       ; [#uses=1 type=i32] [debug line = 99:17]
  %124 = getelementptr inbounds [4 x i32]* %Filter_size, i32 0, i64 2, !dbg !4437 ; [#uses=1 type=i32*] [debug line = 99:17]
  %125 = load i32* %124, align 4, !dbg !4437      ; [#uses=1 type=i32] [debug line = 99:17]
  %126 = mul nsw i32 %123, %125, !dbg !4437       ; [#uses=1 type=i32] [debug line = 99:17]
  %127 = getelementptr inbounds [4 x i32]* %Filter_size, i32 0, i64 3, !dbg !4437 ; [#uses=1 type=i32*] [debug line = 99:17]
  %128 = load i32* %127, align 4, !dbg !4437      ; [#uses=1 type=i32] [debug line = 99:17]
  %129 = mul nsw i32 %126, %128, !dbg !4437       ; [#uses=1 type=i32] [debug line = 99:17]
  %130 = icmp slt i32 %118, %129, !dbg !4437      ; [#uses=1 type=i1] [debug line = 99:17]
  br i1 %130, label %131, label %147, !dbg !4437  ; [debug line = 99:17]

; <label>:131                                     ; preds = %117
  store float 3.000000e+00, float* %Transfer_value, align 4, !dbg !4438 ; [debug line = 101:4]
  %132 = load %struct.ap_axiu** %1, align 8, !dbg !4440 ; [#uses=1 type=%struct.ap_axiu*] [debug line = 102:15]
  %133 = load %struct.ap_axiu** %2, align 8, !dbg !4440 ; [#uses=1 type=%struct.ap_axiu*] [debug line = 102:15]
  %134 = load float* %Transfer_value, align 4, !dbg !4440 ; [#uses=1 type=float] [debug line = 102:15]
  %135 = fptosi float %134 to i32, !dbg !4440     ; [#uses=1 type=i32] [debug line = 102:15]
  %136 = call i32 @_Z12Axi_TransferP7ap_axiuILi32ELi1ELi1ELi1EES1_ii(%struct.ap_axiu* %132, %struct.ap_axiu* %133, i32 %135, i32 0), !dbg !4440 ; [#uses=1 type=i32] [debug line = 102:15]
  %137 = sitofp i32 %136 to float, !dbg !4440     ; [#uses=1 type=float] [debug line = 102:15]
  store float %137, float* %Temproray, align 4, !dbg !4440 ; [debug line = 102:15]
  %138 = load float* %Temproray, align 4, !dbg !4441 ; [#uses=1 type=float] [debug line = 103:4]
  %139 = load float* %Precision, align 4, !dbg !4441 ; [#uses=1 type=float] [debug line = 103:4]
  %140 = fdiv float %138, %139, !dbg !4441        ; [#uses=1 type=float] [debug line = 103:4]
  %141 = load i32* %idx3, align 4, !dbg !4441     ; [#uses=1 type=i32] [debug line = 103:4]
  %142 = sext i32 %141 to i64, !dbg !4441         ; [#uses=1 type=i64] [debug line = 103:4]
  %143 = getelementptr inbounds [30000 x float]* %Weight, i32 0, i64 %142, !dbg !4441 ; [#uses=1 type=float*] [debug line = 103:4]
  store float %140, float* %143, align 4, !dbg !4441 ; [debug line = 103:4]
  br label %144, !dbg !4442                       ; [debug line = 105:3]

; <label>:144                                     ; preds = %131
  %145 = load i32* %idx3, align 4, !dbg !4443     ; [#uses=1 type=i32] [debug line = 99:85]
  %146 = add nsw i32 %145, 1, !dbg !4443          ; [#uses=1 type=i32] [debug line = 99:85]
  store i32 %146, i32* %idx3, align 4, !dbg !4443 ; [debug line = 99:85]
  br label %117, !dbg !4443                       ; [debug line = 99:85]

; <label>:147                                     ; preds = %117
  br label %148, !dbg !4444                       ; [debug line = 106:3]

; <label>:148                                     ; preds = %147, %87
  %149 = getelementptr inbounds [3 x i32]* %Input_Size, i32 0, i64 1, !dbg !4445 ; [#uses=1 type=i32*] [debug line = 108:3]
  %150 = load i32* %149, align 4, !dbg !4445      ; [#uses=1 type=i32] [debug line = 108:3]
  %151 = getelementptr inbounds [4 x i32]* %Filter_size, i32 0, i64 2, !dbg !4445 ; [#uses=1 type=i32*] [debug line = 108:3]
  %152 = load i32* %151, align 4, !dbg !4445      ; [#uses=1 type=i32] [debug line = 108:3]
  %153 = sub nsw i32 %150, %152, !dbg !4445       ; [#uses=1 type=i32] [debug line = 108:3]
  %154 = getelementptr inbounds [2 x i32]* %Stride_Size, i32 0, i64 0, !dbg !4445 ; [#uses=1 type=i32*] [debug line = 108:3]
  %155 = load i32* %154, align 4, !dbg !4445      ; [#uses=1 type=i32] [debug line = 108:3]
  %156 = sdiv i32 %153, %155, !dbg !4445          ; [#uses=1 type=i32] [debug line = 108:3]
  %157 = add nsw i32 %156, 1, !dbg !4445          ; [#uses=1 type=i32] [debug line = 108:3]
  store i32 %157, i32* %H_Result, align 4, !dbg !4445 ; [debug line = 108:3]
  %158 = getelementptr inbounds [3 x i32]* %Input_Size, i32 0, i64 2, !dbg !4446 ; [#uses=1 type=i32*] [debug line = 109:3]
  %159 = load i32* %158, align 4, !dbg !4446      ; [#uses=1 type=i32] [debug line = 109:3]
  %160 = getelementptr inbounds [4 x i32]* %Filter_size, i32 0, i64 3, !dbg !4446 ; [#uses=1 type=i32*] [debug line = 109:3]
  %161 = load i32* %160, align 4, !dbg !4446      ; [#uses=1 type=i32] [debug line = 109:3]
  %162 = sub nsw i32 %159, %161, !dbg !4446       ; [#uses=1 type=i32] [debug line = 109:3]
  %163 = getelementptr inbounds [2 x i32]* %Stride_Size, i32 0, i64 1, !dbg !4446 ; [#uses=1 type=i32*] [debug line = 109:3]
  %164 = load i32* %163, align 4, !dbg !4446      ; [#uses=1 type=i32] [debug line = 109:3]
  %165 = sdiv i32 %162, %164, !dbg !4446          ; [#uses=1 type=i32] [debug line = 109:3]
  %166 = add nsw i32 %165, 1, !dbg !4446          ; [#uses=1 type=i32] [debug line = 109:3]
  store i32 %166, i32* %W_Result, align 4, !dbg !4446 ; [debug line = 109:3]
  %167 = getelementptr inbounds [4 x i32]* %Filter_size, i32 0, i64 0, !dbg !4447 ; [#uses=1 type=i32*] [debug line = 112:6]
  %168 = load i32* %167, align 4, !dbg !4447      ; [#uses=1 type=i32] [debug line = 112:6]
  %169 = load i32* %W_Result, align 4, !dbg !4447 ; [#uses=1 type=i32] [debug line = 112:6]
  %170 = mul nsw i32 %168, %169, !dbg !4447       ; [#uses=1 type=i32] [debug line = 112:6]
  %171 = load i32* %H_Result, align 4, !dbg !4447 ; [#uses=1 type=i32] [debug line = 112:6]
  %172 = mul nsw i32 %170, %171, !dbg !4447       ; [#uses=1 type=i32] [debug line = 112:6]
  %173 = sitofp i32 %172 to float, !dbg !4447     ; [#uses=1 type=float] [debug line = 112:6]
  store float %173, float* %Temproray, align 4, !dbg !4447 ; [debug line = 112:6]
  %174 = load %struct.ap_axiu** %1, align 8, !dbg !4448 ; [#uses=1 type=%struct.ap_axiu*] [debug line = 113:6]
  %175 = load %struct.ap_axiu** %2, align 8, !dbg !4448 ; [#uses=1 type=%struct.ap_axiu*] [debug line = 113:6]
  %176 = load float* %Temproray, align 4, !dbg !4448 ; [#uses=1 type=float] [debug line = 113:6]
  %177 = fptosi float %176 to i32, !dbg !4448     ; [#uses=1 type=i32] [debug line = 113:6]
  %178 = call i32 @_Z12Axi_TransferP7ap_axiuILi32ELi1ELi1ELi1EES1_ii(%struct.ap_axiu* %174, %struct.ap_axiu* %175, i32 %177, i32 0), !dbg !4448 ; [#uses=0 type=i32] [debug line = 113:6]
  %179 = load %struct.ap_axiu** %1, align 8, !dbg !4449 ; [#uses=1 type=%struct.ap_axiu*] [debug line = 114:6]
  %180 = load %struct.ap_axiu** %2, align 8, !dbg !4449 ; [#uses=1 type=%struct.ap_axiu*] [debug line = 114:6]
  %181 = load i32* %H_Result, align 4, !dbg !4449 ; [#uses=1 type=i32] [debug line = 114:6]
  %182 = call i32 @_Z12Axi_TransferP7ap_axiuILi32ELi1ELi1ELi1EES1_ii(%struct.ap_axiu* %179, %struct.ap_axiu* %180, i32 %181, i32 0), !dbg !4449 ; [#uses=0 type=i32] [debug line = 114:6]
  %183 = load %struct.ap_axiu** %1, align 8, !dbg !4450 ; [#uses=1 type=%struct.ap_axiu*] [debug line = 115:6]
  %184 = load %struct.ap_axiu** %2, align 8, !dbg !4450 ; [#uses=1 type=%struct.ap_axiu*] [debug line = 115:6]
  %185 = load i32* %W_Result, align 4, !dbg !4450 ; [#uses=1 type=i32] [debug line = 115:6]
  %186 = call i32 @_Z12Axi_TransferP7ap_axiuILi32ELi1ELi1ELi1EES1_ii(%struct.ap_axiu* %183, %struct.ap_axiu* %184, i32 %185, i32 0), !dbg !4450 ; [#uses=0 type=i32] [debug line = 115:6]
  call void @llvm.dbg.declare(metadata !{i32* %idx4}, metadata !4451), !dbg !4453 ; [debug line = 121:15] [debug variable = idx]
  store i32 0, i32* %idx4, align 4, !dbg !4454    ; [debug line = 121:20]
  br label %187, !dbg !4454                       ; [debug line = 121:20]

; <label>:187                                     ; preds = %339, %148
  %188 = load i32* %idx4, align 4, !dbg !4454     ; [#uses=1 type=i32] [debug line = 121:20]
  %189 = getelementptr inbounds [4 x i32]* %Filter_size, i32 0, i64 0, !dbg !4454 ; [#uses=1 type=i32*] [debug line = 121:20]
  %190 = load i32* %189, align 4, !dbg !4454      ; [#uses=1 type=i32] [debug line = 121:20]
  %191 = icmp slt i32 %188, %190, !dbg !4454      ; [#uses=1 type=i1] [debug line = 121:20]
  br i1 %191, label %192, label %342, !dbg !4454  ; [debug line = 121:20]

; <label>:192                                     ; preds = %187
  call void @llvm.dbg.declare(metadata !{i32* %idx25}, metadata !4455), !dbg !4458 ; [debug line = 123:18] [debug variable = idx2]
  store i32 0, i32* %idx25, align 4, !dbg !4459   ; [debug line = 123:24]
  br label %193, !dbg !4459                       ; [debug line = 123:24]

; <label>:193                                     ; preds = %335, %192
  %194 = load i32* %idx25, align 4, !dbg !4459    ; [#uses=1 type=i32] [debug line = 123:24]
  %195 = load i32* %H_Result, align 4, !dbg !4459 ; [#uses=1 type=i32] [debug line = 123:24]
  %196 = icmp slt i32 %194, %195, !dbg !4459      ; [#uses=1 type=i1] [debug line = 123:24]
  br i1 %196, label %197, label %338, !dbg !4459  ; [debug line = 123:24]

; <label>:197                                     ; preds = %193
  call void @llvm.dbg.declare(metadata !{i32* %idx36}, metadata !4460), !dbg !4463 ; [debug line = 125:22] [debug variable = idx3]
  store i32 0, i32* %idx36, align 4, !dbg !4464   ; [debug line = 125:28]
  br label %198, !dbg !4464                       ; [debug line = 125:28]

; <label>:198                                     ; preds = %331, %197
  %199 = load i32* %idx36, align 4, !dbg !4464    ; [#uses=1 type=i32] [debug line = 125:28]
  %200 = load i32* %W_Result, align 4, !dbg !4464 ; [#uses=1 type=i32] [debug line = 125:28]
  %201 = icmp slt i32 %199, %200, !dbg !4464      ; [#uses=1 type=i1] [debug line = 125:28]
  br i1 %201, label %202, label %334, !dbg !4464  ; [debug line = 125:28]

; <label>:202                                     ; preds = %198
  call void (...)* @_ssdm_RegionBegin(i8* getelementptr inbounds ([12 x i8]* @.str4, i32 0, i32 0)) nounwind, !dbg !4465 ; [debug line = 126:19]
  %203 = load i32* %idx4, align 4, !dbg !4467     ; [#uses=1 type=i32] [debug line = 127:15]
  %204 = load i32* %H_Result, align 4, !dbg !4467 ; [#uses=1 type=i32] [debug line = 127:15]
  %205 = load i32* %W_Result, align 4, !dbg !4467 ; [#uses=1 type=i32] [debug line = 127:15]
  %206 = mul nsw i32 %204, %205, !dbg !4467       ; [#uses=1 type=i32] [debug line = 127:15]
  %207 = mul nsw i32 %203, %206, !dbg !4467       ; [#uses=1 type=i32] [debug line = 127:15]
  %208 = load i32* %idx25, align 4, !dbg !4467    ; [#uses=1 type=i32] [debug line = 127:15]
  %209 = load i32* %W_Result, align 4, !dbg !4467 ; [#uses=1 type=i32] [debug line = 127:15]
  %210 = mul nsw i32 %208, %209, !dbg !4467       ; [#uses=1 type=i32] [debug line = 127:15]
  %211 = add nsw i32 %207, %210, !dbg !4467       ; [#uses=1 type=i32] [debug line = 127:15]
  %212 = load i32* %idx36, align 4, !dbg !4467    ; [#uses=1 type=i32] [debug line = 127:15]
  %213 = add nsw i32 %211, %212, !dbg !4467       ; [#uses=1 type=i32] [debug line = 127:15]
  store i32 %213, i32* %Index2, align 4, !dbg !4467 ; [debug line = 127:15]
  store float 0.000000e+00, float* %Convolve_value, align 4, !dbg !4468 ; [debug line = 128:15]
  call void (...)* @_ssdm_op_SpecPipeline(i32 1, i32 1, i32 1, i32 0, i8* getelementptr inbounds ([1 x i8]* @.str1, i32 0, i32 0)) nounwind, !dbg !4469 ; [debug line = 129:1]
  call void @llvm.dbg.declare(metadata !{i32* %k}, metadata !4470), !dbg !4472 ; [debug line = 130:10] [debug variable = k]
  store i32 0, i32* %k, align 4, !dbg !4473       ; [debug line = 130:13]
  br label %214, !dbg !4473                       ; [debug line = 130:13]

; <label>:214                                     ; preds = %301, %202
  %215 = load i32* %k, align 4, !dbg !4473        ; [#uses=1 type=i32] [debug line = 130:13]
  %216 = getelementptr inbounds [4 x i32]* %Filter_size, i32 0, i64 1, !dbg !4473 ; [#uses=1 type=i32*] [debug line = 130:13]
  %217 = load i32* %216, align 4, !dbg !4473      ; [#uses=1 type=i32] [debug line = 130:13]
  %218 = icmp slt i32 %215, %217, !dbg !4473      ; [#uses=1 type=i1] [debug line = 130:13]
  br i1 %218, label %219, label %304, !dbg !4473  ; [debug line = 130:13]

; <label>:219                                     ; preds = %214
  %220 = load i32* %k, align 4, !dbg !4474        ; [#uses=1 type=i32] [debug line = 132:16]
  %221 = getelementptr inbounds [3 x i32]* %Input_Size, i32 0, i64 1, !dbg !4474 ; [#uses=1 type=i32*] [debug line = 132:16]
  %222 = load i32* %221, align 4, !dbg !4474      ; [#uses=1 type=i32] [debug line = 132:16]
  %223 = getelementptr inbounds [3 x i32]* %Input_Size, i32 0, i64 2, !dbg !4474 ; [#uses=1 type=i32*] [debug line = 132:16]
  %224 = load i32* %223, align 4, !dbg !4474      ; [#uses=1 type=i32] [debug line = 132:16]
  %225 = mul nsw i32 %222, %224, !dbg !4474       ; [#uses=1 type=i32] [debug line = 132:16]
  %226 = mul nsw i32 %220, %225, !dbg !4474       ; [#uses=1 type=i32] [debug line = 132:16]
  store i32 %226, i32* %R_Plane, align 4, !dbg !4474 ; [debug line = 132:16]
  call void @llvm.dbg.declare(metadata !{i32* %i}, metadata !4476), !dbg !4478 ; [debug line = 133:15] [debug variable = i]
  store i32 0, i32* %i, align 4, !dbg !4479       ; [debug line = 133:18]
  br label %227, !dbg !4479                       ; [debug line = 133:18]

; <label>:227                                     ; preds = %297, %219
  %228 = load i32* %i, align 4, !dbg !4479        ; [#uses=1 type=i32] [debug line = 133:18]
  %229 = getelementptr inbounds [4 x i32]* %Filter_size, i32 0, i64 2, !dbg !4479 ; [#uses=1 type=i32*] [debug line = 133:18]
  %230 = load i32* %229, align 4, !dbg !4479      ; [#uses=1 type=i32] [debug line = 133:18]
  %231 = icmp slt i32 %228, %230, !dbg !4479      ; [#uses=1 type=i1] [debug line = 133:18]
  br i1 %231, label %232, label %300, !dbg !4479  ; [debug line = 133:18]

; <label>:232                                     ; preds = %227
  %233 = load i32* %R_Plane, align 4, !dbg !4480  ; [#uses=1 type=i32] [debug line = 135:8]
  %234 = load i32* %idx25, align 4, !dbg !4480    ; [#uses=1 type=i32] [debug line = 135:8]
  %235 = getelementptr inbounds [2 x i32]* %Stride_Size, i32 0, i64 0, !dbg !4480 ; [#uses=1 type=i32*] [debug line = 135:8]
  %236 = load i32* %235, align 4, !dbg !4480      ; [#uses=1 type=i32] [debug line = 135:8]
  %237 = mul nsw i32 %234, %236, !dbg !4480       ; [#uses=1 type=i32] [debug line = 135:8]
  %238 = load i32* %i, align 4, !dbg !4480        ; [#uses=1 type=i32] [debug line = 135:8]
  %239 = add nsw i32 %237, %238, !dbg !4480       ; [#uses=1 type=i32] [debug line = 135:8]
  %240 = getelementptr inbounds [3 x i32]* %Input_Size, i32 0, i64 2, !dbg !4480 ; [#uses=1 type=i32*] [debug line = 135:8]
  %241 = load i32* %240, align 4, !dbg !4480      ; [#uses=1 type=i32] [debug line = 135:8]
  %242 = mul nsw i32 %239, %241, !dbg !4480       ; [#uses=1 type=i32] [debug line = 135:8]
  %243 = add nsw i32 %233, %242, !dbg !4480       ; [#uses=1 type=i32] [debug line = 135:8]
  store i32 %243, i32* %R_Row, align 4, !dbg !4480 ; [debug line = 135:8]
  call void @llvm.dbg.declare(metadata !{i32* %j}, metadata !4482), !dbg !4484 ; [debug line = 136:16] [debug variable = j]
  store i32 0, i32* %j, align 4, !dbg !4485       ; [debug line = 136:19]
  br label %244, !dbg !4485                       ; [debug line = 136:19]

; <label>:244                                     ; preds = %293, %232
  %245 = load i32* %j, align 4, !dbg !4485        ; [#uses=1 type=i32] [debug line = 136:19]
  %246 = getelementptr inbounds [4 x i32]* %Filter_size, i32 0, i64 3, !dbg !4485 ; [#uses=1 type=i32*] [debug line = 136:19]
  %247 = load i32* %246, align 4, !dbg !4485      ; [#uses=1 type=i32] [debug line = 136:19]
  %248 = icmp slt i32 %245, %247, !dbg !4485      ; [#uses=1 type=i1] [debug line = 136:19]
  br i1 %248, label %249, label %296, !dbg !4485  ; [debug line = 136:19]

; <label>:249                                     ; preds = %244
  %250 = load i32* %R_Row, align 4, !dbg !4486    ; [#uses=1 type=i32] [debug line = 138:10]
  %251 = load i32* %idx36, align 4, !dbg !4486    ; [#uses=1 type=i32] [debug line = 138:10]
  %252 = getelementptr inbounds [2 x i32]* %Stride_Size, i32 0, i64 1, !dbg !4486 ; [#uses=1 type=i32*] [debug line = 138:10]
  %253 = load i32* %252, align 4, !dbg !4486      ; [#uses=1 type=i32] [debug line = 138:10]
  %254 = mul nsw i32 %251, %253, !dbg !4486       ; [#uses=1 type=i32] [debug line = 138:10]
  %255 = add nsw i32 %250, %254, !dbg !4486       ; [#uses=1 type=i32] [debug line = 138:10]
  %256 = load i32* %j, align 4, !dbg !4486        ; [#uses=1 type=i32] [debug line = 138:10]
  %257 = add nsw i32 %255, %256, !dbg !4486       ; [#uses=1 type=i32] [debug line = 138:10]
  store i32 %257, i32* %Index, align 4, !dbg !4486 ; [debug line = 138:10]
  %258 = load float* %Convolve_value, align 4, !dbg !4488 ; [#uses=1 type=float] [debug line = 140:10]
  %259 = load i32* %Index, align 4, !dbg !4488    ; [#uses=1 type=i32] [debug line = 140:10]
  %260 = sext i32 %259 to i64, !dbg !4488         ; [#uses=1 type=i64] [debug line = 140:10]
  %261 = getelementptr inbounds [30000 x float]* %Input, i32 0, i64 %260, !dbg !4488 ; [#uses=1 type=float*] [debug line = 140:10]
  %262 = load float* %261, align 4, !dbg !4488    ; [#uses=1 type=float] [debug line = 140:10]
  %263 = load i32* %idx4, align 4, !dbg !4488     ; [#uses=1 type=i32] [debug line = 140:10]
  %264 = getelementptr inbounds [4 x i32]* %Filter_size, i32 0, i64 1, !dbg !4488 ; [#uses=1 type=i32*] [debug line = 140:10]
  %265 = load i32* %264, align 4, !dbg !4488      ; [#uses=1 type=i32] [debug line = 140:10]
  %266 = getelementptr inbounds [4 x i32]* %Filter_size, i32 0, i64 2, !dbg !4488 ; [#uses=1 type=i32*] [debug line = 140:10]
  %267 = load i32* %266, align 4, !dbg !4488      ; [#uses=1 type=i32] [debug line = 140:10]
  %268 = mul nsw i32 %265, %267, !dbg !4488       ; [#uses=1 type=i32] [debug line = 140:10]
  %269 = getelementptr inbounds [4 x i32]* %Filter_size, i32 0, i64 3, !dbg !4488 ; [#uses=1 type=i32*] [debug line = 140:10]
  %270 = load i32* %269, align 4, !dbg !4488      ; [#uses=1 type=i32] [debug line = 140:10]
  %271 = mul nsw i32 %268, %270, !dbg !4488       ; [#uses=1 type=i32] [debug line = 140:10]
  %272 = mul nsw i32 %263, %271, !dbg !4488       ; [#uses=1 type=i32] [debug line = 140:10]
  %273 = load i32* %k, align 4, !dbg !4488        ; [#uses=1 type=i32] [debug line = 140:10]
  %274 = getelementptr inbounds [4 x i32]* %Filter_size, i32 0, i64 2, !dbg !4488 ; [#uses=1 type=i32*] [debug line = 140:10]
  %275 = load i32* %274, align 4, !dbg !4488      ; [#uses=1 type=i32] [debug line = 140:10]
  %276 = mul nsw i32 %273, %275, !dbg !4488       ; [#uses=1 type=i32] [debug line = 140:10]
  %277 = getelementptr inbounds [4 x i32]* %Filter_size, i32 0, i64 3, !dbg !4488 ; [#uses=1 type=i32*] [debug line = 140:10]
  %278 = load i32* %277, align 4, !dbg !4488      ; [#uses=1 type=i32] [debug line = 140:10]
  %279 = mul nsw i32 %276, %278, !dbg !4488       ; [#uses=1 type=i32] [debug line = 140:10]
  %280 = add nsw i32 %272, %279, !dbg !4488       ; [#uses=1 type=i32] [debug line = 140:10]
  %281 = load i32* %i, align 4, !dbg !4488        ; [#uses=1 type=i32] [debug line = 140:10]
  %282 = getelementptr inbounds [4 x i32]* %Filter_size, i32 0, i64 3, !dbg !4488 ; [#uses=1 type=i32*] [debug line = 140:10]
  %283 = load i32* %282, align 4, !dbg !4488      ; [#uses=1 type=i32] [debug line = 140:10]
  %284 = mul nsw i32 %281, %283, !dbg !4488       ; [#uses=1 type=i32] [debug line = 140:10]
  %285 = add nsw i32 %280, %284, !dbg !4488       ; [#uses=1 type=i32] [debug line = 140:10]
  %286 = load i32* %j, align 4, !dbg !4488        ; [#uses=1 type=i32] [debug line = 140:10]
  %287 = add nsw i32 %285, %286, !dbg !4488       ; [#uses=1 type=i32] [debug line = 140:10]
  %288 = sext i32 %287 to i64, !dbg !4488         ; [#uses=1 type=i64] [debug line = 140:10]
  %289 = getelementptr inbounds [30000 x float]* %Weight, i32 0, i64 %288, !dbg !4488 ; [#uses=1 type=float*] [debug line = 140:10]
  %290 = load float* %289, align 4, !dbg !4488    ; [#uses=1 type=float] [debug line = 140:10]
  %291 = fmul float %262, %290, !dbg !4488        ; [#uses=1 type=float] [debug line = 140:10]
  %292 = fadd float %258, %291, !dbg !4488        ; [#uses=1 type=float] [debug line = 140:10]
  store float %292, float* %Convolve_value, align 4, !dbg !4488 ; [debug line = 140:10]
  br label %293, !dbg !4489                       ; [debug line = 142:9]

; <label>:293                                     ; preds = %249
  %294 = load i32* %j, align 4, !dbg !4490        ; [#uses=1 type=i32] [debug line = 136:38]
  %295 = add nsw i32 %294, 1, !dbg !4490          ; [#uses=1 type=i32] [debug line = 136:38]
  store i32 %295, i32* %j, align 4, !dbg !4490    ; [debug line = 136:38]
  br label %244, !dbg !4490                       ; [debug line = 136:38]

; <label>:296                                     ; preds = %244
  br label %297, !dbg !4491                       ; [debug line = 143:8]

; <label>:297                                     ; preds = %296
  %298 = load i32* %i, align 4, !dbg !4492        ; [#uses=1 type=i32] [debug line = 133:37]
  %299 = add nsw i32 %298, 1, !dbg !4492          ; [#uses=1 type=i32] [debug line = 133:37]
  store i32 %299, i32* %i, align 4, !dbg !4492    ; [debug line = 133:37]
  br label %227, !dbg !4492                       ; [debug line = 133:37]

; <label>:300                                     ; preds = %227
  br label %301, !dbg !4493                       ; [debug line = 144:15]

; <label>:301                                     ; preds = %300
  %302 = load i32* %k, align 4, !dbg !4494        ; [#uses=1 type=i32] [debug line = 130:32]
  %303 = add nsw i32 %302, 1, !dbg !4494          ; [#uses=1 type=i32] [debug line = 130:32]
  store i32 %303, i32* %k, align 4, !dbg !4494    ; [debug line = 130:32]
  br label %214, !dbg !4494                       ; [debug line = 130:32]

; <label>:304                                     ; preds = %214
  %305 = load i32* %Bias_Activation, align 4, !dbg !4495 ; [#uses=1 type=i32] [debug line = 145:15]
  %306 = icmp ne i32 %305, 0, !dbg !4495          ; [#uses=1 type=i1] [debug line = 145:15]
  br i1 %306, label %307, label %314, !dbg !4495  ; [debug line = 145:15]

; <label>:307                                     ; preds = %304
  %308 = load float* %Convolve_value, align 4, !dbg !4496 ; [#uses=1 type=float] [debug line = 149:16]
  %309 = load i32* %idx4, align 4, !dbg !4496     ; [#uses=1 type=i32] [debug line = 149:16]
  %310 = sext i32 %309 to i64, !dbg !4496         ; [#uses=1 type=i64] [debug line = 149:16]
  %311 = getelementptr inbounds [2000 x float]* %Bias, i32 0, i64 %310, !dbg !4496 ; [#uses=1 type=float*] [debug line = 149:16]
  %312 = load float* %311, align 4, !dbg !4496    ; [#uses=1 type=float] [debug line = 149:16]
  %313 = fadd float %308, %312, !dbg !4496        ; [#uses=1 type=float] [debug line = 149:16]
  store float %313, float* %Convolve_value, align 4, !dbg !4496 ; [debug line = 149:16]
  br label %314, !dbg !4498                       ; [debug line = 150:15]

; <label>:314                                     ; preds = %307, %304
  %315 = load i32* %Relu_Activation, align 4, !dbg !4499 ; [#uses=1 type=i32] [debug line = 151:15]
  %316 = icmp eq i32 %315, 1, !dbg !4499          ; [#uses=1 type=i1] [debug line = 151:15]
  br i1 %316, label %317, label %322, !dbg !4499  ; [debug line = 151:15]

; <label>:317                                     ; preds = %314
  %318 = load float* %Convolve_value, align 4, !dbg !4500 ; [#uses=1 type=float] [debug line = 153:16]
  %319 = fcmp olt float %318, 0.000000e+00, !dbg !4500 ; [#uses=1 type=i1] [debug line = 153:16]
  br i1 %319, label %320, label %321, !dbg !4500  ; [debug line = 153:16]

; <label>:320                                     ; preds = %317
  store float 0.000000e+00, float* %Convolve_value, align 4, !dbg !4502 ; [debug line = 153:40]
  br label %321, !dbg !4502                       ; [debug line = 153:40]

; <label>:321                                     ; preds = %320, %317
  br label %322, !dbg !4503                       ; [debug line = 154:15]

; <label>:322                                     ; preds = %321, %314
  %323 = load float* %Convolve_value, align 4, !dbg !4504 ; [#uses=1 type=float] [debug line = 155:15]
  %324 = load float* %Precision, align 4, !dbg !4504 ; [#uses=1 type=float] [debug line = 155:15]
  %325 = fmul float %323, %324, !dbg !4504        ; [#uses=1 type=float] [debug line = 155:15]
  store float %325, float* %Convolve_value, align 4, !dbg !4504 ; [debug line = 155:15]
  %326 = load %struct.ap_axiu** %1, align 8, !dbg !4505 ; [#uses=1 type=%struct.ap_axiu*] [debug line = 156:15]
  %327 = load %struct.ap_axiu** %2, align 8, !dbg !4505 ; [#uses=1 type=%struct.ap_axiu*] [debug line = 156:15]
  %328 = load float* %Convolve_value, align 4, !dbg !4505 ; [#uses=1 type=float] [debug line = 156:15]
  %329 = fptosi float %328 to i32, !dbg !4505     ; [#uses=1 type=i32] [debug line = 156:15]
  %330 = call i32 @_Z12Axi_TransferP7ap_axiuILi32ELi1ELi1ELi1EES1_ii(%struct.ap_axiu* %326, %struct.ap_axiu* %327, i32 %329, i32 0), !dbg !4505 ; [#uses=0 type=i32] [debug line = 156:15]
  call void (...)* @_ssdm_RegionEnd(i8* getelementptr inbounds ([12 x i8]* @.str4, i32 0, i32 0)) nounwind, !dbg !4506 ; [debug line = 157:18]
  br label %331, !dbg !4506                       ; [debug line = 157:18]

; <label>:331                                     ; preds = %322
  %332 = load i32* %idx36, align 4, !dbg !4507    ; [#uses=1 type=i32] [debug line = 125:44]
  %333 = add nsw i32 %332, 1, !dbg !4507          ; [#uses=1 type=i32] [debug line = 125:44]
  store i32 %333, i32* %idx36, align 4, !dbg !4507 ; [debug line = 125:44]
  br label %198, !dbg !4507                       ; [debug line = 125:44]

; <label>:334                                     ; preds = %198
  br label %335, !dbg !4508                       ; [debug line = 158:14]

; <label>:335                                     ; preds = %334
  %336 = load i32* %idx25, align 4, !dbg !4509    ; [#uses=1 type=i32] [debug line = 123:40]
  %337 = add nsw i32 %336, 1, !dbg !4509          ; [#uses=1 type=i32] [debug line = 123:40]
  store i32 %337, i32* %idx25, align 4, !dbg !4509 ; [debug line = 123:40]
  br label %193, !dbg !4509                       ; [debug line = 123:40]

; <label>:338                                     ; preds = %193
  br label %339, !dbg !4510                       ; [debug line = 159:10]

; <label>:339                                     ; preds = %338
  %340 = load i32* %idx4, align 4, !dbg !4511     ; [#uses=1 type=i32] [debug line = 121:41]
  %341 = add nsw i32 %340, 1, !dbg !4511          ; [#uses=1 type=i32] [debug line = 121:41]
  store i32 %341, i32* %idx4, align 4, !dbg !4511 ; [debug line = 121:41]
  br label %187, !dbg !4511                       ; [debug line = 121:41]

; <label>:342                                     ; preds = %187
  br label %343, !dbg !4512                       ; [debug line = 160:9]

; <label>:343                                     ; preds = %342, %21
  %344 = getelementptr inbounds [17 x i32]* %Parameters, i32 0, i64 0, !dbg !4513 ; [#uses=1 type=i32*] [debug line = 168:2]
  %345 = load i32* %344, align 4, !dbg !4513      ; [#uses=1 type=i32] [debug line = 168:2]
  %346 = icmp eq i32 %345, 1, !dbg !4513          ; [#uses=1 type=i1] [debug line = 168:2]
  br i1 %346, label %347, label %611, !dbg !4513  ; [debug line = 168:2]

; <label>:347                                     ; preds = %343
  %348 = getelementptr inbounds [17 x i32]* %Parameters, i32 0, i64 2, !dbg !4514 ; [#uses=1 type=i32*] [debug line = 172:3]
  %349 = load i32* %348, align 4, !dbg !4514      ; [#uses=1 type=i32] [debug line = 172:3]
  %350 = getelementptr inbounds [3 x i32]* %Input_Size, i32 0, i64 0, !dbg !4514 ; [#uses=1 type=i32*] [debug line = 172:3]
  store i32 %349, i32* %350, align 4, !dbg !4514  ; [debug line = 172:3]
  %351 = getelementptr inbounds [17 x i32]* %Parameters, i32 0, i64 3, !dbg !4516 ; [#uses=1 type=i32*] [debug line = 173:3]
  %352 = load i32* %351, align 4, !dbg !4516      ; [#uses=1 type=i32] [debug line = 173:3]
  %353 = getelementptr inbounds [3 x i32]* %Input_Size, i32 0, i64 1, !dbg !4516 ; [#uses=1 type=i32*] [debug line = 173:3]
  store i32 %352, i32* %353, align 4, !dbg !4516  ; [debug line = 173:3]
  %354 = getelementptr inbounds [17 x i32]* %Parameters, i32 0, i64 4, !dbg !4517 ; [#uses=1 type=i32*] [debug line = 174:3]
  %355 = load i32* %354, align 4, !dbg !4517      ; [#uses=1 type=i32] [debug line = 174:3]
  %356 = getelementptr inbounds [3 x i32]* %Input_Size, i32 0, i64 2, !dbg !4517 ; [#uses=1 type=i32*] [debug line = 174:3]
  store i32 %355, i32* %356, align 4, !dbg !4517  ; [debug line = 174:3]
  %357 = getelementptr inbounds [17 x i32]* %Parameters, i32 0, i64 5, !dbg !4518 ; [#uses=1 type=i32*] [debug line = 175:3]
  %358 = load i32* %357, align 4, !dbg !4518      ; [#uses=1 type=i32] [debug line = 175:3]
  %359 = getelementptr inbounds [2 x i32]* %Window_Size, i32 0, i64 0, !dbg !4518 ; [#uses=1 type=i32*] [debug line = 175:3]
  store i32 %358, i32* %359, align 4, !dbg !4518  ; [debug line = 175:3]
  %360 = getelementptr inbounds [17 x i32]* %Parameters, i32 0, i64 6, !dbg !4519 ; [#uses=1 type=i32*] [debug line = 176:3]
  %361 = load i32* %360, align 4, !dbg !4519      ; [#uses=1 type=i32] [debug line = 176:3]
  %362 = getelementptr inbounds [2 x i32]* %Window_Size, i32 0, i64 1, !dbg !4519 ; [#uses=1 type=i32*] [debug line = 176:3]
  store i32 %361, i32* %362, align 4, !dbg !4519  ; [debug line = 176:3]
  %363 = getelementptr inbounds [17 x i32]* %Parameters, i32 0, i64 7, !dbg !4520 ; [#uses=1 type=i32*] [debug line = 177:3]
  %364 = load i32* %363, align 4, !dbg !4520      ; [#uses=1 type=i32] [debug line = 177:3]
  %365 = getelementptr inbounds [2 x i32]* %Stride_Size, i32 0, i64 0, !dbg !4520 ; [#uses=1 type=i32*] [debug line = 177:3]
  store i32 %364, i32* %365, align 4, !dbg !4520  ; [debug line = 177:3]
  %366 = getelementptr inbounds [17 x i32]* %Parameters, i32 0, i64 8, !dbg !4521 ; [#uses=1 type=i32*] [debug line = 178:3]
  %367 = load i32* %366, align 4, !dbg !4521      ; [#uses=1 type=i32] [debug line = 178:3]
  %368 = getelementptr inbounds [2 x i32]* %Stride_Size, i32 0, i64 1, !dbg !4521 ; [#uses=1 type=i32*] [debug line = 178:3]
  store i32 %367, i32* %368, align 4, !dbg !4521  ; [debug line = 178:3]
  %369 = getelementptr inbounds [17 x i32]* %Parameters, i32 0, i64 9, !dbg !4522 ; [#uses=1 type=i32*] [debug line = 179:3]
  %370 = load i32* %369, align 4, !dbg !4522      ; [#uses=1 type=i32] [debug line = 179:3]
  store i32 %370, i32* %Pooling_Mode, align 4, !dbg !4522 ; [debug line = 179:3]
  %371 = getelementptr inbounds [17 x i32]* %Parameters, i32 0, i64 11, !dbg !4523 ; [#uses=1 type=i32*] [debug line = 180:3]
  %372 = load i32* %371, align 4, !dbg !4523      ; [#uses=1 type=i32] [debug line = 180:3]
  store i32 %372, i32* %Relu_Activation, align 4, !dbg !4523 ; [debug line = 180:3]
  %373 = getelementptr inbounds [17 x i32]* %Parameters, i32 0, i64 12, !dbg !4524 ; [#uses=1 type=i32*] [debug line = 181:3]
  %374 = load i32* %373, align 4, !dbg !4524      ; [#uses=1 type=i32] [debug line = 181:3]
  %375 = sitofp i32 %374 to float, !dbg !4524     ; [#uses=1 type=float] [debug line = 181:3]
  store float %375, float* %Precision, align 4, !dbg !4524 ; [debug line = 181:3]
  %376 = getelementptr inbounds [17 x i32]* %Parameters, i32 0, i64 13, !dbg !4525 ; [#uses=1 type=i32*] [debug line = 182:3]
  %377 = load i32* %376, align 4, !dbg !4525      ; [#uses=1 type=i32] [debug line = 182:3]
  store i32 %377, i32* %Load_Input, align 4, !dbg !4525 ; [debug line = 182:3]
  %378 = load i32* %Load_Input, align 4, !dbg !4526 ; [#uses=1 type=i32] [debug line = 186:3]
  %379 = icmp eq i32 %378, 1, !dbg !4526          ; [#uses=1 type=i1] [debug line = 186:3]
  br i1 %379, label %380, label %399, !dbg !4526  ; [debug line = 186:3]

; <label>:380                                     ; preds = %347
  call void @llvm.dbg.declare(metadata !{i32* %idx7}, metadata !4527), !dbg !4530 ; [debug line = 188:12] [debug variable = idx]
  store i32 0, i32* %idx7, align 4, !dbg !4531    ; [debug line = 188:17]
  br label %381, !dbg !4531                       ; [debug line = 188:17]

; <label>:381                                     ; preds = %395, %380
  %382 = load i32* %idx7, align 4, !dbg !4531     ; [#uses=1 type=i32] [debug line = 188:17]
  %383 = getelementptr inbounds [17 x i32]* %Parameters, i32 0, i64 1, !dbg !4531 ; [#uses=1 type=i32*] [debug line = 188:17]
  %384 = load i32* %383, align 4, !dbg !4531      ; [#uses=1 type=i32] [debug line = 188:17]
  %385 = icmp slt i32 %382, %384, !dbg !4531      ; [#uses=1 type=i1] [debug line = 188:17]
  br i1 %385, label %386, label %398, !dbg !4531  ; [debug line = 188:17]

; <label>:386                                     ; preds = %381
  %387 = load %struct.ap_axiu** %1, align 8, !dbg !4532 ; [#uses=1 type=%struct.ap_axiu*] [debug line = 190:15]
  %388 = load %struct.ap_axiu** %2, align 8, !dbg !4532 ; [#uses=1 type=%struct.ap_axiu*] [debug line = 190:15]
  %389 = call i32 @_Z12Axi_TransferP7ap_axiuILi32ELi1ELi1ELi1EES1_ii(%struct.ap_axiu* %387, %struct.ap_axiu* %388, i32 1, i32 0), !dbg !4532 ; [#uses=1 type=i32] [debug line = 190:15]
  %390 = sitofp i32 %389 to float, !dbg !4532     ; [#uses=1 type=float] [debug line = 190:15]
  store float %390, float* %Temproray, align 4, !dbg !4532 ; [debug line = 190:15]
  %391 = load float* %Temproray, align 4, !dbg !4534 ; [#uses=1 type=float] [debug line = 191:4]
  %392 = load i32* %idx7, align 4, !dbg !4534     ; [#uses=1 type=i32] [debug line = 191:4]
  %393 = sext i32 %392 to i64, !dbg !4534         ; [#uses=1 type=i64] [debug line = 191:4]
  %394 = getelementptr inbounds [30000 x float]* %Input, i32 0, i64 %393, !dbg !4534 ; [#uses=1 type=float*] [debug line = 191:4]
  store float %391, float* %394, align 4, !dbg !4534 ; [debug line = 191:4]
  br label %395, !dbg !4535                       ; [debug line = 192:3]

; <label>:395                                     ; preds = %386
  %396 = load i32* %idx7, align 4, !dbg !4536     ; [#uses=1 type=i32] [debug line = 188:37]
  %397 = add nsw i32 %396, 1, !dbg !4536          ; [#uses=1 type=i32] [debug line = 188:37]
  store i32 %397, i32* %idx7, align 4, !dbg !4536 ; [debug line = 188:37]
  br label %381, !dbg !4536                       ; [debug line = 188:37]

; <label>:398                                     ; preds = %381
  br label %399, !dbg !4537                       ; [debug line = 193:3]

; <label>:399                                     ; preds = %398, %347
  %400 = getelementptr inbounds [3 x i32]* %Input_Size, i32 0, i64 1, !dbg !4538 ; [#uses=1 type=i32*] [debug line = 195:3]
  %401 = load i32* %400, align 4, !dbg !4538      ; [#uses=1 type=i32] [debug line = 195:3]
  %402 = getelementptr inbounds [2 x i32]* %Stride_Size, i32 0, i64 0, !dbg !4538 ; [#uses=1 type=i32*] [debug line = 195:3]
  %403 = load i32* %402, align 4, !dbg !4538      ; [#uses=1 type=i32] [debug line = 195:3]
  %404 = sdiv i32 %401, %403, !dbg !4538          ; [#uses=1 type=i32] [debug line = 195:3]
  store i32 %404, i32* %H_Result, align 4, !dbg !4538 ; [debug line = 195:3]
  %405 = getelementptr inbounds [3 x i32]* %Input_Size, i32 0, i64 2, !dbg !4539 ; [#uses=1 type=i32*] [debug line = 196:3]
  %406 = load i32* %405, align 4, !dbg !4539      ; [#uses=1 type=i32] [debug line = 196:3]
  %407 = getelementptr inbounds [2 x i32]* %Stride_Size, i32 0, i64 1, !dbg !4539 ; [#uses=1 type=i32*] [debug line = 196:3]
  %408 = load i32* %407, align 4, !dbg !4539      ; [#uses=1 type=i32] [debug line = 196:3]
  %409 = sdiv i32 %406, %408, !dbg !4539          ; [#uses=1 type=i32] [debug line = 196:3]
  store i32 %409, i32* %W_Result, align 4, !dbg !4539 ; [debug line = 196:3]
  %410 = getelementptr inbounds [3 x i32]* %Input_Size, i32 0, i64 0, !dbg !4540 ; [#uses=1 type=i32*] [debug line = 199:6]
  %411 = load i32* %410, align 4, !dbg !4540      ; [#uses=1 type=i32] [debug line = 199:6]
  %412 = load i32* %W_Result, align 4, !dbg !4540 ; [#uses=1 type=i32] [debug line = 199:6]
  %413 = mul nsw i32 %411, %412, !dbg !4540       ; [#uses=1 type=i32] [debug line = 199:6]
  %414 = load i32* %H_Result, align 4, !dbg !4540 ; [#uses=1 type=i32] [debug line = 199:6]
  %415 = mul nsw i32 %413, %414, !dbg !4540       ; [#uses=1 type=i32] [debug line = 199:6]
  %416 = sitofp i32 %415 to float, !dbg !4540     ; [#uses=1 type=float] [debug line = 199:6]
  store float %416, float* %Temproray, align 4, !dbg !4540 ; [debug line = 199:6]
  %417 = load %struct.ap_axiu** %1, align 8, !dbg !4541 ; [#uses=1 type=%struct.ap_axiu*] [debug line = 200:6]
  %418 = load %struct.ap_axiu** %2, align 8, !dbg !4541 ; [#uses=1 type=%struct.ap_axiu*] [debug line = 200:6]
  %419 = load float* %Temproray, align 4, !dbg !4541 ; [#uses=1 type=float] [debug line = 200:6]
  %420 = fptosi float %419 to i32, !dbg !4541     ; [#uses=1 type=i32] [debug line = 200:6]
  %421 = call i32 @_Z12Axi_TransferP7ap_axiuILi32ELi1ELi1ELi1EES1_ii(%struct.ap_axiu* %417, %struct.ap_axiu* %418, i32 %420, i32 0), !dbg !4541 ; [#uses=0 type=i32] [debug line = 200:6]
  %422 = load %struct.ap_axiu** %1, align 8, !dbg !4542 ; [#uses=1 type=%struct.ap_axiu*] [debug line = 201:6]
  %423 = load %struct.ap_axiu** %2, align 8, !dbg !4542 ; [#uses=1 type=%struct.ap_axiu*] [debug line = 201:6]
  %424 = load i32* %H_Result, align 4, !dbg !4542 ; [#uses=1 type=i32] [debug line = 201:6]
  %425 = call i32 @_Z12Axi_TransferP7ap_axiuILi32ELi1ELi1ELi1EES1_ii(%struct.ap_axiu* %422, %struct.ap_axiu* %423, i32 %424, i32 0), !dbg !4542 ; [#uses=0 type=i32] [debug line = 201:6]
  %426 = load %struct.ap_axiu** %1, align 8, !dbg !4543 ; [#uses=1 type=%struct.ap_axiu*] [debug line = 202:6]
  %427 = load %struct.ap_axiu** %2, align 8, !dbg !4543 ; [#uses=1 type=%struct.ap_axiu*] [debug line = 202:6]
  %428 = load i32* %W_Result, align 4, !dbg !4543 ; [#uses=1 type=i32] [debug line = 202:6]
  %429 = call i32 @_Z12Axi_TransferP7ap_axiuILi32ELi1ELi1ELi1EES1_ii(%struct.ap_axiu* %426, %struct.ap_axiu* %427, i32 %428, i32 0), !dbg !4543 ; [#uses=0 type=i32] [debug line = 202:6]
  call void @llvm.dbg.declare(metadata !{i32* %idx8}, metadata !4544), !dbg !4546 ; [debug line = 205:15] [debug variable = idx]
  store i32 0, i32* %idx8, align 4, !dbg !4547    ; [debug line = 205:20]
  br label %430, !dbg !4547                       ; [debug line = 205:20]

; <label>:430                                     ; preds = %607, %399
  %431 = load i32* %idx8, align 4, !dbg !4547     ; [#uses=1 type=i32] [debug line = 205:20]
  %432 = getelementptr inbounds [3 x i32]* %Input_Size, i32 0, i64 0, !dbg !4547 ; [#uses=1 type=i32*] [debug line = 205:20]
  %433 = load i32* %432, align 4, !dbg !4547      ; [#uses=1 type=i32] [debug line = 205:20]
  %434 = icmp slt i32 %431, %433, !dbg !4547      ; [#uses=1 type=i1] [debug line = 205:20]
  br i1 %434, label %435, label %610, !dbg !4547  ; [debug line = 205:20]

; <label>:435                                     ; preds = %430
  call void @llvm.dbg.declare(metadata !{i32* %idx29}, metadata !4548), !dbg !4551 ; [debug line = 207:18] [debug variable = idx2]
  store i32 0, i32* %idx29, align 4, !dbg !4552   ; [debug line = 207:24]
  br label %436, !dbg !4552                       ; [debug line = 207:24]

; <label>:436                                     ; preds = %603, %435
  %437 = load i32* %idx29, align 4, !dbg !4552    ; [#uses=1 type=i32] [debug line = 207:24]
  %438 = load i32* %H_Result, align 4, !dbg !4552 ; [#uses=1 type=i32] [debug line = 207:24]
  %439 = icmp slt i32 %437, %438, !dbg !4552      ; [#uses=1 type=i1] [debug line = 207:24]
  br i1 %439, label %440, label %606, !dbg !4552  ; [debug line = 207:24]

; <label>:440                                     ; preds = %436
  call void @llvm.dbg.declare(metadata !{i32* %idx310}, metadata !4553), !dbg !4556 ; [debug line = 209:22] [debug variable = idx3]
  store i32 0, i32* %idx310, align 4, !dbg !4557  ; [debug line = 209:28]
  br label %441, !dbg !4557                       ; [debug line = 209:28]

; <label>:441                                     ; preds = %599, %440
  %442 = load i32* %idx310, align 4, !dbg !4557   ; [#uses=1 type=i32] [debug line = 209:28]
  %443 = load i32* %W_Result, align 4, !dbg !4557 ; [#uses=1 type=i32] [debug line = 209:28]
  %444 = icmp slt i32 %442, %443, !dbg !4557      ; [#uses=1 type=i1] [debug line = 209:28]
  br i1 %444, label %445, label %602, !dbg !4557  ; [debug line = 209:28]

; <label>:445                                     ; preds = %441
  call void (...)* @_ssdm_RegionBegin(i8* getelementptr inbounds ([12 x i8]* @.str5, i32 0, i32 0)) nounwind, !dbg !4558 ; [debug line = 210:19]
  store float 0.000000e+00, float* %Pool_Value, align 4, !dbg !4560 ; [debug line = 211:15]
  call void (...)* @_ssdm_op_SpecPipeline(i32 1, i32 1, i32 1, i32 0, i8* getelementptr inbounds ([1 x i8]* @.str1, i32 0, i32 0)) nounwind, !dbg !4561 ; [debug line = 212:1]
  call void @llvm.dbg.declare(metadata !{i32* %k11}, metadata !4562), !dbg !4564 ; [debug line = 213:10] [debug variable = k]
  store i32 0, i32* %k11, align 4, !dbg !4565     ; [debug line = 213:13]
  br label %446, !dbg !4565                       ; [debug line = 213:13]

; <label>:446                                     ; preds = %570, %445
  %447 = load i32* %k11, align 4, !dbg !4565      ; [#uses=1 type=i32] [debug line = 213:13]
  %448 = getelementptr inbounds [2 x i32]* %Window_Size, i32 0, i64 0, !dbg !4565 ; [#uses=1 type=i32*] [debug line = 213:13]
  %449 = load i32* %448, align 4, !dbg !4565      ; [#uses=1 type=i32] [debug line = 213:13]
  %450 = icmp slt i32 %447, %449, !dbg !4565      ; [#uses=1 type=i1] [debug line = 213:13]
  br i1 %450, label %451, label %573, !dbg !4565  ; [debug line = 213:13]

; <label>:451                                     ; preds = %446
  call void @llvm.dbg.declare(metadata !{i32* %i12}, metadata !4566), !dbg !4569 ; [debug line = 215:15] [debug variable = i]
  store i32 0, i32* %i12, align 4, !dbg !4570     ; [debug line = 215:18]
  br label %452, !dbg !4570                       ; [debug line = 215:18]

; <label>:452                                     ; preds = %566, %451
  %453 = load i32* %i12, align 4, !dbg !4570      ; [#uses=1 type=i32] [debug line = 215:18]
  %454 = getelementptr inbounds [2 x i32]* %Window_Size, i32 0, i64 1, !dbg !4570 ; [#uses=1 type=i32*] [debug line = 215:18]
  %455 = load i32* %454, align 4, !dbg !4570      ; [#uses=1 type=i32] [debug line = 215:18]
  %456 = icmp slt i32 %453, %455, !dbg !4570      ; [#uses=1 type=i1] [debug line = 215:18]
  br i1 %456, label %457, label %569, !dbg !4570  ; [debug line = 215:18]

; <label>:457                                     ; preds = %452
  %458 = load i32* %Pooling_Mode, align 4, !dbg !4571 ; [#uses=1 type=i32] [debug line = 218:8]
  %459 = icmp eq i32 %458, 0, !dbg !4571          ; [#uses=1 type=i1] [debug line = 218:8]
  br i1 %459, label %460, label %525, !dbg !4571  ; [debug line = 218:8]

; <label>:460                                     ; preds = %457
  %461 = load i32* %k11, align 4, !dbg !4573      ; [#uses=1 type=i32] [debug line = 220:8]
  %462 = icmp eq i32 %461, 0, !dbg !4573          ; [#uses=1 type=i1] [debug line = 220:8]
  br i1 %462, label %463, label %490, !dbg !4573  ; [debug line = 220:8]

; <label>:463                                     ; preds = %460
  %464 = load i32* %i12, align 4, !dbg !4573      ; [#uses=1 type=i32] [debug line = 220:8]
  %465 = icmp eq i32 %464, 0, !dbg !4573          ; [#uses=1 type=i1] [debug line = 220:8]
  br i1 %465, label %466, label %490, !dbg !4573  ; [debug line = 220:8]

; <label>:466                                     ; preds = %463
  %467 = load i32* %idx8, align 4, !dbg !4575     ; [#uses=1 type=i32] [debug line = 222:9]
  %468 = getelementptr inbounds [3 x i32]* %Input_Size, i32 0, i64 1, !dbg !4575 ; [#uses=1 type=i32*] [debug line = 222:9]
  %469 = load i32* %468, align 4, !dbg !4575      ; [#uses=1 type=i32] [debug line = 222:9]
  %470 = getelementptr inbounds [3 x i32]* %Input_Size, i32 0, i64 2, !dbg !4575 ; [#uses=1 type=i32*] [debug line = 222:9]
  %471 = load i32* %470, align 4, !dbg !4575      ; [#uses=1 type=i32] [debug line = 222:9]
  %472 = mul nsw i32 %469, %471, !dbg !4575       ; [#uses=1 type=i32] [debug line = 222:9]
  %473 = mul nsw i32 %467, %472, !dbg !4575       ; [#uses=1 type=i32] [debug line = 222:9]
  %474 = load i32* %idx29, align 4, !dbg !4575    ; [#uses=1 type=i32] [debug line = 222:9]
  %475 = getelementptr inbounds [2 x i32]* %Stride_Size, i32 0, i64 0, !dbg !4575 ; [#uses=1 type=i32*] [debug line = 222:9]
  %476 = load i32* %475, align 4, !dbg !4575      ; [#uses=1 type=i32] [debug line = 222:9]
  %477 = mul nsw i32 %474, %476, !dbg !4575       ; [#uses=1 type=i32] [debug line = 222:9]
  %478 = getelementptr inbounds [3 x i32]* %Input_Size, i32 0, i64 2, !dbg !4575 ; [#uses=1 type=i32*] [debug line = 222:9]
  %479 = load i32* %478, align 4, !dbg !4575      ; [#uses=1 type=i32] [debug line = 222:9]
  %480 = mul nsw i32 %477, %479, !dbg !4575       ; [#uses=1 type=i32] [debug line = 222:9]
  %481 = add nsw i32 %473, %480, !dbg !4575       ; [#uses=1 type=i32] [debug line = 222:9]
  %482 = load i32* %idx310, align 4, !dbg !4575   ; [#uses=1 type=i32] [debug line = 222:9]
  %483 = getelementptr inbounds [2 x i32]* %Stride_Size, i32 0, i64 1, !dbg !4575 ; [#uses=1 type=i32*] [debug line = 222:9]
  %484 = load i32* %483, align 4, !dbg !4575      ; [#uses=1 type=i32] [debug line = 222:9]
  %485 = mul nsw i32 %482, %484, !dbg !4575       ; [#uses=1 type=i32] [debug line = 222:9]
  %486 = add nsw i32 %481, %485, !dbg !4575       ; [#uses=1 type=i32] [debug line = 222:9]
  %487 = sext i32 %486 to i64, !dbg !4575         ; [#uses=1 type=i64] [debug line = 222:9]
  %488 = getelementptr inbounds [30000 x float]* %Input, i32 0, i64 %487, !dbg !4575 ; [#uses=1 type=float*] [debug line = 222:9]
  %489 = load float* %488, align 4, !dbg !4575    ; [#uses=1 type=float] [debug line = 222:9]
  store float %489, float* %Pool_Value, align 4, !dbg !4575 ; [debug line = 222:9]
  br label %524, !dbg !4577                       ; [debug line = 223:9]

; <label>:490                                     ; preds = %463, %460
  %491 = load i32* %idx8, align 4, !dbg !4578     ; [#uses=1 type=i32] [debug line = 227:10]
  %492 = getelementptr inbounds [3 x i32]* %Input_Size, i32 0, i64 1, !dbg !4578 ; [#uses=1 type=i32*] [debug line = 227:10]
  %493 = load i32* %492, align 4, !dbg !4578      ; [#uses=1 type=i32] [debug line = 227:10]
  %494 = getelementptr inbounds [3 x i32]* %Input_Size, i32 0, i64 2, !dbg !4578 ; [#uses=1 type=i32*] [debug line = 227:10]
  %495 = load i32* %494, align 4, !dbg !4578      ; [#uses=1 type=i32] [debug line = 227:10]
  %496 = mul nsw i32 %493, %495, !dbg !4578       ; [#uses=1 type=i32] [debug line = 227:10]
  %497 = mul nsw i32 %491, %496, !dbg !4578       ; [#uses=1 type=i32] [debug line = 227:10]
  %498 = load i32* %idx29, align 4, !dbg !4578    ; [#uses=1 type=i32] [debug line = 227:10]
  %499 = getelementptr inbounds [2 x i32]* %Stride_Size, i32 0, i64 0, !dbg !4578 ; [#uses=1 type=i32*] [debug line = 227:10]
  %500 = load i32* %499, align 4, !dbg !4578      ; [#uses=1 type=i32] [debug line = 227:10]
  %501 = mul nsw i32 %498, %500, !dbg !4578       ; [#uses=1 type=i32] [debug line = 227:10]
  %502 = load i32* %k11, align 4, !dbg !4578      ; [#uses=1 type=i32] [debug line = 227:10]
  %503 = add nsw i32 %501, %502, !dbg !4578       ; [#uses=1 type=i32] [debug line = 227:10]
  %504 = getelementptr inbounds [3 x i32]* %Input_Size, i32 0, i64 2, !dbg !4578 ; [#uses=1 type=i32*] [debug line = 227:10]
  %505 = load i32* %504, align 4, !dbg !4578      ; [#uses=1 type=i32] [debug line = 227:10]
  %506 = mul nsw i32 %503, %505, !dbg !4578       ; [#uses=1 type=i32] [debug line = 227:10]
  %507 = add nsw i32 %497, %506, !dbg !4578       ; [#uses=1 type=i32] [debug line = 227:10]
  %508 = load i32* %idx310, align 4, !dbg !4578   ; [#uses=1 type=i32] [debug line = 227:10]
  %509 = getelementptr inbounds [2 x i32]* %Stride_Size, i32 0, i64 1, !dbg !4578 ; [#uses=1 type=i32*] [debug line = 227:10]
  %510 = load i32* %509, align 4, !dbg !4578      ; [#uses=1 type=i32] [debug line = 227:10]
  %511 = mul nsw i32 %508, %510, !dbg !4578       ; [#uses=1 type=i32] [debug line = 227:10]
  %512 = add nsw i32 %507, %511, !dbg !4578       ; [#uses=1 type=i32] [debug line = 227:10]
  %513 = load i32* %i12, align 4, !dbg !4578      ; [#uses=1 type=i32] [debug line = 227:10]
  %514 = add nsw i32 %512, %513, !dbg !4578       ; [#uses=1 type=i32] [debug line = 227:10]
  %515 = sext i32 %514 to i64, !dbg !4578         ; [#uses=1 type=i64] [debug line = 227:10]
  %516 = getelementptr inbounds [30000 x float]* %Input, i32 0, i64 %515, !dbg !4578 ; [#uses=1 type=float*] [debug line = 227:10]
  %517 = load float* %516, align 4, !dbg !4578    ; [#uses=1 type=float] [debug line = 227:10]
  store float %517, float* %Temproray, align 4, !dbg !4578 ; [debug line = 227:10]
  %518 = load float* %Temproray, align 4, !dbg !4580 ; [#uses=1 type=float] [debug line = 228:10]
  %519 = load float* %Pool_Value, align 4, !dbg !4580 ; [#uses=1 type=float] [debug line = 228:10]
  %520 = fcmp ogt float %518, %519, !dbg !4580    ; [#uses=1 type=i1] [debug line = 228:10]
  br i1 %520, label %521, label %523, !dbg !4580  ; [debug line = 228:10]

; <label>:521                                     ; preds = %490
  %522 = load float* %Temproray, align 4, !dbg !4581 ; [#uses=1 type=float] [debug line = 228:36]
  store float %522, float* %Pool_Value, align 4, !dbg !4581 ; [debug line = 228:36]
  br label %523, !dbg !4581                       ; [debug line = 228:36]

; <label>:523                                     ; preds = %521, %490
  br label %524

; <label>:524                                     ; preds = %523, %466
  br label %525, !dbg !4582                       ; [debug line = 230:8]

; <label>:525                                     ; preds = %524, %457
  %526 = load i32* %Pooling_Mode, align 4, !dbg !4583 ; [#uses=1 type=i32] [debug line = 232:8]
  %527 = icmp eq i32 %526, 1, !dbg !4583          ; [#uses=1 type=i1] [debug line = 232:8]
  br i1 %527, label %528, label %565, !dbg !4583  ; [debug line = 232:8]

; <label>:528                                     ; preds = %525
  %529 = load i32* %k11, align 4, !dbg !4584      ; [#uses=1 type=i32] [debug line = 234:8]
  %530 = icmp eq i32 %529, 0, !dbg !4584          ; [#uses=1 type=i1] [debug line = 234:8]
  br i1 %530, label %531, label %564, !dbg !4584  ; [debug line = 234:8]

; <label>:531                                     ; preds = %528
  %532 = load i32* %i12, align 4, !dbg !4584      ; [#uses=1 type=i32] [debug line = 234:8]
  %533 = icmp eq i32 %532, 0, !dbg !4584          ; [#uses=1 type=i1] [debug line = 234:8]
  br i1 %533, label %534, label %564, !dbg !4584  ; [debug line = 234:8]

; <label>:534                                     ; preds = %531
  %535 = load float* %Pool_Value, align 4, !dbg !4586 ; [#uses=1 type=float] [debug line = 236:9]
  %536 = load i32* %idx8, align 4, !dbg !4586     ; [#uses=1 type=i32] [debug line = 236:9]
  %537 = getelementptr inbounds [3 x i32]* %Input_Size, i32 0, i64 1, !dbg !4586 ; [#uses=1 type=i32*] [debug line = 236:9]
  %538 = load i32* %537, align 4, !dbg !4586      ; [#uses=1 type=i32] [debug line = 236:9]
  %539 = getelementptr inbounds [3 x i32]* %Input_Size, i32 0, i64 2, !dbg !4586 ; [#uses=1 type=i32*] [debug line = 236:9]
  %540 = load i32* %539, align 4, !dbg !4586      ; [#uses=1 type=i32] [debug line = 236:9]
  %541 = mul nsw i32 %538, %540, !dbg !4586       ; [#uses=1 type=i32] [debug line = 236:9]
  %542 = mul nsw i32 %536, %541, !dbg !4586       ; [#uses=1 type=i32] [debug line = 236:9]
  %543 = load i32* %idx29, align 4, !dbg !4586    ; [#uses=1 type=i32] [debug line = 236:9]
  %544 = getelementptr inbounds [2 x i32]* %Stride_Size, i32 0, i64 0, !dbg !4586 ; [#uses=1 type=i32*] [debug line = 236:9]
  %545 = load i32* %544, align 4, !dbg !4586      ; [#uses=1 type=i32] [debug line = 236:9]
  %546 = mul nsw i32 %543, %545, !dbg !4586       ; [#uses=1 type=i32] [debug line = 236:9]
  %547 = load i32* %k11, align 4, !dbg !4586      ; [#uses=1 type=i32] [debug line = 236:9]
  %548 = add nsw i32 %546, %547, !dbg !4586       ; [#uses=1 type=i32] [debug line = 236:9]
  %549 = getelementptr inbounds [3 x i32]* %Input_Size, i32 0, i64 2, !dbg !4586 ; [#uses=1 type=i32*] [debug line = 236:9]
  %550 = load i32* %549, align 4, !dbg !4586      ; [#uses=1 type=i32] [debug line = 236:9]
  %551 = mul nsw i32 %548, %550, !dbg !4586       ; [#uses=1 type=i32] [debug line = 236:9]
  %552 = add nsw i32 %542, %551, !dbg !4586       ; [#uses=1 type=i32] [debug line = 236:9]
  %553 = load i32* %idx310, align 4, !dbg !4586   ; [#uses=1 type=i32] [debug line = 236:9]
  %554 = getelementptr inbounds [2 x i32]* %Stride_Size, i32 0, i64 1, !dbg !4586 ; [#uses=1 type=i32*] [debug line = 236:9]
  %555 = load i32* %554, align 4, !dbg !4586      ; [#uses=1 type=i32] [debug line = 236:9]
  %556 = mul nsw i32 %553, %555, !dbg !4586       ; [#uses=1 type=i32] [debug line = 236:9]
  %557 = add nsw i32 %552, %556, !dbg !4586       ; [#uses=1 type=i32] [debug line = 236:9]
  %558 = load i32* %i12, align 4, !dbg !4586      ; [#uses=1 type=i32] [debug line = 236:9]
  %559 = add nsw i32 %557, %558, !dbg !4586       ; [#uses=1 type=i32] [debug line = 236:9]
  %560 = sext i32 %559 to i64, !dbg !4586         ; [#uses=1 type=i64] [debug line = 236:9]
  %561 = getelementptr inbounds [30000 x float]* %Input, i32 0, i64 %560, !dbg !4586 ; [#uses=1 type=float*] [debug line = 236:9]
  %562 = load float* %561, align 4, !dbg !4586    ; [#uses=1 type=float] [debug line = 236:9]
  %563 = fadd float %535, %562, !dbg !4586        ; [#uses=1 type=float] [debug line = 236:9]
  store float %563, float* %Pool_Value, align 4, !dbg !4586 ; [debug line = 236:9]
  br label %564, !dbg !4588                       ; [debug line = 237:9]

; <label>:564                                     ; preds = %534, %531, %528
  br label %565, !dbg !4589                       ; [debug line = 238:8]

; <label>:565                                     ; preds = %564, %525
  br label %566, !dbg !4590                       ; [debug line = 239:15]

; <label>:566                                     ; preds = %565
  %567 = load i32* %i12, align 4, !dbg !4591      ; [#uses=1 type=i32] [debug line = 215:37]
  %568 = add nsw i32 %567, 1, !dbg !4591          ; [#uses=1 type=i32] [debug line = 215:37]
  store i32 %568, i32* %i12, align 4, !dbg !4591  ; [debug line = 215:37]
  br label %452, !dbg !4591                       ; [debug line = 215:37]

; <label>:569                                     ; preds = %452
  br label %570, !dbg !4592                       ; [debug line = 240:15]

; <label>:570                                     ; preds = %569
  %571 = load i32* %k11, align 4, !dbg !4593      ; [#uses=1 type=i32] [debug line = 213:32]
  %572 = add nsw i32 %571, 1, !dbg !4593          ; [#uses=1 type=i32] [debug line = 213:32]
  store i32 %572, i32* %k11, align 4, !dbg !4593  ; [debug line = 213:32]
  br label %446, !dbg !4593                       ; [debug line = 213:32]

; <label>:573                                     ; preds = %446
  %574 = load i32* %Pooling_Mode, align 4, !dbg !4594 ; [#uses=1 type=i32] [debug line = 241:6]
  %575 = icmp eq i32 %574, 1, !dbg !4594          ; [#uses=1 type=i1] [debug line = 241:6]
  br i1 %575, label %576, label %585, !dbg !4594  ; [debug line = 241:6]

; <label>:576                                     ; preds = %573
  %577 = load float* %Pool_Value, align 4, !dbg !4595 ; [#uses=1 type=float] [debug line = 243:7]
  %578 = getelementptr inbounds [2 x i32]* %Window_Size, i32 0, i64 0, !dbg !4595 ; [#uses=1 type=i32*] [debug line = 243:7]
  %579 = load i32* %578, align 4, !dbg !4595      ; [#uses=1 type=i32] [debug line = 243:7]
  %580 = getelementptr inbounds [2 x i32]* %Window_Size, i32 0, i64 0, !dbg !4595 ; [#uses=1 type=i32*] [debug line = 243:7]
  %581 = load i32* %580, align 4, !dbg !4595      ; [#uses=1 type=i32] [debug line = 243:7]
  %582 = mul nsw i32 %579, %581, !dbg !4595       ; [#uses=1 type=i32] [debug line = 243:7]
  %583 = sitofp i32 %582 to float, !dbg !4595     ; [#uses=1 type=float] [debug line = 243:7]
  %584 = fdiv float %577, %583, !dbg !4595        ; [#uses=1 type=float] [debug line = 243:7]
  store float %584, float* %Pool_Value, align 4, !dbg !4595 ; [debug line = 243:7]
  br label %585, !dbg !4597                       ; [debug line = 244:6]

; <label>:585                                     ; preds = %576, %573
  %586 = load i32* %Relu_Activation, align 4, !dbg !4598 ; [#uses=1 type=i32] [debug line = 245:15]
  %587 = icmp eq i32 %586, 1, !dbg !4598          ; [#uses=1 type=i1] [debug line = 245:15]
  br i1 %587, label %588, label %593, !dbg !4598  ; [debug line = 245:15]

; <label>:588                                     ; preds = %585
  %589 = load float* %Pool_Value, align 4, !dbg !4599 ; [#uses=1 type=float] [debug line = 247:16]
  %590 = fcmp olt float %589, 0.000000e+00, !dbg !4599 ; [#uses=1 type=i1] [debug line = 247:16]
  br i1 %590, label %591, label %592, !dbg !4599  ; [debug line = 247:16]

; <label>:591                                     ; preds = %588
  store float 0.000000e+00, float* %Pool_Value, align 4, !dbg !4601 ; [debug line = 247:36]
  br label %592, !dbg !4601                       ; [debug line = 247:36]

; <label>:592                                     ; preds = %591, %588
  br label %593, !dbg !4602                       ; [debug line = 248:15]

; <label>:593                                     ; preds = %592, %585
  %594 = load %struct.ap_axiu** %1, align 8, !dbg !4603 ; [#uses=1 type=%struct.ap_axiu*] [debug line = 249:15]
  %595 = load %struct.ap_axiu** %2, align 8, !dbg !4603 ; [#uses=1 type=%struct.ap_axiu*] [debug line = 249:15]
  %596 = load float* %Pool_Value, align 4, !dbg !4603 ; [#uses=1 type=float] [debug line = 249:15]
  %597 = fptosi float %596 to i32, !dbg !4603     ; [#uses=1 type=i32] [debug line = 249:15]
  %598 = call i32 @_Z12Axi_TransferP7ap_axiuILi32ELi1ELi1ELi1EES1_ii(%struct.ap_axiu* %594, %struct.ap_axiu* %595, i32 %597, i32 0), !dbg !4603 ; [#uses=0 type=i32] [debug line = 249:15]
  call void (...)* @_ssdm_RegionEnd(i8* getelementptr inbounds ([12 x i8]* @.str5, i32 0, i32 0)) nounwind, !dbg !4604 ; [debug line = 250:18]
  br label %599, !dbg !4604                       ; [debug line = 250:18]

; <label>:599                                     ; preds = %593
  %600 = load i32* %idx310, align 4, !dbg !4605   ; [#uses=1 type=i32] [debug line = 209:44]
  %601 = add nsw i32 %600, 1, !dbg !4605          ; [#uses=1 type=i32] [debug line = 209:44]
  store i32 %601, i32* %idx310, align 4, !dbg !4605 ; [debug line = 209:44]
  br label %441, !dbg !4605                       ; [debug line = 209:44]

; <label>:602                                     ; preds = %441
  br label %603, !dbg !4606                       ; [debug line = 251:14]

; <label>:603                                     ; preds = %602
  %604 = load i32* %idx29, align 4, !dbg !4607    ; [#uses=1 type=i32] [debug line = 207:40]
  %605 = add nsw i32 %604, 1, !dbg !4607          ; [#uses=1 type=i32] [debug line = 207:40]
  store i32 %605, i32* %idx29, align 4, !dbg !4607 ; [debug line = 207:40]
  br label %436, !dbg !4607                       ; [debug line = 207:40]

; <label>:606                                     ; preds = %436
  br label %607, !dbg !4608                       ; [debug line = 252:10]

; <label>:607                                     ; preds = %606
  %608 = load i32* %idx8, align 4, !dbg !4609     ; [#uses=1 type=i32] [debug line = 205:40]
  %609 = add nsw i32 %608, 1, !dbg !4609          ; [#uses=1 type=i32] [debug line = 205:40]
  store i32 %609, i32* %idx8, align 4, !dbg !4609 ; [debug line = 205:40]
  br label %430, !dbg !4609                       ; [debug line = 205:40]

; <label>:610                                     ; preds = %430
  br label %611, !dbg !4610                       ; [debug line = 254:4]

; <label>:611                                     ; preds = %610, %343
  %612 = getelementptr inbounds [17 x i32]* %Parameters, i32 0, i64 0, !dbg !4611 ; [#uses=1 type=i32*] [debug line = 258:2]
  %613 = load i32* %612, align 4, !dbg !4611      ; [#uses=1 type=i32] [debug line = 258:2]
  %614 = icmp eq i32 %613, 2, !dbg !4611          ; [#uses=1 type=i1] [debug line = 258:2]
  br i1 %614, label %615, label %758, !dbg !4611  ; [debug line = 258:2]

; <label>:615                                     ; preds = %611
  %616 = getelementptr inbounds [17 x i32]* %Parameters, i32 0, i64 1, !dbg !4612 ; [#uses=1 type=i32*] [debug line = 263:4]
  %617 = load i32* %616, align 4, !dbg !4612      ; [#uses=1 type=i32] [debug line = 263:4]
  %618 = getelementptr inbounds [3 x i32]* %Input_Size, i32 0, i64 0, !dbg !4612 ; [#uses=1 type=i32*] [debug line = 263:4]
  store i32 %617, i32* %618, align 4, !dbg !4612  ; [debug line = 263:4]
  %619 = getelementptr inbounds [17 x i32]* %Parameters, i32 0, i64 3, !dbg !4614 ; [#uses=1 type=i32*] [debug line = 264:4]
  %620 = load i32* %619, align 4, !dbg !4614      ; [#uses=1 type=i32] [debug line = 264:4]
  store i32 %620, i32* %Relu_Activation, align 4, !dbg !4614 ; [debug line = 264:4]
  %621 = getelementptr inbounds [17 x i32]* %Parameters, i32 0, i64 4, !dbg !4615 ; [#uses=1 type=i32*] [debug line = 265:4]
  %622 = load i32* %621, align 4, !dbg !4615      ; [#uses=1 type=i32] [debug line = 265:4]
  %623 = sitofp i32 %622 to float, !dbg !4615     ; [#uses=1 type=float] [debug line = 265:4]
  store float %623, float* %Precision, align 4, !dbg !4615 ; [debug line = 265:4]
  %624 = getelementptr inbounds [17 x i32]* %Parameters, i32 0, i64 5, !dbg !4616 ; [#uses=1 type=i32*] [debug line = 266:4]
  %625 = load i32* %624, align 4, !dbg !4616      ; [#uses=1 type=i32] [debug line = 266:4]
  store i32 %625, i32* %Load_Input, align 4, !dbg !4616 ; [debug line = 266:4]
  %626 = getelementptr inbounds [17 x i32]* %Parameters, i32 0, i64 6, !dbg !4617 ; [#uses=1 type=i32*] [debug line = 267:4]
  %627 = load i32* %626, align 4, !dbg !4617      ; [#uses=1 type=i32] [debug line = 267:4]
  store i32 %627, i32* %Bias_Activation, align 4, !dbg !4617 ; [debug line = 267:4]
  %628 = load i32* %Load_Input, align 4, !dbg !4618 ; [#uses=1 type=i32] [debug line = 270:4]
  %629 = icmp eq i32 %628, 1, !dbg !4618          ; [#uses=1 type=i1] [debug line = 270:4]
  br i1 %629, label %630, label %653, !dbg !4618  ; [debug line = 270:4]

; <label>:630                                     ; preds = %615
  call void @llvm.dbg.declare(metadata !{i32* %idx13}, metadata !4619), !dbg !4622 ; [debug line = 272:13] [debug variable = idx]
  store i32 0, i32* %idx13, align 4, !dbg !4623   ; [debug line = 272:18]
  br label %631, !dbg !4623                       ; [debug line = 272:18]

; <label>:631                                     ; preds = %649, %630
  %632 = load i32* %idx13, align 4, !dbg !4623    ; [#uses=1 type=i32] [debug line = 272:18]
  %633 = getelementptr inbounds [3 x i32]* %Input_Size, i32 0, i64 0, !dbg !4623 ; [#uses=1 type=i32*] [debug line = 272:18]
  %634 = load i32* %633, align 4, !dbg !4623      ; [#uses=1 type=i32] [debug line = 272:18]
  %635 = icmp slt i32 %632, %634, !dbg !4623      ; [#uses=1 type=i1] [debug line = 272:18]
  br i1 %635, label %636, label %652, !dbg !4623  ; [debug line = 272:18]

; <label>:636                                     ; preds = %631
  %637 = load %struct.ap_axiu** %1, align 8, !dbg !4624 ; [#uses=1 type=%struct.ap_axiu*] [debug line = 274:16]
  %638 = load %struct.ap_axiu** %2, align 8, !dbg !4624 ; [#uses=1 type=%struct.ap_axiu*] [debug line = 274:16]
  %639 = getelementptr inbounds [3 x i32]* %Input_Size, i32 0, i64 0, !dbg !4624 ; [#uses=1 type=i32*] [debug line = 274:16]
  %640 = load i32* %639, align 4, !dbg !4624      ; [#uses=1 type=i32] [debug line = 274:16]
  %641 = call i32 @_Z12Axi_TransferP7ap_axiuILi32ELi1ELi1ELi1EES1_ii(%struct.ap_axiu* %637, %struct.ap_axiu* %638, i32 %640, i32 0), !dbg !4624 ; [#uses=1 type=i32] [debug line = 274:16]
  %642 = sitofp i32 %641 to float, !dbg !4624     ; [#uses=1 type=float] [debug line = 274:16]
  store float %642, float* %Temproray, align 4, !dbg !4624 ; [debug line = 274:16]
  %643 = load float* %Temproray, align 4, !dbg !4626 ; [#uses=1 type=float] [debug line = 275:5]
  %644 = load float* %Precision, align 4, !dbg !4626 ; [#uses=1 type=float] [debug line = 275:5]
  %645 = fdiv float %643, %644, !dbg !4626        ; [#uses=1 type=float] [debug line = 275:5]
  %646 = load i32* %idx13, align 4, !dbg !4626    ; [#uses=1 type=i32] [debug line = 275:5]
  %647 = sext i32 %646 to i64, !dbg !4626         ; [#uses=1 type=i64] [debug line = 275:5]
  %648 = getelementptr inbounds [30000 x float]* %Input, i32 0, i64 %647, !dbg !4626 ; [#uses=1 type=float*] [debug line = 275:5]
  store float %645, float* %648, align 4, !dbg !4626 ; [debug line = 275:5]
  br label %649, !dbg !4627                       ; [debug line = 276:4]

; <label>:649                                     ; preds = %636
  %650 = load i32* %idx13, align 4, !dbg !4628    ; [#uses=1 type=i32] [debug line = 272:38]
  %651 = add nsw i32 %650, 1, !dbg !4628          ; [#uses=1 type=i32] [debug line = 272:38]
  store i32 %651, i32* %idx13, align 4, !dbg !4628 ; [debug line = 272:38]
  br label %631, !dbg !4628                       ; [debug line = 272:38]

; <label>:652                                     ; preds = %631
  br label %653, !dbg !4629                       ; [debug line = 277:4]

; <label>:653                                     ; preds = %652, %615
  %654 = load i32* %Bias_Activation, align 4, !dbg !4630 ; [#uses=1 type=i32] [debug line = 280:4]
  %655 = icmp eq i32 %654, 1, !dbg !4630          ; [#uses=1 type=i1] [debug line = 280:4]
  br i1 %655, label %656, label %679, !dbg !4630  ; [debug line = 280:4]

; <label>:656                                     ; preds = %653
  call void @llvm.dbg.declare(metadata !{i32* %idx14}, metadata !4631), !dbg !4634 ; [debug line = 282:14] [debug variable = idx]
  store i32 0, i32* %idx14, align 4, !dbg !4635   ; [debug line = 282:19]
  br label %657, !dbg !4635                       ; [debug line = 282:19]

; <label>:657                                     ; preds = %675, %656
  %658 = load i32* %idx14, align 4, !dbg !4635    ; [#uses=1 type=i32] [debug line = 282:19]
  %659 = getelementptr inbounds [17 x i32]* %Parameters, i32 0, i64 2, !dbg !4635 ; [#uses=1 type=i32*] [debug line = 282:19]
  %660 = load i32* %659, align 4, !dbg !4635      ; [#uses=1 type=i32] [debug line = 282:19]
  %661 = icmp slt i32 %658, %660, !dbg !4635      ; [#uses=1 type=i1] [debug line = 282:19]
  br i1 %661, label %662, label %678, !dbg !4635  ; [debug line = 282:19]

; <label>:662                                     ; preds = %657
  store float 2.000000e+00, float* %Transfer_value, align 4, !dbg !4636 ; [debug line = 284:6]
  %663 = load %struct.ap_axiu** %1, align 8, !dbg !4638 ; [#uses=1 type=%struct.ap_axiu*] [debug line = 285:17]
  %664 = load %struct.ap_axiu** %2, align 8, !dbg !4638 ; [#uses=1 type=%struct.ap_axiu*] [debug line = 285:17]
  %665 = load float* %Transfer_value, align 4, !dbg !4638 ; [#uses=1 type=float] [debug line = 285:17]
  %666 = fptosi float %665 to i32, !dbg !4638     ; [#uses=1 type=i32] [debug line = 285:17]
  %667 = call i32 @_Z12Axi_TransferP7ap_axiuILi32ELi1ELi1ELi1EES1_ii(%struct.ap_axiu* %663, %struct.ap_axiu* %664, i32 %666, i32 1), !dbg !4638 ; [#uses=1 type=i32] [debug line = 285:17]
  %668 = sitofp i32 %667 to float, !dbg !4638     ; [#uses=1 type=float] [debug line = 285:17]
  store float %668, float* %Temproray, align 4, !dbg !4638 ; [debug line = 285:17]
  %669 = load float* %Temproray, align 4, !dbg !4639 ; [#uses=1 type=float] [debug line = 286:6]
  %670 = load float* %Precision, align 4, !dbg !4639 ; [#uses=1 type=float] [debug line = 286:6]
  %671 = fdiv float %669, %670, !dbg !4639        ; [#uses=1 type=float] [debug line = 286:6]
  %672 = load i32* %idx14, align 4, !dbg !4639    ; [#uses=1 type=i32] [debug line = 286:6]
  %673 = sext i32 %672 to i64, !dbg !4639         ; [#uses=1 type=i64] [debug line = 286:6]
  %674 = getelementptr inbounds [2000 x float]* %Bias, i32 0, i64 %673, !dbg !4639 ; [#uses=1 type=float*] [debug line = 286:6]
  store float %671, float* %674, align 4, !dbg !4639 ; [debug line = 286:6]
  br label %675, !dbg !4640                       ; [debug line = 287:5]

; <label>:675                                     ; preds = %662
  %676 = load i32* %idx14, align 4, !dbg !4641    ; [#uses=1 type=i32] [debug line = 282:39]
  %677 = add nsw i32 %676, 1, !dbg !4641          ; [#uses=1 type=i32] [debug line = 282:39]
  store i32 %677, i32* %idx14, align 4, !dbg !4641 ; [debug line = 282:39]
  br label %657, !dbg !4641                       ; [debug line = 282:39]

; <label>:678                                     ; preds = %657
  br label %679, !dbg !4642                       ; [debug line = 288:4]

; <label>:679                                     ; preds = %678, %653
  call void @llvm.dbg.declare(metadata !{i32* %idx15}, metadata !4643), !dbg !4645 ; [debug line = 290:16] [debug variable = idx]
  store i32 0, i32* %idx15, align 4, !dbg !4646   ; [debug line = 290:21]
  br label %680, !dbg !4646                       ; [debug line = 290:21]

; <label>:680                                     ; preds = %736, %679
  %681 = load i32* %idx15, align 4, !dbg !4646    ; [#uses=1 type=i32] [debug line = 290:21]
  %682 = getelementptr inbounds [17 x i32]* %Parameters, i32 0, i64 2, !dbg !4646 ; [#uses=1 type=i32*] [debug line = 290:21]
  %683 = load i32* %682, align 4, !dbg !4646      ; [#uses=1 type=i32] [debug line = 290:21]
  %684 = icmp slt i32 %681, %683, !dbg !4646      ; [#uses=1 type=i1] [debug line = 290:21]
  br i1 %684, label %685, label %739, !dbg !4646  ; [debug line = 290:21]

; <label>:685                                     ; preds = %680
  store float 0.000000e+00, float* %Transfer_value, align 4, !dbg !4647 ; [debug line = 292:8]
  call void @llvm.dbg.declare(metadata !{i32* %idx216}, metadata !4649), !dbg !4651 ; [debug line = 293:19] [debug variable = idx2]
  store i32 0, i32* %idx216, align 4, !dbg !4652  ; [debug line = 293:25]
  br label %686, !dbg !4652                       ; [debug line = 293:25]

; <label>:686                                     ; preds = %707, %685
  %687 = load i32* %idx216, align 4, !dbg !4652   ; [#uses=1 type=i32] [debug line = 293:25]
  %688 = getelementptr inbounds [3 x i32]* %Input_Size, i32 0, i64 0, !dbg !4652 ; [#uses=1 type=i32*] [debug line = 293:25]
  %689 = load i32* %688, align 4, !dbg !4652      ; [#uses=1 type=i32] [debug line = 293:25]
  %690 = icmp slt i32 %687, %689, !dbg !4652      ; [#uses=1 type=i1] [debug line = 293:25]
  br i1 %690, label %691, label %710, !dbg !4652  ; [debug line = 293:25]

; <label>:691                                     ; preds = %686
  %692 = load %struct.ap_axiu** %1, align 8, !dbg !4653 ; [#uses=1 type=%struct.ap_axiu*] [debug line = 295:24]
  %693 = load %struct.ap_axiu** %2, align 8, !dbg !4653 ; [#uses=1 type=%struct.ap_axiu*] [debug line = 295:24]
  %694 = call i32 @_Z12Axi_TransferP7ap_axiuILi32ELi1ELi1ELi1EES1_ii(%struct.ap_axiu* %692, %struct.ap_axiu* %693, i32 4, i32 0), !dbg !4653 ; [#uses=1 type=i32] [debug line = 295:24]
  %695 = sitofp i32 %694 to float, !dbg !4653     ; [#uses=1 type=float] [debug line = 295:24]
  store float %695, float* %Temproray, align 4, !dbg !4653 ; [debug line = 295:24]
  %696 = load float* %Temproray, align 4, !dbg !4655 ; [#uses=1 type=float] [debug line = 296:13]
  %697 = load float* %Precision, align 4, !dbg !4655 ; [#uses=1 type=float] [debug line = 296:13]
  %698 = fdiv float %696, %697, !dbg !4655        ; [#uses=1 type=float] [debug line = 296:13]
  store float %698, float* %Temproray, align 4, !dbg !4655 ; [debug line = 296:13]
  %699 = load float* %Transfer_value, align 4, !dbg !4656 ; [#uses=1 type=float] [debug line = 297:13]
  %700 = load i32* %idx216, align 4, !dbg !4656   ; [#uses=1 type=i32] [debug line = 297:13]
  %701 = sext i32 %700 to i64, !dbg !4656         ; [#uses=1 type=i64] [debug line = 297:13]
  %702 = getelementptr inbounds [30000 x float]* %Input, i32 0, i64 %701, !dbg !4656 ; [#uses=1 type=float*] [debug line = 297:13]
  %703 = load float* %702, align 4, !dbg !4656    ; [#uses=1 type=float] [debug line = 297:13]
  %704 = load float* %Temproray, align 4, !dbg !4656 ; [#uses=1 type=float] [debug line = 297:13]
  %705 = fmul float %703, %704, !dbg !4656        ; [#uses=1 type=float] [debug line = 297:13]
  %706 = fadd float %699, %705, !dbg !4656        ; [#uses=1 type=float] [debug line = 297:13]
  store float %706, float* %Transfer_value, align 4, !dbg !4656 ; [debug line = 297:13]
  br label %707, !dbg !4657                       ; [debug line = 298:15]

; <label>:707                                     ; preds = %691
  %708 = load i32* %idx216, align 4, !dbg !4658   ; [#uses=1 type=i32] [debug line = 293:46]
  %709 = add nsw i32 %708, 1, !dbg !4658          ; [#uses=1 type=i32] [debug line = 293:46]
  store i32 %709, i32* %idx216, align 4, !dbg !4658 ; [debug line = 293:46]
  br label %686, !dbg !4658                       ; [debug line = 293:46]

; <label>:710                                     ; preds = %686
  %711 = load i32* %Relu_Activation, align 4, !dbg !4659 ; [#uses=1 type=i32] [debug line = 299:5]
  %712 = icmp eq i32 %711, 1, !dbg !4659          ; [#uses=1 type=i1] [debug line = 299:5]
  br i1 %712, label %713, label %718, !dbg !4659  ; [debug line = 299:5]

; <label>:713                                     ; preds = %710
  %714 = load float* %Transfer_value, align 4, !dbg !4660 ; [#uses=1 type=float] [debug line = 301:6]
  %715 = fcmp olt float %714, 0.000000e+00, !dbg !4660 ; [#uses=1 type=i1] [debug line = 301:6]
  br i1 %715, label %716, label %717, !dbg !4660  ; [debug line = 301:6]

; <label>:716                                     ; preds = %713
  store float 0.000000e+00, float* %Transfer_value, align 4, !dbg !4662 ; [debug line = 301:30]
  br label %717, !dbg !4662                       ; [debug line = 301:30]

; <label>:717                                     ; preds = %716, %713
  br label %718, !dbg !4663                       ; [debug line = 302:5]

; <label>:718                                     ; preds = %717, %710
  %719 = load i32* %Bias_Activation, align 4, !dbg !4664 ; [#uses=1 type=i32] [debug line = 303:5]
  %720 = icmp eq i32 %719, 1, !dbg !4664          ; [#uses=1 type=i1] [debug line = 303:5]
  br i1 %720, label %721, label %728, !dbg !4664  ; [debug line = 303:5]

; <label>:721                                     ; preds = %718
  %722 = load float* %Transfer_value, align 4, !dbg !4665 ; [#uses=1 type=float] [debug line = 305:6]
  %723 = load i32* %idx15, align 4, !dbg !4665    ; [#uses=1 type=i32] [debug line = 305:6]
  %724 = sext i32 %723 to i64, !dbg !4665         ; [#uses=1 type=i64] [debug line = 305:6]
  %725 = getelementptr inbounds [2000 x float]* %Bias, i32 0, i64 %724, !dbg !4665 ; [#uses=1 type=float*] [debug line = 305:6]
  %726 = load float* %725, align 4, !dbg !4665    ; [#uses=1 type=float] [debug line = 305:6]
  %727 = fadd float %722, %726, !dbg !4665        ; [#uses=1 type=float] [debug line = 305:6]
  store float %727, float* %Transfer_value, align 4, !dbg !4665 ; [debug line = 305:6]
  br label %728, !dbg !4667                       ; [debug line = 306:5]

; <label>:728                                     ; preds = %721, %718
  %729 = load float* %Transfer_value, align 4, !dbg !4668 ; [#uses=1 type=float] [debug line = 307:5]
  %730 = load float* %Precision, align 4, !dbg !4668 ; [#uses=1 type=float] [debug line = 307:5]
  %731 = fmul float %729, %730, !dbg !4668        ; [#uses=1 type=float] [debug line = 307:5]
  store float %731, float* %Transfer_value, align 4, !dbg !4668 ; [debug line = 307:5]
  %732 = load float* %Transfer_value, align 4, !dbg !4669 ; [#uses=1 type=float] [debug line = 308:5]
  %733 = load i32* %idx15, align 4, !dbg !4669    ; [#uses=1 type=i32] [debug line = 308:5]
  %734 = sext i32 %733 to i64, !dbg !4669         ; [#uses=1 type=i64] [debug line = 308:5]
  %735 = getelementptr inbounds [30000 x float]* %Weight, i32 0, i64 %734, !dbg !4669 ; [#uses=1 type=float*] [debug line = 308:5]
  store float %732, float* %735, align 4, !dbg !4669 ; [debug line = 308:5]
  br label %736, !dbg !4670                       ; [debug line = 309:5]

; <label>:736                                     ; preds = %728
  %737 = load i32* %idx15, align 4, !dbg !4671    ; [#uses=1 type=i32] [debug line = 290:41]
  %738 = add nsw i32 %737, 1, !dbg !4671          ; [#uses=1 type=i32] [debug line = 290:41]
  store i32 %738, i32* %idx15, align 4, !dbg !4671 ; [debug line = 290:41]
  br label %680, !dbg !4671                       ; [debug line = 290:41]

; <label>:739                                     ; preds = %680
  call void @llvm.dbg.declare(metadata !{i32* %idx17}, metadata !4672), !dbg !4674 ; [debug line = 310:15] [debug variable = idx]
  store i32 0, i32* %idx17, align 4, !dbg !4675   ; [debug line = 310:20]
  br label %740, !dbg !4675                       ; [debug line = 310:20]

; <label>:740                                     ; preds = %754, %739
  %741 = load i32* %idx17, align 4, !dbg !4675    ; [#uses=1 type=i32] [debug line = 310:20]
  %742 = getelementptr inbounds [17 x i32]* %Parameters, i32 0, i64 2, !dbg !4675 ; [#uses=1 type=i32*] [debug line = 310:20]
  %743 = load i32* %742, align 4, !dbg !4675      ; [#uses=1 type=i32] [debug line = 310:20]
  %744 = icmp slt i32 %741, %743, !dbg !4675      ; [#uses=1 type=i1] [debug line = 310:20]
  br i1 %744, label %745, label %757, !dbg !4675  ; [debug line = 310:20]

; <label>:745                                     ; preds = %740
  %746 = load %struct.ap_axiu** %1, align 8, !dbg !4676 ; [#uses=1 type=%struct.ap_axiu*] [debug line = 312:8]
  %747 = load %struct.ap_axiu** %2, align 8, !dbg !4676 ; [#uses=1 type=%struct.ap_axiu*] [debug line = 312:8]
  %748 = load i32* %idx17, align 4, !dbg !4676    ; [#uses=1 type=i32] [debug line = 312:8]
  %749 = sext i32 %748 to i64, !dbg !4676         ; [#uses=1 type=i64] [debug line = 312:8]
  %750 = getelementptr inbounds [30000 x float]* %Weight, i32 0, i64 %749, !dbg !4676 ; [#uses=1 type=float*] [debug line = 312:8]
  %751 = load float* %750, align 4, !dbg !4676    ; [#uses=1 type=float] [debug line = 312:8]
  %752 = fptosi float %751 to i32, !dbg !4676     ; [#uses=1 type=i32] [debug line = 312:8]
  %753 = call i32 @_Z12Axi_TransferP7ap_axiuILi32ELi1ELi1ELi1EES1_ii(%struct.ap_axiu* %746, %struct.ap_axiu* %747, i32 %752, i32 0), !dbg !4676 ; [#uses=0 type=i32] [debug line = 312:8]
  br label %754, !dbg !4678                       ; [debug line = 313:7]

; <label>:754                                     ; preds = %745
  %755 = load i32* %idx17, align 4, !dbg !4679    ; [#uses=1 type=i32] [debug line = 310:40]
  %756 = add nsw i32 %755, 1, !dbg !4679          ; [#uses=1 type=i32] [debug line = 310:40]
  store i32 %756, i32* %idx17, align 4, !dbg !4679 ; [debug line = 310:40]
  br label %740, !dbg !4679                       ; [debug line = 310:40]

; <label>:757                                     ; preds = %740
  br label %758, !dbg !4680                       ; [debug line = 314:10]

; <label>:758                                     ; preds = %757, %611
  br label %5, !dbg !4681                         ; [debug line = 317:3]
                                                  ; No predecessors!
  ret void, !dbg !4682                            ; [debug line = 319:1]
}

; [#uses=3]
declare void @_ssdm_op_SpecInterface(...) nounwind

; [#uses=2]
declare void @_ssdm_RegionBegin(...) nounwind

; [#uses=2]
declare void @_ssdm_op_SpecPipeline(...) nounwind

; [#uses=2]
declare void @_ssdm_RegionEnd(...) nounwind

; [#uses=1]
define internal void @_ZN7ap_uintILi32EEC2Ei(%struct.ap_uint* %this, i32 %val) unnamed_addr nounwind uwtable inlinehint alwaysinline align 2 {
  %1 = alloca %struct.ap_uint*, align 8           ; [#uses=2 type=%struct.ap_uint**]
  %2 = alloca i32, align 4                        ; [#uses=2 type=i32*]
  store %struct.ap_uint* %this, %struct.ap_uint** %1, align 8
  call void @llvm.dbg.declare(metadata !{%struct.ap_uint** %1}, metadata !4683), !dbg !4684 ; [debug line = 253:41] [debug variable = this]
  store i32 %val, i32* %2, align 4
  call void @llvm.dbg.declare(metadata !{i32* %2}, metadata !4685), !dbg !4686 ; [debug line = 253:53] [debug variable = val]
  %3 = load %struct.ap_uint** %1                  ; [#uses=2 type=%struct.ap_uint*]
  %4 = bitcast %struct.ap_uint* %3 to %struct.ap_int_base*, !dbg !4687 ; [#uses=1 type=%struct.ap_int_base*] [debug line = 253:58]
  call void @_ZN11ap_int_baseILi32ELb0ELb1EEC2Ev(%struct.ap_int_base* %4), !dbg !4687 ; [debug line = 253:58]
  %5 = load i32* %2, align 4, !dbg !4688          ; [#uses=1 type=i32] [debug line = 253:60]
  %6 = bitcast %struct.ap_uint* %3 to %struct.ap_int_base*, !dbg !4688 ; [#uses=1 type=%struct.ap_int_base*] [debug line = 253:60]
  %7 = bitcast %struct.ap_int_base* %6 to %struct.ssdm_int*, !dbg !4688 ; [#uses=1 type=%struct.ssdm_int*] [debug line = 253:60]
  %8 = getelementptr inbounds %struct.ssdm_int* %7, i32 0, i32 0, !dbg !4688 ; [#uses=1 type=i32*] [debug line = 253:60]
  store i32 %5, i32* %8, align 4, !dbg !4688      ; [debug line = 253:60]
  ret void, !dbg !4690                            ; [debug line = 253:75]
}

; [#uses=1]
define internal void @_ZN11ap_int_baseILi32ELb0ELb1EEC2Ev(%struct.ap_int_base* %this) unnamed_addr nounwind uwtable inlinehint alwaysinline align 2 {
  %1 = alloca %struct.ap_int_base*, align 8       ; [#uses=2 type=%struct.ap_int_base**]
  store %struct.ap_int_base* %this, %struct.ap_int_base** %1, align 8
  call void @llvm.dbg.declare(metadata !{%struct.ap_int_base** %1}, metadata !4691), !dbg !4692 ; [debug line = 1494:41] [debug variable = this]
  %2 = load %struct.ap_int_base** %1              ; [#uses=1 type=%struct.ap_int_base*]
  %3 = bitcast %struct.ap_int_base* %2 to %struct.ssdm_int*, !dbg !4693 ; [#uses=1 type=%struct.ssdm_int*] [debug line = 1494:55]
  call void @_ZN8ssdm_intILi32ELb0EEC2Ev(%struct.ssdm_int* %3), !dbg !4693 ; [debug line = 1494:55]
  ret void, !dbg !4694                            ; [debug line = 1500:3]
}

; [#uses=1]
define internal void @_ZN8ssdm_intILi32ELb0EEC2Ev(%struct.ssdm_int* %this) unnamed_addr nounwind uwtable inlinehint alwaysinline align 2 {
  %1 = alloca %struct.ssdm_int*, align 8          ; [#uses=2 type=%struct.ssdm_int**]
  store %struct.ssdm_int* %this, %struct.ssdm_int** %1, align 8
  call void @llvm.dbg.declare(metadata !{%struct.ssdm_int** %1}, metadata !4696), !dbg !4698 ; [debug line = 34:0] [debug variable = this]
  %2 = load %struct.ssdm_int** %1                 ; [#uses=0 type=%struct.ssdm_int*]
  ret void, !dbg !4699                            ; [debug line = 34:0]
}

!llvm.dbg.cu = !{!0}
!opencl.kernels = !{!4211, !4218, !4224, !4230, !4232, !4235, !4236, !4242, !4243, !4245}
!hls.encrypted.func = !{}

!0 = metadata !{i32 786449, i32 0, i32 4, metadata !"/home/common/FPGA/CONV/CNNIOT/deeplib/deeplib/solution1/.autopilot/db/main.pragma.2.cpp", metadata !"/home/common/FPGA/CONV/CNNIOT/deeplib", metadata !"clang version 3.1 ", i1 true, i1 false, metadata !"", i32 0, metadata !1, metadata !897, metadata !899, metadata !2502} ; [ DW_TAG_compile_unit ]
!1 = metadata !{metadata !2}
!2 = metadata !{metadata !3, metadata !26, metadata !33, metadata !42, metadata !48, metadata !890}
!3 = metadata !{i32 786436, metadata !4, metadata !"_Ios_Fmtflags", metadata !5, i32 52, i64 17, i64 32, i32 0, i32 0, null, metadata !6, i32 0, i32 0} ; [ DW_TAG_enumeration_type ]
!4 = metadata !{i32 786489, null, metadata !"std", metadata !5, i32 44} ; [ DW_TAG_namespace ]
!5 = metadata !{i32 786473, metadata !"/media/common/DATAPART1/vivado/Vivado/2017.4/lnx64/tools/gcc/lib/gcc/x86_64-unknown-linux-gnu/4.6.3/../../../../include/c++/4.6.3/bits/ios_base.h", metadata !"/home/common/FPGA/CONV/CNNIOT/deeplib", null} ; [ DW_TAG_file_type ]
!6 = metadata !{metadata !7, metadata !8, metadata !9, metadata !10, metadata !11, metadata !12, metadata !13, metadata !14, metadata !15, metadata !16, metadata !17, metadata !18, metadata !19, metadata !20, metadata !21, metadata !22, metadata !23, metadata !24, metadata !25}
!7 = metadata !{i32 786472, metadata !"_S_boolalpha", i64 1} ; [ DW_TAG_enumerator ]
!8 = metadata !{i32 786472, metadata !"_S_dec", i64 2} ; [ DW_TAG_enumerator ]
!9 = metadata !{i32 786472, metadata !"_S_fixed", i64 4} ; [ DW_TAG_enumerator ]
!10 = metadata !{i32 786472, metadata !"_S_hex", i64 8} ; [ DW_TAG_enumerator ]
!11 = metadata !{i32 786472, metadata !"_S_internal", i64 16} ; [ DW_TAG_enumerator ]
!12 = metadata !{i32 786472, metadata !"_S_left", i64 32} ; [ DW_TAG_enumerator ]
!13 = metadata !{i32 786472, metadata !"_S_oct", i64 64} ; [ DW_TAG_enumerator ]
!14 = metadata !{i32 786472, metadata !"_S_right", i64 128} ; [ DW_TAG_enumerator ]
!15 = metadata !{i32 786472, metadata !"_S_scientific", i64 256} ; [ DW_TAG_enumerator ]
!16 = metadata !{i32 786472, metadata !"_S_showbase", i64 512} ; [ DW_TAG_enumerator ]
!17 = metadata !{i32 786472, metadata !"_S_showpoint", i64 1024} ; [ DW_TAG_enumerator ]
!18 = metadata !{i32 786472, metadata !"_S_showpos", i64 2048} ; [ DW_TAG_enumerator ]
!19 = metadata !{i32 786472, metadata !"_S_skipws", i64 4096} ; [ DW_TAG_enumerator ]
!20 = metadata !{i32 786472, metadata !"_S_unitbuf", i64 8192} ; [ DW_TAG_enumerator ]
!21 = metadata !{i32 786472, metadata !"_S_uppercase", i64 16384} ; [ DW_TAG_enumerator ]
!22 = metadata !{i32 786472, metadata !"_S_adjustfield", i64 176} ; [ DW_TAG_enumerator ]
!23 = metadata !{i32 786472, metadata !"_S_basefield", i64 74} ; [ DW_TAG_enumerator ]
!24 = metadata !{i32 786472, metadata !"_S_floatfield", i64 260} ; [ DW_TAG_enumerator ]
!25 = metadata !{i32 786472, metadata !"_S_ios_fmtflags_end", i64 65536} ; [ DW_TAG_enumerator ]
!26 = metadata !{i32 786436, metadata !4, metadata !"_Ios_Iostate", metadata !5, i32 144, i64 17, i64 32, i32 0, i32 0, null, metadata !27, i32 0, i32 0} ; [ DW_TAG_enumeration_type ]
!27 = metadata !{metadata !28, metadata !29, metadata !30, metadata !31, metadata !32}
!28 = metadata !{i32 786472, metadata !"_S_goodbit", i64 0} ; [ DW_TAG_enumerator ]
!29 = metadata !{i32 786472, metadata !"_S_badbit", i64 1} ; [ DW_TAG_enumerator ]
!30 = metadata !{i32 786472, metadata !"_S_eofbit", i64 2} ; [ DW_TAG_enumerator ]
!31 = metadata !{i32 786472, metadata !"_S_failbit", i64 4} ; [ DW_TAG_enumerator ]
!32 = metadata !{i32 786472, metadata !"_S_ios_iostate_end", i64 65536} ; [ DW_TAG_enumerator ]
!33 = metadata !{i32 786436, metadata !4, metadata !"_Ios_Openmode", metadata !5, i32 104, i64 17, i64 32, i32 0, i32 0, null, metadata !34, i32 0, i32 0} ; [ DW_TAG_enumeration_type ]
!34 = metadata !{metadata !35, metadata !36, metadata !37, metadata !38, metadata !39, metadata !40, metadata !41}
!35 = metadata !{i32 786472, metadata !"_S_app", i64 1} ; [ DW_TAG_enumerator ]
!36 = metadata !{i32 786472, metadata !"_S_ate", i64 2} ; [ DW_TAG_enumerator ]
!37 = metadata !{i32 786472, metadata !"_S_bin", i64 4} ; [ DW_TAG_enumerator ]
!38 = metadata !{i32 786472, metadata !"_S_in", i64 8} ; [ DW_TAG_enumerator ]
!39 = metadata !{i32 786472, metadata !"_S_out", i64 16} ; [ DW_TAG_enumerator ]
!40 = metadata !{i32 786472, metadata !"_S_trunc", i64 32} ; [ DW_TAG_enumerator ]
!41 = metadata !{i32 786472, metadata !"_S_ios_openmode_end", i64 65536} ; [ DW_TAG_enumerator ]
!42 = metadata !{i32 786436, metadata !4, metadata !"_Ios_Seekdir", metadata !5, i32 182, i64 17, i64 32, i32 0, i32 0, null, metadata !43, i32 0, i32 0} ; [ DW_TAG_enumeration_type ]
!43 = metadata !{metadata !44, metadata !45, metadata !46, metadata !47}
!44 = metadata !{i32 786472, metadata !"_S_beg", i64 0} ; [ DW_TAG_enumerator ]
!45 = metadata !{i32 786472, metadata !"_S_cur", i64 1} ; [ DW_TAG_enumerator ]
!46 = metadata !{i32 786472, metadata !"_S_end", i64 2} ; [ DW_TAG_enumerator ]
!47 = metadata !{i32 786472, metadata !"_S_ios_seekdir_end", i64 65536} ; [ DW_TAG_enumerator ]
!48 = metadata !{i32 786436, metadata !49, metadata !"event", metadata !5, i32 420, i64 2, i64 2, i32 0, i32 0, null, metadata !886, i32 0, i32 0} ; [ DW_TAG_enumeration_type ]
!49 = metadata !{i32 786434, metadata !4, metadata !"ios_base", metadata !5, i32 200, i64 1728, i64 64, i32 0, i32 0, null, metadata !50, i32 0, metadata !49, null} ; [ DW_TAG_class_type ]
!50 = metadata !{metadata !51, metadata !57, metadata !65, metadata !66, metadata !68, metadata !70, metadata !71, metadata !97, metadata !107, metadata !111, metadata !112, metadata !114, metadata !818, metadata !822, metadata !825, metadata !828, metadata !832, metadata !833, metadata !838, metadata !841, metadata !842, metadata !845, metadata !848, metadata !851, metadata !854, metadata !855, metadata !856, metadata !859, metadata !862, metadata !865, metadata !868, metadata !869, metadata !873, metadata !877, metadata !878, metadata !879, metadata !883}
!51 = metadata !{i32 786445, metadata !5, metadata !"_vptr$ios_base", metadata !5, i32 0, i64 64, i64 0, i64 0, i32 0, metadata !52} ; [ DW_TAG_member ]
!52 = metadata !{i32 786447, null, metadata !"", null, i32 0, i64 64, i64 0, i64 0, i32 0, metadata !53} ; [ DW_TAG_pointer_type ]
!53 = metadata !{i32 786447, null, metadata !"__vtbl_ptr_type", null, i32 0, i64 64, i64 0, i64 0, i32 0, metadata !54} ; [ DW_TAG_pointer_type ]
!54 = metadata !{i32 786453, i32 0, metadata !"", i32 0, i32 0, i64 0, i64 0, i64 0, i32 0, null, metadata !55, i32 0, i32 0} ; [ DW_TAG_subroutine_type ]
!55 = metadata !{metadata !56}
!56 = metadata !{i32 786468, null, metadata !"int", null, i32 0, i64 32, i64 32, i64 0, i32 0, i32 5} ; [ DW_TAG_base_type ]
!57 = metadata !{i32 786445, metadata !49, metadata !"_M_precision", metadata !5, i32 453, i64 64, i64 64, i64 64, i32 2, metadata !58} ; [ DW_TAG_member ]
!58 = metadata !{i32 786454, metadata !59, metadata !"streamsize", metadata !5, i32 99, i64 0, i64 0, i64 0, i32 0, metadata !61} ; [ DW_TAG_typedef ]
!59 = metadata !{i32 786489, null, metadata !"std", metadata !60, i32 69} ; [ DW_TAG_namespace ]
!60 = metadata !{i32 786473, metadata !"/media/common/DATAPART1/vivado/Vivado/2017.4/lnx64/tools/gcc/lib/gcc/x86_64-unknown-linux-gnu/4.6.3/../../../../include/c++/4.6.3/bits/postypes.h", metadata !"/home/common/FPGA/CONV/CNNIOT/deeplib", null} ; [ DW_TAG_file_type ]
!61 = metadata !{i32 786454, metadata !62, metadata !"ptrdiff_t", metadata !5, i32 156, i64 0, i64 0, i64 0, i32 0, metadata !64} ; [ DW_TAG_typedef ]
!62 = metadata !{i32 786489, null, metadata !"std", metadata !63, i32 153} ; [ DW_TAG_namespace ]
!63 = metadata !{i32 786473, metadata !"/media/common/DATAPART1/vivado/Vivado/2017.4/lnx64/tools/gcc/lib/gcc/x86_64-unknown-linux-gnu/4.6.3/../../../../include/c++/4.6.3/x86_64-unknown-linux-gnu/bits/c++config.h", metadata !"/home/common/FPGA/CONV/CNNIOT/deeplib", null} ; [ DW_TAG_file_type ]
!64 = metadata !{i32 786468, null, metadata !"long int", null, i32 0, i64 64, i64 64, i64 0, i32 0, i32 5} ; [ DW_TAG_base_type ]
!65 = metadata !{i32 786445, metadata !49, metadata !"_M_width", metadata !5, i32 454, i64 64, i64 64, i64 128, i32 2, metadata !58} ; [ DW_TAG_member ]
!66 = metadata !{i32 786445, metadata !49, metadata !"_M_flags", metadata !5, i32 455, i64 17, i64 32, i64 192, i32 2, metadata !67} ; [ DW_TAG_member ]
!67 = metadata !{i32 786454, metadata !49, metadata !"fmtflags", metadata !5, i32 256, i64 0, i64 0, i64 0, i32 0, metadata !3} ; [ DW_TAG_typedef ]
!68 = metadata !{i32 786445, metadata !49, metadata !"_M_exception", metadata !5, i32 456, i64 17, i64 32, i64 224, i32 2, metadata !69} ; [ DW_TAG_member ]
!69 = metadata !{i32 786454, metadata !49, metadata !"iostate", metadata !5, i32 331, i64 0, i64 0, i64 0, i32 0, metadata !26} ; [ DW_TAG_typedef ]
!70 = metadata !{i32 786445, metadata !49, metadata !"_M_streambuf_state", metadata !5, i32 457, i64 17, i64 32, i64 256, i32 2, metadata !69} ; [ DW_TAG_member ]
!71 = metadata !{i32 786445, metadata !49, metadata !"_M_callbacks", metadata !5, i32 491, i64 64, i64 64, i64 320, i32 2, metadata !72} ; [ DW_TAG_member ]
!72 = metadata !{i32 786447, null, metadata !"", null, i32 0, i64 64, i64 64, i64 0, i32 0, metadata !73} ; [ DW_TAG_pointer_type ]
!73 = metadata !{i32 786434, metadata !49, metadata !"_Callback_list", metadata !5, i32 461, i64 192, i64 64, i32 0, i32 0, null, metadata !74, i32 0, null, null} ; [ DW_TAG_class_type ]
!74 = metadata !{metadata !75, metadata !76, metadata !82, metadata !83, metadata !85, metadata !91, metadata !94}
!75 = metadata !{i32 786445, metadata !73, metadata !"_M_next", metadata !5, i32 464, i64 64, i64 64, i64 0, i32 0, metadata !72} ; [ DW_TAG_member ]
!76 = metadata !{i32 786445, metadata !73, metadata !"_M_fn", metadata !5, i32 465, i64 64, i64 64, i64 64, i32 0, metadata !77} ; [ DW_TAG_member ]
!77 = metadata !{i32 786454, metadata !49, metadata !"event_callback", metadata !5, i32 437, i64 0, i64 0, i64 0, i32 0, metadata !78} ; [ DW_TAG_typedef ]
!78 = metadata !{i32 786447, null, metadata !"", null, i32 0, i64 64, i64 64, i64 0, i32 0, metadata !79} ; [ DW_TAG_pointer_type ]
!79 = metadata !{i32 786453, i32 0, metadata !"", i32 0, i32 0, i64 0, i64 0, i64 0, i32 0, null, metadata !80, i32 0, i32 0} ; [ DW_TAG_subroutine_type ]
!80 = metadata !{null, metadata !48, metadata !81, metadata !56}
!81 = metadata !{i32 786448, null, null, null, i32 0, i64 0, i64 0, i64 0, i32 0, metadata !49} ; [ DW_TAG_reference_type ]
!82 = metadata !{i32 786445, metadata !73, metadata !"_M_index", metadata !5, i32 466, i64 32, i64 32, i64 128, i32 0, metadata !56} ; [ DW_TAG_member ]
!83 = metadata !{i32 786445, metadata !73, metadata !"_M_refcount", metadata !5, i32 467, i64 32, i64 32, i64 160, i32 0, metadata !84} ; [ DW_TAG_member ]
!84 = metadata !{i32 786454, null, metadata !"_Atomic_word", metadata !5, i32 32, i64 0, i64 0, i64 0, i32 0, metadata !56} ; [ DW_TAG_typedef ]
!85 = metadata !{i32 786478, i32 0, metadata !73, metadata !"_Callback_list", metadata !"_Callback_list", metadata !"", metadata !5, i32 469, metadata !86, i1 false, i1 false, i32 0, i32 0, null, i32 256, i1 false, null, null, i32 0, metadata !89, i32 469} ; [ DW_TAG_subprogram ]
!86 = metadata !{i32 786453, i32 0, metadata !"", i32 0, i32 0, i64 0, i64 0, i64 0, i32 0, null, metadata !87, i32 0, i32 0} ; [ DW_TAG_subroutine_type ]
!87 = metadata !{null, metadata !88, metadata !77, metadata !56, metadata !72}
!88 = metadata !{i32 786447, i32 0, metadata !"", i32 0, i32 0, i64 64, i64 64, i64 0, i32 64, metadata !73} ; [ DW_TAG_pointer_type ]
!89 = metadata !{metadata !90}
!90 = metadata !{i32 786468}                      ; [ DW_TAG_base_type ]
!91 = metadata !{i32 786478, i32 0, metadata !73, metadata !"_M_add_reference", metadata !"_M_add_reference", metadata !"_ZNSt8ios_base14_Callback_list16_M_add_referenceEv", metadata !5, i32 474, metadata !92, i1 false, i1 false, i32 0, i32 0, null, i32 256, i1 false, null, null, i32 0, metadata !89, i32 474} ; [ DW_TAG_subprogram ]
!92 = metadata !{i32 786453, i32 0, metadata !"", i32 0, i32 0, i64 0, i64 0, i64 0, i32 0, null, metadata !93, i32 0, i32 0} ; [ DW_TAG_subroutine_type ]
!93 = metadata !{null, metadata !88}
!94 = metadata !{i32 786478, i32 0, metadata !73, metadata !"_M_remove_reference", metadata !"_M_remove_reference", metadata !"_ZNSt8ios_base14_Callback_list19_M_remove_referenceEv", metadata !5, i32 478, metadata !95, i1 false, i1 false, i32 0, i32 0, null, i32 256, i1 false, null, null, i32 0, metadata !89, i32 478} ; [ DW_TAG_subprogram ]
!95 = metadata !{i32 786453, i32 0, metadata !"", i32 0, i32 0, i64 0, i64 0, i64 0, i32 0, null, metadata !96, i32 0, i32 0} ; [ DW_TAG_subroutine_type ]
!96 = metadata !{metadata !56, metadata !88}
!97 = metadata !{i32 786445, metadata !49, metadata !"_M_word_zero", metadata !5, i32 508, i64 128, i64 64, i64 384, i32 2, metadata !98} ; [ DW_TAG_member ]
!98 = metadata !{i32 786434, metadata !49, metadata !"_Words", metadata !5, i32 500, i64 128, i64 64, i32 0, i32 0, null, metadata !99, i32 0, null, null} ; [ DW_TAG_class_type ]
!99 = metadata !{metadata !100, metadata !102, metadata !103}
!100 = metadata !{i32 786445, metadata !98, metadata !"_M_pword", metadata !5, i32 502, i64 64, i64 64, i64 0, i32 0, metadata !101} ; [ DW_TAG_member ]
!101 = metadata !{i32 786447, null, metadata !"", null, i32 0, i64 64, i64 64, i64 0, i32 0, null} ; [ DW_TAG_pointer_type ]
!102 = metadata !{i32 786445, metadata !98, metadata !"_M_iword", metadata !5, i32 503, i64 64, i64 64, i64 64, i32 0, metadata !64} ; [ DW_TAG_member ]
!103 = metadata !{i32 786478, i32 0, metadata !98, metadata !"_Words", metadata !"_Words", metadata !"", metadata !5, i32 504, metadata !104, i1 false, i1 false, i32 0, i32 0, null, i32 256, i1 false, null, null, i32 0, metadata !89, i32 504} ; [ DW_TAG_subprogram ]
!104 = metadata !{i32 786453, i32 0, metadata !"", i32 0, i32 0, i64 0, i64 0, i64 0, i32 0, null, metadata !105, i32 0, i32 0} ; [ DW_TAG_subroutine_type ]
!105 = metadata !{null, metadata !106}
!106 = metadata !{i32 786447, i32 0, metadata !"", i32 0, i32 0, i64 64, i64 64, i64 0, i32 64, metadata !98} ; [ DW_TAG_pointer_type ]
!107 = metadata !{i32 786445, metadata !49, metadata !"_M_local_word", metadata !5, i32 513, i64 1024, i64 64, i64 512, i32 2, metadata !108} ; [ DW_TAG_member ]
!108 = metadata !{i32 786433, null, metadata !"", null, i32 0, i64 1024, i64 64, i32 0, i32 0, metadata !98, metadata !109, i32 0, i32 0} ; [ DW_TAG_array_type ]
!109 = metadata !{metadata !110}
!110 = metadata !{i32 786465, i64 0, i64 7}       ; [ DW_TAG_subrange_type ]
!111 = metadata !{i32 786445, metadata !49, metadata !"_M_word_size", metadata !5, i32 516, i64 32, i64 32, i64 1536, i32 2, metadata !56} ; [ DW_TAG_member ]
!112 = metadata !{i32 786445, metadata !49, metadata !"_M_word", metadata !5, i32 517, i64 64, i64 64, i64 1600, i32 2, metadata !113} ; [ DW_TAG_member ]
!113 = metadata !{i32 786447, null, metadata !"", null, i32 0, i64 64, i64 64, i64 0, i32 0, metadata !98} ; [ DW_TAG_pointer_type ]
!114 = metadata !{i32 786445, metadata !49, metadata !"_M_ios_locale", metadata !5, i32 523, i64 64, i64 64, i64 1664, i32 2, metadata !115} ; [ DW_TAG_member ]
!115 = metadata !{i32 786434, metadata !116, metadata !"locale", metadata !117, i32 63, i64 64, i64 64, i32 0, i32 0, null, metadata !118, i32 0, null, null} ; [ DW_TAG_class_type ]
!116 = metadata !{i32 786489, null, metadata !"std", metadata !117, i32 44} ; [ DW_TAG_namespace ]
!117 = metadata !{i32 786473, metadata !"/media/common/DATAPART1/vivado/Vivado/2017.4/lnx64/tools/gcc/lib/gcc/x86_64-unknown-linux-gnu/4.6.3/../../../../include/c++/4.6.3/bits/locale_classes.h", metadata !"/home/common/FPGA/CONV/CNNIOT/deeplib", null} ; [ DW_TAG_file_type ]
!118 = metadata !{metadata !119, metadata !280, metadata !284, metadata !289, metadata !292, metadata !295, metadata !298, metadata !299, metadata !302, metadata !797, metadata !800, metadata !801, metadata !804, metadata !807, metadata !810, metadata !811, metadata !812, metadata !815, metadata !816, metadata !817}
!119 = metadata !{i32 786445, metadata !115, metadata !"_M_impl", metadata !117, i32 280, i64 64, i64 64, i64 0, i32 1, metadata !120} ; [ DW_TAG_member ]
!120 = metadata !{i32 786447, null, metadata !"", null, i32 0, i64 64, i64 64, i64 0, i32 0, metadata !121} ; [ DW_TAG_pointer_type ]
!121 = metadata !{i32 786434, metadata !115, metadata !"_Impl", metadata !117, i32 475, i64 320, i64 64, i32 0, i32 0, null, metadata !122, i32 0, null, null} ; [ DW_TAG_class_type ]
!122 = metadata !{metadata !123, metadata !124, metadata !209, metadata !210, metadata !211, metadata !214, metadata !218, metadata !219, metadata !224, metadata !227, metadata !230, metadata !231, metadata !234, metadata !235, metadata !239, metadata !244, metadata !269, metadata !272, metadata !275, metadata !278, metadata !279}
!123 = metadata !{i32 786445, metadata !121, metadata !"_M_refcount", metadata !117, i32 495, i64 32, i64 32, i64 0, i32 1, metadata !84} ; [ DW_TAG_member ]
!124 = metadata !{i32 786445, metadata !121, metadata !"_M_facets", metadata !117, i32 496, i64 64, i64 64, i64 64, i32 1, metadata !125} ; [ DW_TAG_member ]
!125 = metadata !{i32 786447, null, metadata !"", null, i32 0, i64 64, i64 64, i64 0, i32 0, metadata !126} ; [ DW_TAG_pointer_type ]
!126 = metadata !{i32 786447, null, metadata !"", null, i32 0, i64 64, i64 64, i64 0, i32 0, metadata !127} ; [ DW_TAG_pointer_type ]
!127 = metadata !{i32 786470, null, metadata !"", null, i32 0, i64 0, i64 0, i64 0, i32 0, metadata !128} ; [ DW_TAG_const_type ]
!128 = metadata !{i32 786434, metadata !115, metadata !"facet", metadata !117, i32 338, i64 128, i64 64, i32 0, i32 0, null, metadata !129, i32 0, metadata !128, null} ; [ DW_TAG_class_type ]
!129 = metadata !{metadata !130, metadata !131, metadata !132, metadata !135, metadata !141, metadata !144, metadata !179, metadata !182, metadata !185, metadata !188, metadata !191, metadata !194, metadata !198, metadata !199, metadata !203, metadata !207, metadata !208}
!130 = metadata !{i32 786445, metadata !117, metadata !"_vptr$facet", metadata !117, i32 0, i64 64, i64 0, i64 0, i32 0, metadata !52} ; [ DW_TAG_member ]
!131 = metadata !{i32 786445, metadata !128, metadata !"_M_refcount", metadata !117, i32 344, i64 32, i64 32, i64 64, i32 1, metadata !84} ; [ DW_TAG_member ]
!132 = metadata !{i32 786478, i32 0, metadata !128, metadata !"_S_initialize_once", metadata !"_S_initialize_once", metadata !"_ZNSt6locale5facet18_S_initialize_onceEv", metadata !117, i32 357, metadata !133, i1 false, i1 false, i32 0, i32 0, null, i32 257, i1 false, null, null, i32 0, metadata !89, i32 357} ; [ DW_TAG_subprogram ]
!133 = metadata !{i32 786453, i32 0, metadata !"", i32 0, i32 0, i64 0, i64 0, i64 0, i32 0, null, metadata !134, i32 0, i32 0} ; [ DW_TAG_subroutine_type ]
!134 = metadata !{null}
!135 = metadata !{i32 786478, i32 0, metadata !128, metadata !"facet", metadata !"facet", metadata !"", metadata !117, i32 370, metadata !136, i1 false, i1 false, i32 0, i32 0, null, i32 386, i1 false, null, null, i32 0, metadata !89, i32 370} ; [ DW_TAG_subprogram ]
!136 = metadata !{i32 786453, i32 0, metadata !"", i32 0, i32 0, i64 0, i64 0, i64 0, i32 0, null, metadata !137, i32 0, i32 0} ; [ DW_TAG_subroutine_type ]
!137 = metadata !{null, metadata !138, metadata !139}
!138 = metadata !{i32 786447, i32 0, metadata !"", i32 0, i32 0, i64 64, i64 64, i64 0, i32 64, metadata !128} ; [ DW_TAG_pointer_type ]
!139 = metadata !{i32 786454, metadata !62, metadata !"size_t", metadata !117, i32 155, i64 0, i64 0, i64 0, i32 0, metadata !140} ; [ DW_TAG_typedef ]
!140 = metadata !{i32 786468, null, metadata !"long unsigned int", null, i32 0, i64 64, i64 64, i64 0, i32 0, i32 7} ; [ DW_TAG_base_type ]
!141 = metadata !{i32 786478, i32 0, metadata !128, metadata !"~facet", metadata !"~facet", metadata !"", metadata !117, i32 375, metadata !142, i1 false, i1 false, i32 1, i32 0, metadata !128, i32 258, i1 false, null, null, i32 0, metadata !89, i32 375} ; [ DW_TAG_subprogram ]
!142 = metadata !{i32 786453, i32 0, metadata !"", i32 0, i32 0, i64 0, i64 0, i64 0, i32 0, null, metadata !143, i32 0, i32 0} ; [ DW_TAG_subroutine_type ]
!143 = metadata !{null, metadata !138}
!144 = metadata !{i32 786478, i32 0, metadata !128, metadata !"_S_create_c_locale", metadata !"_S_create_c_locale", metadata !"_ZNSt6locale5facet18_S_create_c_localeERP15__locale_structPKcS2_", metadata !117, i32 378, metadata !145, i1 false, i1 false, i32 0, i32 0, null, i32 258, i1 false, null, null, i32 0, metadata !89, i32 378} ; [ DW_TAG_subprogram ]
!145 = metadata !{i32 786453, i32 0, metadata !"", i32 0, i32 0, i64 0, i64 0, i64 0, i32 0, null, metadata !146, i32 0, i32 0} ; [ DW_TAG_subroutine_type ]
!146 = metadata !{null, metadata !147, metadata !172, metadata !148}
!147 = metadata !{i32 786448, null, null, null, i32 0, i64 0, i64 0, i64 0, i32 0, metadata !148} ; [ DW_TAG_reference_type ]
!148 = metadata !{i32 786454, metadata !149, metadata !"__c_locale", metadata !117, i32 62, i64 0, i64 0, i64 0, i32 0, metadata !151} ; [ DW_TAG_typedef ]
!149 = metadata !{i32 786489, null, metadata !"std", metadata !150, i32 58} ; [ DW_TAG_namespace ]
!150 = metadata !{i32 786473, metadata !"/media/common/DATAPART1/vivado/Vivado/2017.4/lnx64/tools/gcc/lib/gcc/x86_64-unknown-linux-gnu/4.6.3/../../../../include/c++/4.6.3/x86_64-unknown-linux-gnu/bits/c++locale.h", metadata !"/home/common/FPGA/CONV/CNNIOT/deeplib", null} ; [ DW_TAG_file_type ]
!151 = metadata !{i32 786454, null, metadata !"__locale_t", metadata !117, i32 39, i64 0, i64 0, i64 0, i32 0, metadata !152} ; [ DW_TAG_typedef ]
!152 = metadata !{i32 786447, null, metadata !"", null, i32 0, i64 64, i64 64, i64 0, i32 0, metadata !153} ; [ DW_TAG_pointer_type ]
!153 = metadata !{i32 786434, null, metadata !"__locale_struct", metadata !154, i32 27, i64 1856, i64 64, i32 0, i32 0, null, metadata !155, i32 0, null, null} ; [ DW_TAG_class_type ]
!154 = metadata !{i32 786473, metadata !"/usr/include/xlocale.h", metadata !"/home/common/FPGA/CONV/CNNIOT/deeplib", null} ; [ DW_TAG_file_type ]
!155 = metadata !{metadata !156, metadata !162, metadata !166, metadata !169, metadata !170, metadata !175}
!156 = metadata !{i32 786445, metadata !153, metadata !"__locales", metadata !154, i32 30, i64 832, i64 64, i64 0, i32 0, metadata !157} ; [ DW_TAG_member ]
!157 = metadata !{i32 786433, null, metadata !"", null, i32 0, i64 832, i64 64, i32 0, i32 0, metadata !158, metadata !160, i32 0, i32 0} ; [ DW_TAG_array_type ]
!158 = metadata !{i32 786447, null, metadata !"", null, i32 0, i64 64, i64 64, i64 0, i32 0, metadata !159} ; [ DW_TAG_pointer_type ]
!159 = metadata !{i32 786434, null, metadata !"__locale_data", metadata !154, i32 30, i32 0, i32 0, i32 0, i32 4, null, null, i32 0} ; [ DW_TAG_class_type ]
!160 = metadata !{metadata !161}
!161 = metadata !{i32 786465, i64 0, i64 12}      ; [ DW_TAG_subrange_type ]
!162 = metadata !{i32 786445, metadata !153, metadata !"__ctype_b", metadata !154, i32 33, i64 64, i64 64, i64 832, i32 0, metadata !163} ; [ DW_TAG_member ]
!163 = metadata !{i32 786447, null, metadata !"", null, i32 0, i64 64, i64 64, i64 0, i32 0, metadata !164} ; [ DW_TAG_pointer_type ]
!164 = metadata !{i32 786470, null, metadata !"", null, i32 0, i64 0, i64 0, i64 0, i32 0, metadata !165} ; [ DW_TAG_const_type ]
!165 = metadata !{i32 786468, null, metadata !"unsigned short", null, i32 0, i64 16, i64 16, i64 0, i32 0, i32 7} ; [ DW_TAG_base_type ]
!166 = metadata !{i32 786445, metadata !153, metadata !"__ctype_tolower", metadata !154, i32 34, i64 64, i64 64, i64 896, i32 0, metadata !167} ; [ DW_TAG_member ]
!167 = metadata !{i32 786447, null, metadata !"", null, i32 0, i64 64, i64 64, i64 0, i32 0, metadata !168} ; [ DW_TAG_pointer_type ]
!168 = metadata !{i32 786470, null, metadata !"", null, i32 0, i64 0, i64 0, i64 0, i32 0, metadata !56} ; [ DW_TAG_const_type ]
!169 = metadata !{i32 786445, metadata !153, metadata !"__ctype_toupper", metadata !154, i32 35, i64 64, i64 64, i64 960, i32 0, metadata !167} ; [ DW_TAG_member ]
!170 = metadata !{i32 786445, metadata !153, metadata !"__names", metadata !154, i32 38, i64 832, i64 64, i64 1024, i32 0, metadata !171} ; [ DW_TAG_member ]
!171 = metadata !{i32 786433, null, metadata !"", null, i32 0, i64 832, i64 64, i32 0, i32 0, metadata !172, metadata !160, i32 0, i32 0} ; [ DW_TAG_array_type ]
!172 = metadata !{i32 786447, null, metadata !"", null, i32 0, i64 64, i64 64, i64 0, i32 0, metadata !173} ; [ DW_TAG_pointer_type ]
!173 = metadata !{i32 786470, null, metadata !"", null, i32 0, i64 0, i64 0, i64 0, i32 0, metadata !174} ; [ DW_TAG_const_type ]
!174 = metadata !{i32 786468, null, metadata !"char", null, i32 0, i64 8, i64 8, i64 0, i32 0, i32 6} ; [ DW_TAG_base_type ]
!175 = metadata !{i32 786478, i32 0, metadata !153, metadata !"__locale_struct", metadata !"__locale_struct", metadata !"", metadata !154, i32 41, metadata !176, i1 false, i1 false, i32 0, i32 0, null, i32 256, i1 false, null, null, i32 0, metadata !89, i32 41} ; [ DW_TAG_subprogram ]
!176 = metadata !{i32 786453, i32 0, metadata !"", i32 0, i32 0, i64 0, i64 0, i64 0, i32 0, null, metadata !177, i32 0, i32 0} ; [ DW_TAG_subroutine_type ]
!177 = metadata !{null, metadata !178}
!178 = metadata !{i32 786447, i32 0, metadata !"", i32 0, i32 0, i64 64, i64 64, i64 0, i32 64, metadata !153} ; [ DW_TAG_pointer_type ]
!179 = metadata !{i32 786478, i32 0, metadata !128, metadata !"_S_clone_c_locale", metadata !"_S_clone_c_locale", metadata !"_ZNSt6locale5facet17_S_clone_c_localeERP15__locale_struct", metadata !117, i32 382, metadata !180, i1 false, i1 false, i32 0, i32 0, null, i32 258, i1 false, null, null, i32 0, metadata !89, i32 382} ; [ DW_TAG_subprogram ]
!180 = metadata !{i32 786453, i32 0, metadata !"", i32 0, i32 0, i64 0, i64 0, i64 0, i32 0, null, metadata !181, i32 0, i32 0} ; [ DW_TAG_subroutine_type ]
!181 = metadata !{metadata !148, metadata !147}
!182 = metadata !{i32 786478, i32 0, metadata !128, metadata !"_S_destroy_c_locale", metadata !"_S_destroy_c_locale", metadata !"_ZNSt6locale5facet19_S_destroy_c_localeERP15__locale_struct", metadata !117, i32 385, metadata !183, i1 false, i1 false, i32 0, i32 0, null, i32 258, i1 false, null, null, i32 0, metadata !89, i32 385} ; [ DW_TAG_subprogram ]
!183 = metadata !{i32 786453, i32 0, metadata !"", i32 0, i32 0, i64 0, i64 0, i64 0, i32 0, null, metadata !184, i32 0, i32 0} ; [ DW_TAG_subroutine_type ]
!184 = metadata !{null, metadata !147}
!185 = metadata !{i32 786478, i32 0, metadata !128, metadata !"_S_lc_ctype_c_locale", metadata !"_S_lc_ctype_c_locale", metadata !"_ZNSt6locale5facet20_S_lc_ctype_c_localeEP15__locale_structPKc", metadata !117, i32 388, metadata !186, i1 false, i1 false, i32 0, i32 0, null, i32 258, i1 false, null, null, i32 0, metadata !89, i32 388} ; [ DW_TAG_subprogram ]
!186 = metadata !{i32 786453, i32 0, metadata !"", i32 0, i32 0, i64 0, i64 0, i64 0, i32 0, null, metadata !187, i32 0, i32 0} ; [ DW_TAG_subroutine_type ]
!187 = metadata !{metadata !148, metadata !148, metadata !172}
!188 = metadata !{i32 786478, i32 0, metadata !128, metadata !"_S_get_c_locale", metadata !"_S_get_c_locale", metadata !"_ZNSt6locale5facet15_S_get_c_localeEv", metadata !117, i32 393, metadata !189, i1 false, i1 false, i32 0, i32 0, null, i32 258, i1 false, null, null, i32 0, metadata !89, i32 393} ; [ DW_TAG_subprogram ]
!189 = metadata !{i32 786453, i32 0, metadata !"", i32 0, i32 0, i64 0, i64 0, i64 0, i32 0, null, metadata !190, i32 0, i32 0} ; [ DW_TAG_subroutine_type ]
!190 = metadata !{metadata !148}
!191 = metadata !{i32 786478, i32 0, metadata !128, metadata !"_S_get_c_name", metadata !"_S_get_c_name", metadata !"_ZNSt6locale5facet13_S_get_c_nameEv", metadata !117, i32 396, metadata !192, i1 false, i1 false, i32 0, i32 0, null, i32 258, i1 false, null, null, i32 0, metadata !89, i32 396} ; [ DW_TAG_subprogram ]
!192 = metadata !{i32 786453, i32 0, metadata !"", i32 0, i32 0, i64 0, i64 0, i64 0, i32 0, null, metadata !193, i32 0, i32 0} ; [ DW_TAG_subroutine_type ]
!193 = metadata !{metadata !172}
!194 = metadata !{i32 786478, i32 0, metadata !128, metadata !"_M_add_reference", metadata !"_M_add_reference", metadata !"_ZNKSt6locale5facet16_M_add_referenceEv", metadata !117, i32 400, metadata !195, i1 false, i1 false, i32 0, i32 0, null, i32 257, i1 false, null, null, i32 0, metadata !89, i32 400} ; [ DW_TAG_subprogram ]
!195 = metadata !{i32 786453, i32 0, metadata !"", i32 0, i32 0, i64 0, i64 0, i64 0, i32 0, null, metadata !196, i32 0, i32 0} ; [ DW_TAG_subroutine_type ]
!196 = metadata !{null, metadata !197}
!197 = metadata !{i32 786447, i32 0, metadata !"", i32 0, i32 0, i64 64, i64 64, i64 0, i32 64, metadata !127} ; [ DW_TAG_pointer_type ]
!198 = metadata !{i32 786478, i32 0, metadata !128, metadata !"_M_remove_reference", metadata !"_M_remove_reference", metadata !"_ZNKSt6locale5facet19_M_remove_referenceEv", metadata !117, i32 404, metadata !195, i1 false, i1 false, i32 0, i32 0, null, i32 257, i1 false, null, null, i32 0, metadata !89, i32 404} ; [ DW_TAG_subprogram ]
!199 = metadata !{i32 786478, i32 0, metadata !128, metadata !"facet", metadata !"facet", metadata !"", metadata !117, i32 418, metadata !200, i1 false, i1 false, i32 0, i32 0, null, i32 257, i1 false, null, null, i32 0, metadata !89, i32 418} ; [ DW_TAG_subprogram ]
!200 = metadata !{i32 786453, i32 0, metadata !"", i32 0, i32 0, i64 0, i64 0, i64 0, i32 0, null, metadata !201, i32 0, i32 0} ; [ DW_TAG_subroutine_type ]
!201 = metadata !{null, metadata !138, metadata !202}
!202 = metadata !{i32 786448, null, null, null, i32 0, i64 0, i64 0, i64 0, i32 0, metadata !127} ; [ DW_TAG_reference_type ]
!203 = metadata !{i32 786478, i32 0, metadata !128, metadata !"operator=", metadata !"operator=", metadata !"_ZNSt6locale5facetaSERKS0_", metadata !117, i32 421, metadata !204, i1 false, i1 false, i32 0, i32 0, null, i32 257, i1 false, null, null, i32 0, metadata !89, i32 421} ; [ DW_TAG_subprogram ]
!204 = metadata !{i32 786453, i32 0, metadata !"", i32 0, i32 0, i64 0, i64 0, i64 0, i32 0, null, metadata !205, i32 0, i32 0} ; [ DW_TAG_subroutine_type ]
!205 = metadata !{metadata !206, metadata !138, metadata !202}
!206 = metadata !{i32 786448, null, null, null, i32 0, i64 0, i64 0, i64 0, i32 0, metadata !128} ; [ DW_TAG_reference_type ]
!207 = metadata !{i32 786474, metadata !128, null, metadata !117, i32 0, i64 0, i64 0, i64 0, i32 0, metadata !121} ; [ DW_TAG_friend ]
!208 = metadata !{i32 786474, metadata !128, null, metadata !117, i32 0, i64 0, i64 0, i64 0, i32 0, metadata !115} ; [ DW_TAG_friend ]
!209 = metadata !{i32 786445, metadata !121, metadata !"_M_facets_size", metadata !117, i32 497, i64 64, i64 64, i64 128, i32 1, metadata !139} ; [ DW_TAG_member ]
!210 = metadata !{i32 786445, metadata !121, metadata !"_M_caches", metadata !117, i32 498, i64 64, i64 64, i64 192, i32 1, metadata !125} ; [ DW_TAG_member ]
!211 = metadata !{i32 786445, metadata !121, metadata !"_M_names", metadata !117, i32 499, i64 64, i64 64, i64 256, i32 1, metadata !212} ; [ DW_TAG_member ]
!212 = metadata !{i32 786447, null, metadata !"", null, i32 0, i64 64, i64 64, i64 0, i32 0, metadata !213} ; [ DW_TAG_pointer_type ]
!213 = metadata !{i32 786447, null, metadata !"", null, i32 0, i64 64, i64 64, i64 0, i32 0, metadata !174} ; [ DW_TAG_pointer_type ]
!214 = metadata !{i32 786478, i32 0, metadata !121, metadata !"_M_add_reference", metadata !"_M_add_reference", metadata !"_ZNSt6locale5_Impl16_M_add_referenceEv", metadata !117, i32 509, metadata !215, i1 false, i1 false, i32 0, i32 0, null, i32 257, i1 false, null, null, i32 0, metadata !89, i32 509} ; [ DW_TAG_subprogram ]
!215 = metadata !{i32 786453, i32 0, metadata !"", i32 0, i32 0, i64 0, i64 0, i64 0, i32 0, null, metadata !216, i32 0, i32 0} ; [ DW_TAG_subroutine_type ]
!216 = metadata !{null, metadata !217}
!217 = metadata !{i32 786447, i32 0, metadata !"", i32 0, i32 0, i64 64, i64 64, i64 0, i32 64, metadata !121} ; [ DW_TAG_pointer_type ]
!218 = metadata !{i32 786478, i32 0, metadata !121, metadata !"_M_remove_reference", metadata !"_M_remove_reference", metadata !"_ZNSt6locale5_Impl19_M_remove_referenceEv", metadata !117, i32 513, metadata !215, i1 false, i1 false, i32 0, i32 0, null, i32 257, i1 false, null, null, i32 0, metadata !89, i32 513} ; [ DW_TAG_subprogram ]
!219 = metadata !{i32 786478, i32 0, metadata !121, metadata !"_Impl", metadata !"_Impl", metadata !"", metadata !117, i32 527, metadata !220, i1 false, i1 false, i32 0, i32 0, null, i32 257, i1 false, null, null, i32 0, metadata !89, i32 527} ; [ DW_TAG_subprogram ]
!220 = metadata !{i32 786453, i32 0, metadata !"", i32 0, i32 0, i64 0, i64 0, i64 0, i32 0, null, metadata !221, i32 0, i32 0} ; [ DW_TAG_subroutine_type ]
!221 = metadata !{null, metadata !217, metadata !222, metadata !139}
!222 = metadata !{i32 786448, null, null, null, i32 0, i64 0, i64 0, i64 0, i32 0, metadata !223} ; [ DW_TAG_reference_type ]
!223 = metadata !{i32 786470, null, metadata !"", null, i32 0, i64 0, i64 0, i64 0, i32 0, metadata !121} ; [ DW_TAG_const_type ]
!224 = metadata !{i32 786478, i32 0, metadata !121, metadata !"_Impl", metadata !"_Impl", metadata !"", metadata !117, i32 528, metadata !225, i1 false, i1 false, i32 0, i32 0, null, i32 257, i1 false, null, null, i32 0, metadata !89, i32 528} ; [ DW_TAG_subprogram ]
!225 = metadata !{i32 786453, i32 0, metadata !"", i32 0, i32 0, i64 0, i64 0, i64 0, i32 0, null, metadata !226, i32 0, i32 0} ; [ DW_TAG_subroutine_type ]
!226 = metadata !{null, metadata !217, metadata !172, metadata !139}
!227 = metadata !{i32 786478, i32 0, metadata !121, metadata !"_Impl", metadata !"_Impl", metadata !"", metadata !117, i32 529, metadata !228, i1 false, i1 false, i32 0, i32 0, null, i32 257, i1 false, null, null, i32 0, metadata !89, i32 529} ; [ DW_TAG_subprogram ]
!228 = metadata !{i32 786453, i32 0, metadata !"", i32 0, i32 0, i64 0, i64 0, i64 0, i32 0, null, metadata !229, i32 0, i32 0} ; [ DW_TAG_subroutine_type ]
!229 = metadata !{null, metadata !217, metadata !139}
!230 = metadata !{i32 786478, i32 0, metadata !121, metadata !"~_Impl", metadata !"~_Impl", metadata !"", metadata !117, i32 531, metadata !215, i1 false, i1 false, i32 0, i32 0, null, i32 257, i1 false, null, null, i32 0, metadata !89, i32 531} ; [ DW_TAG_subprogram ]
!231 = metadata !{i32 786478, i32 0, metadata !121, metadata !"_Impl", metadata !"_Impl", metadata !"", metadata !117, i32 533, metadata !232, i1 false, i1 false, i32 0, i32 0, null, i32 257, i1 false, null, null, i32 0, metadata !89, i32 533} ; [ DW_TAG_subprogram ]
!232 = metadata !{i32 786453, i32 0, metadata !"", i32 0, i32 0, i64 0, i64 0, i64 0, i32 0, null, metadata !233, i32 0, i32 0} ; [ DW_TAG_subroutine_type ]
!233 = metadata !{null, metadata !217, metadata !222}
!234 = metadata !{i32 786478, i32 0, metadata !121, metadata !"operator=", metadata !"operator=", metadata !"_ZNSt6locale5_ImplaSERKS0_", metadata !117, i32 536, metadata !232, i1 false, i1 false, i32 0, i32 0, null, i32 257, i1 false, null, null, i32 0, metadata !89, i32 536} ; [ DW_TAG_subprogram ]
!235 = metadata !{i32 786478, i32 0, metadata !121, metadata !"_M_check_same_name", metadata !"_M_check_same_name", metadata !"_ZNSt6locale5_Impl18_M_check_same_nameEv", metadata !117, i32 539, metadata !236, i1 false, i1 false, i32 0, i32 0, null, i32 257, i1 false, null, null, i32 0, metadata !89, i32 539} ; [ DW_TAG_subprogram ]
!236 = metadata !{i32 786453, i32 0, metadata !"", i32 0, i32 0, i64 0, i64 0, i64 0, i32 0, null, metadata !237, i32 0, i32 0} ; [ DW_TAG_subroutine_type ]
!237 = metadata !{metadata !238, metadata !217}
!238 = metadata !{i32 786468, null, metadata !"bool", null, i32 0, i64 8, i64 8, i64 0, i32 0, i32 2} ; [ DW_TAG_base_type ]
!239 = metadata !{i32 786478, i32 0, metadata !121, metadata !"_M_replace_categories", metadata !"_M_replace_categories", metadata !"_ZNSt6locale5_Impl21_M_replace_categoriesEPKS0_i", metadata !117, i32 550, metadata !240, i1 false, i1 false, i32 0, i32 0, null, i32 257, i1 false, null, null, i32 0, metadata !89, i32 550} ; [ DW_TAG_subprogram ]
!240 = metadata !{i32 786453, i32 0, metadata !"", i32 0, i32 0, i64 0, i64 0, i64 0, i32 0, null, metadata !241, i32 0, i32 0} ; [ DW_TAG_subroutine_type ]
!241 = metadata !{null, metadata !217, metadata !242, metadata !243}
!242 = metadata !{i32 786447, null, metadata !"", null, i32 0, i64 64, i64 64, i64 0, i32 0, metadata !223} ; [ DW_TAG_pointer_type ]
!243 = metadata !{i32 786454, metadata !115, metadata !"category", metadata !117, i32 68, i64 0, i64 0, i64 0, i32 0, metadata !56} ; [ DW_TAG_typedef ]
!244 = metadata !{i32 786478, i32 0, metadata !121, metadata !"_M_replace_category", metadata !"_M_replace_category", metadata !"_ZNSt6locale5_Impl19_M_replace_categoryEPKS0_PKPKNS_2idE", metadata !117, i32 553, metadata !245, i1 false, i1 false, i32 0, i32 0, null, i32 257, i1 false, null, null, i32 0, metadata !89, i32 553} ; [ DW_TAG_subprogram ]
!245 = metadata !{i32 786453, i32 0, metadata !"", i32 0, i32 0, i64 0, i64 0, i64 0, i32 0, null, metadata !246, i32 0, i32 0} ; [ DW_TAG_subroutine_type ]
!246 = metadata !{null, metadata !217, metadata !242, metadata !247}
!247 = metadata !{i32 786447, null, metadata !"", null, i32 0, i64 64, i64 64, i64 0, i32 0, metadata !248} ; [ DW_TAG_pointer_type ]
!248 = metadata !{i32 786470, null, metadata !"", null, i32 0, i64 0, i64 0, i64 0, i32 0, metadata !249} ; [ DW_TAG_const_type ]
!249 = metadata !{i32 786447, null, metadata !"", null, i32 0, i64 64, i64 64, i64 0, i32 0, metadata !250} ; [ DW_TAG_pointer_type ]
!250 = metadata !{i32 786470, null, metadata !"", null, i32 0, i64 0, i64 0, i64 0, i32 0, metadata !251} ; [ DW_TAG_const_type ]
!251 = metadata !{i32 786434, metadata !115, metadata !"id", metadata !117, i32 436, i64 64, i64 64, i32 0, i32 0, null, metadata !252, i32 0, null, null} ; [ DW_TAG_class_type ]
!252 = metadata !{metadata !253, metadata !254, metadata !259, metadata !260, metadata !263, metadata !267, metadata !268}
!253 = metadata !{i32 786445, metadata !251, metadata !"_M_index", metadata !117, i32 453, i64 64, i64 64, i64 0, i32 1, metadata !139} ; [ DW_TAG_member ]
!254 = metadata !{i32 786478, i32 0, metadata !251, metadata !"operator=", metadata !"operator=", metadata !"_ZNSt6locale2idaSERKS0_", metadata !117, i32 459, metadata !255, i1 false, i1 false, i32 0, i32 0, null, i32 257, i1 false, null, null, i32 0, metadata !89, i32 459} ; [ DW_TAG_subprogram ]
!255 = metadata !{i32 786453, i32 0, metadata !"", i32 0, i32 0, i64 0, i64 0, i64 0, i32 0, null, metadata !256, i32 0, i32 0} ; [ DW_TAG_subroutine_type ]
!256 = metadata !{null, metadata !257, metadata !258}
!257 = metadata !{i32 786447, i32 0, metadata !"", i32 0, i32 0, i64 64, i64 64, i64 0, i32 64, metadata !251} ; [ DW_TAG_pointer_type ]
!258 = metadata !{i32 786448, null, null, null, i32 0, i64 0, i64 0, i64 0, i32 0, metadata !250} ; [ DW_TAG_reference_type ]
!259 = metadata !{i32 786478, i32 0, metadata !251, metadata !"id", metadata !"id", metadata !"", metadata !117, i32 461, metadata !255, i1 false, i1 false, i32 0, i32 0, null, i32 257, i1 false, null, null, i32 0, metadata !89, i32 461} ; [ DW_TAG_subprogram ]
!260 = metadata !{i32 786478, i32 0, metadata !251, metadata !"id", metadata !"id", metadata !"", metadata !117, i32 467, metadata !261, i1 false, i1 false, i32 0, i32 0, null, i32 256, i1 false, null, null, i32 0, metadata !89, i32 467} ; [ DW_TAG_subprogram ]
!261 = metadata !{i32 786453, i32 0, metadata !"", i32 0, i32 0, i64 0, i64 0, i64 0, i32 0, null, metadata !262, i32 0, i32 0} ; [ DW_TAG_subroutine_type ]
!262 = metadata !{null, metadata !257}
!263 = metadata !{i32 786478, i32 0, metadata !251, metadata !"_M_id", metadata !"_M_id", metadata !"_ZNKSt6locale2id5_M_idEv", metadata !117, i32 470, metadata !264, i1 false, i1 false, i32 0, i32 0, null, i32 256, i1 false, null, null, i32 0, metadata !89, i32 470} ; [ DW_TAG_subprogram ]
!264 = metadata !{i32 786453, i32 0, metadata !"", i32 0, i32 0, i64 0, i64 0, i64 0, i32 0, null, metadata !265, i32 0, i32 0} ; [ DW_TAG_subroutine_type ]
!265 = metadata !{metadata !139, metadata !266}
!266 = metadata !{i32 786447, i32 0, metadata !"", i32 0, i32 0, i64 64, i64 64, i64 0, i32 64, metadata !250} ; [ DW_TAG_pointer_type ]
!267 = metadata !{i32 786474, metadata !251, null, metadata !117, i32 0, i64 0, i64 0, i64 0, i32 0, metadata !121} ; [ DW_TAG_friend ]
!268 = metadata !{i32 786474, metadata !251, null, metadata !117, i32 0, i64 0, i64 0, i64 0, i32 0, metadata !115} ; [ DW_TAG_friend ]
!269 = metadata !{i32 786478, i32 0, metadata !121, metadata !"_M_replace_facet", metadata !"_M_replace_facet", metadata !"_ZNSt6locale5_Impl16_M_replace_facetEPKS0_PKNS_2idE", metadata !117, i32 556, metadata !270, i1 false, i1 false, i32 0, i32 0, null, i32 257, i1 false, null, null, i32 0, metadata !89, i32 556} ; [ DW_TAG_subprogram ]
!270 = metadata !{i32 786453, i32 0, metadata !"", i32 0, i32 0, i64 0, i64 0, i64 0, i32 0, null, metadata !271, i32 0, i32 0} ; [ DW_TAG_subroutine_type ]
!271 = metadata !{null, metadata !217, metadata !242, metadata !249}
!272 = metadata !{i32 786478, i32 0, metadata !121, metadata !"_M_install_facet", metadata !"_M_install_facet", metadata !"_ZNSt6locale5_Impl16_M_install_facetEPKNS_2idEPKNS_5facetE", metadata !117, i32 559, metadata !273, i1 false, i1 false, i32 0, i32 0, null, i32 257, i1 false, null, null, i32 0, metadata !89, i32 559} ; [ DW_TAG_subprogram ]
!273 = metadata !{i32 786453, i32 0, metadata !"", i32 0, i32 0, i64 0, i64 0, i64 0, i32 0, null, metadata !274, i32 0, i32 0} ; [ DW_TAG_subroutine_type ]
!274 = metadata !{null, metadata !217, metadata !249, metadata !126}
!275 = metadata !{i32 786478, i32 0, metadata !121, metadata !"_M_install_cache", metadata !"_M_install_cache", metadata !"_ZNSt6locale5_Impl16_M_install_cacheEPKNS_5facetEm", metadata !117, i32 567, metadata !276, i1 false, i1 false, i32 0, i32 0, null, i32 257, i1 false, null, null, i32 0, metadata !89, i32 567} ; [ DW_TAG_subprogram ]
!276 = metadata !{i32 786453, i32 0, metadata !"", i32 0, i32 0, i64 0, i64 0, i64 0, i32 0, null, metadata !277, i32 0, i32 0} ; [ DW_TAG_subroutine_type ]
!277 = metadata !{null, metadata !217, metadata !126, metadata !139}
!278 = metadata !{i32 786474, metadata !121, null, metadata !117, i32 0, i64 0, i64 0, i64 0, i32 0, metadata !128} ; [ DW_TAG_friend ]
!279 = metadata !{i32 786474, metadata !121, null, metadata !117, i32 0, i64 0, i64 0, i64 0, i32 0, metadata !115} ; [ DW_TAG_friend ]
!280 = metadata !{i32 786478, i32 0, metadata !115, metadata !"locale", metadata !"locale", metadata !"", metadata !117, i32 118, metadata !281, i1 false, i1 false, i32 0, i32 0, null, i32 256, i1 false, null, null, i32 0, metadata !89, i32 118} ; [ DW_TAG_subprogram ]
!281 = metadata !{i32 786453, i32 0, metadata !"", i32 0, i32 0, i64 0, i64 0, i64 0, i32 0, null, metadata !282, i32 0, i32 0} ; [ DW_TAG_subroutine_type ]
!282 = metadata !{null, metadata !283}
!283 = metadata !{i32 786447, i32 0, metadata !"", i32 0, i32 0, i64 64, i64 64, i64 0, i32 64, metadata !115} ; [ DW_TAG_pointer_type ]
!284 = metadata !{i32 786478, i32 0, metadata !115, metadata !"locale", metadata !"locale", metadata !"", metadata !117, i32 127, metadata !285, i1 false, i1 false, i32 0, i32 0, null, i32 256, i1 false, null, null, i32 0, metadata !89, i32 127} ; [ DW_TAG_subprogram ]
!285 = metadata !{i32 786453, i32 0, metadata !"", i32 0, i32 0, i64 0, i64 0, i64 0, i32 0, null, metadata !286, i32 0, i32 0} ; [ DW_TAG_subroutine_type ]
!286 = metadata !{null, metadata !283, metadata !287}
!287 = metadata !{i32 786448, null, null, null, i32 0, i64 0, i64 0, i64 0, i32 0, metadata !288} ; [ DW_TAG_reference_type ]
!288 = metadata !{i32 786470, null, metadata !"", null, i32 0, i64 0, i64 0, i64 0, i32 0, metadata !115} ; [ DW_TAG_const_type ]
!289 = metadata !{i32 786478, i32 0, metadata !115, metadata !"locale", metadata !"locale", metadata !"", metadata !117, i32 138, metadata !290, i1 false, i1 false, i32 0, i32 0, null, i32 384, i1 false, null, null, i32 0, metadata !89, i32 138} ; [ DW_TAG_subprogram ]
!290 = metadata !{i32 786453, i32 0, metadata !"", i32 0, i32 0, i64 0, i64 0, i64 0, i32 0, null, metadata !291, i32 0, i32 0} ; [ DW_TAG_subroutine_type ]
!291 = metadata !{null, metadata !283, metadata !172}
!292 = metadata !{i32 786478, i32 0, metadata !115, metadata !"locale", metadata !"locale", metadata !"", metadata !117, i32 152, metadata !293, i1 false, i1 false, i32 0, i32 0, null, i32 256, i1 false, null, null, i32 0, metadata !89, i32 152} ; [ DW_TAG_subprogram ]
!293 = metadata !{i32 786453, i32 0, metadata !"", i32 0, i32 0, i64 0, i64 0, i64 0, i32 0, null, metadata !294, i32 0, i32 0} ; [ DW_TAG_subroutine_type ]
!294 = metadata !{null, metadata !283, metadata !287, metadata !172, metadata !243}
!295 = metadata !{i32 786478, i32 0, metadata !115, metadata !"locale", metadata !"locale", metadata !"", metadata !117, i32 165, metadata !296, i1 false, i1 false, i32 0, i32 0, null, i32 256, i1 false, null, null, i32 0, metadata !89, i32 165} ; [ DW_TAG_subprogram ]
!296 = metadata !{i32 786453, i32 0, metadata !"", i32 0, i32 0, i64 0, i64 0, i64 0, i32 0, null, metadata !297, i32 0, i32 0} ; [ DW_TAG_subroutine_type ]
!297 = metadata !{null, metadata !283, metadata !287, metadata !287, metadata !243}
!298 = metadata !{i32 786478, i32 0, metadata !115, metadata !"~locale", metadata !"~locale", metadata !"", metadata !117, i32 181, metadata !281, i1 false, i1 false, i32 0, i32 0, null, i32 256, i1 false, null, null, i32 0, metadata !89, i32 181} ; [ DW_TAG_subprogram ]
!299 = metadata !{i32 786478, i32 0, metadata !115, metadata !"operator=", metadata !"operator=", metadata !"_ZNSt6localeaSERKS_", metadata !117, i32 192, metadata !300, i1 false, i1 false, i32 0, i32 0, null, i32 256, i1 false, null, null, i32 0, metadata !89, i32 192} ; [ DW_TAG_subprogram ]
!300 = metadata !{i32 786453, i32 0, metadata !"", i32 0, i32 0, i64 0, i64 0, i64 0, i32 0, null, metadata !301, i32 0, i32 0} ; [ DW_TAG_subroutine_type ]
!301 = metadata !{metadata !287, metadata !283, metadata !287}
!302 = metadata !{i32 786478, i32 0, metadata !115, metadata !"name", metadata !"name", metadata !"_ZNKSt6locale4nameEv", metadata !117, i32 216, metadata !303, i1 false, i1 false, i32 0, i32 0, null, i32 256, i1 false, null, null, i32 0, metadata !89, i32 216} ; [ DW_TAG_subprogram ]
!303 = metadata !{i32 786453, i32 0, metadata !"", i32 0, i32 0, i64 0, i64 0, i64 0, i32 0, null, metadata !304, i32 0, i32 0} ; [ DW_TAG_subroutine_type ]
!304 = metadata !{metadata !305, metadata !796}
!305 = metadata !{i32 786454, metadata !306, metadata !"string", metadata !117, i32 64, i64 0, i64 0, i64 0, i32 0, metadata !308} ; [ DW_TAG_typedef ]
!306 = metadata !{i32 786489, null, metadata !"std", metadata !307, i32 42} ; [ DW_TAG_namespace ]
!307 = metadata !{i32 786473, metadata !"/media/common/DATAPART1/vivado/Vivado/2017.4/lnx64/tools/gcc/lib/gcc/x86_64-unknown-linux-gnu/4.6.3/../../../../include/c++/4.6.3/bits/stringfwd.h", metadata !"/home/common/FPGA/CONV/CNNIOT/deeplib", null} ; [ DW_TAG_file_type ]
!308 = metadata !{i32 786434, metadata !306, metadata !"basic_string<char>", metadata !309, i32 1133, i64 64, i64 64, i32 0, i32 0, null, metadata !310, i32 0, null, metadata !740} ; [ DW_TAG_class_type ]
!309 = metadata !{i32 786473, metadata !"/media/common/DATAPART1/vivado/Vivado/2017.4/lnx64/tools/gcc/lib/gcc/x86_64-unknown-linux-gnu/4.6.3/../../../../include/c++/4.6.3/bits/basic_string.tcc", metadata !"/home/common/FPGA/CONV/CNNIOT/deeplib", null} ; [ DW_TAG_file_type ]
!310 = metadata !{metadata !311, metadata !384, metadata !389, metadata !393, metadata !442, metadata !448, metadata !449, metadata !452, metadata !455, metadata !458, metadata !461, metadata !464, metadata !467, metadata !468, metadata !471, metadata !474, metadata !479, metadata !482, metadata !485, metadata !488, metadata !491, metadata !492, metadata !493, metadata !494, metadata !497, metadata !501, metadata !504, metadata !507, metadata !510, metadata !513, metadata !516, metadata !517, metadata !521, metadata !524, metadata !527, metadata !530, metadata !533, metadata !534, metadata !535, metadata !540, metadata !545, metadata !546, metadata !547, metadata !550, metadata !551, metadata !552, metadata !555, metadata !558, metadata !559, metadata !560, metadata !561, metadata !564, metadata !569, metadata !574, metadata !575, metadata !576, metadata !577, metadata !578, metadata !579, metadata !580, metadata !583, metadata !586, metadata !587, metadata !590, metadata !593, metadata !594, metadata !595, metadata !596, metadata !597, metadata !598, metadata !601, metadata !604, metadata !607, metadata !610, metadata !613, metadata !616, metadata !619, metadata !622, metadata !625, metadata !628, metadata !631, metadata !634, metadata !637, metadata !640, metadata !643, metadata !646, metadata !649, metadata !652, metadata !655, metadata !658, metadata !661, metadata !664, metadata !667, metadata !668, metadata !669, metadata !672, metadata !673, metadata !676, metadata !679, metadata !682, metadata !683, metadata !687, metadata !690, metadata !693, metadata !696, metadata !699, metadata !700, metadata !701, metadata !702, metadata !703, metadata !704, metadata !705, metadata !706, metadata !707, metadata !708, metadata !709, metadata !710, metadata !711, metadata !712, metadata !713, metadata !714, metadata !715, metadata !716, metadata !717, metadata !718, metadata !719, metadata !722, metadata !725, metadata !728, metadata !731, metadata !734, metadata !737}
!311 = metadata !{i32 786445, metadata !308, metadata !"_M_dataplus", metadata !312, i32 283, i64 64, i64 64, i64 0, i32 1, metadata !313} ; [ DW_TAG_member ]
!312 = metadata !{i32 786473, metadata !"/media/common/DATAPART1/vivado/Vivado/2017.4/lnx64/tools/gcc/lib/gcc/x86_64-unknown-linux-gnu/4.6.3/../../../../include/c++/4.6.3/bits/basic_string.h", metadata !"/home/common/FPGA/CONV/CNNIOT/deeplib", null} ; [ DW_TAG_file_type ]
!313 = metadata !{i32 786434, metadata !308, metadata !"_Alloc_hider", metadata !312, i32 266, i64 64, i64 64, i32 0, i32 0, null, metadata !314, i32 0, null, null} ; [ DW_TAG_class_type ]
!314 = metadata !{metadata !315, metadata !379, metadata !380}
!315 = metadata !{i32 786460, metadata !313, null, metadata !312, i32 0, i64 0, i64 0, i64 0, i32 0, metadata !316} ; [ DW_TAG_inheritance ]
!316 = metadata !{i32 786434, metadata !306, metadata !"allocator<char>", metadata !317, i32 143, i64 8, i64 8, i32 0, i32 0, null, metadata !318, i32 0, null, metadata !377} ; [ DW_TAG_class_type ]
!317 = metadata !{i32 786473, metadata !"/media/common/DATAPART1/vivado/Vivado/2017.4/lnx64/tools/gcc/lib/gcc/x86_64-unknown-linux-gnu/4.6.3/../../../../include/c++/4.6.3/bits/allocator.h", metadata !"/home/common/FPGA/CONV/CNNIOT/deeplib", null} ; [ DW_TAG_file_type ]
!318 = metadata !{metadata !319, metadata !367, metadata !371, metadata !376}
!319 = metadata !{i32 786460, metadata !316, null, metadata !317, i32 0, i64 0, i64 0, i64 0, i32 0, metadata !320} ; [ DW_TAG_inheritance ]
!320 = metadata !{i32 786434, metadata !321, metadata !"new_allocator<char>", metadata !322, i32 54, i64 8, i64 8, i32 0, i32 0, null, metadata !323, i32 0, null, metadata !365} ; [ DW_TAG_class_type ]
!321 = metadata !{i32 786489, null, metadata !"__gnu_cxx", metadata !322, i32 38} ; [ DW_TAG_namespace ]
!322 = metadata !{i32 786473, metadata !"/media/common/DATAPART1/vivado/Vivado/2017.4/lnx64/tools/gcc/lib/gcc/x86_64-unknown-linux-gnu/4.6.3/../../../../include/c++/4.6.3/ext/new_allocator.h", metadata !"/home/common/FPGA/CONV/CNNIOT/deeplib", null} ; [ DW_TAG_file_type ]
!323 = metadata !{metadata !324, metadata !328, metadata !333, metadata !334, metadata !341, metadata !347, metadata !353, metadata !356, metadata !359, metadata !362}
!324 = metadata !{i32 786478, i32 0, metadata !320, metadata !"new_allocator", metadata !"new_allocator", metadata !"", metadata !322, i32 69, metadata !325, i1 false, i1 false, i32 0, i32 0, null, i32 256, i1 false, null, null, i32 0, metadata !89, i32 69} ; [ DW_TAG_subprogram ]
!325 = metadata !{i32 786453, i32 0, metadata !"", i32 0, i32 0, i64 0, i64 0, i64 0, i32 0, null, metadata !326, i32 0, i32 0} ; [ DW_TAG_subroutine_type ]
!326 = metadata !{null, metadata !327}
!327 = metadata !{i32 786447, i32 0, metadata !"", i32 0, i32 0, i64 64, i64 64, i64 0, i32 64, metadata !320} ; [ DW_TAG_pointer_type ]
!328 = metadata !{i32 786478, i32 0, metadata !320, metadata !"new_allocator", metadata !"new_allocator", metadata !"", metadata !322, i32 71, metadata !329, i1 false, i1 false, i32 0, i32 0, null, i32 256, i1 false, null, null, i32 0, metadata !89, i32 71} ; [ DW_TAG_subprogram ]
!329 = metadata !{i32 786453, i32 0, metadata !"", i32 0, i32 0, i64 0, i64 0, i64 0, i32 0, null, metadata !330, i32 0, i32 0} ; [ DW_TAG_subroutine_type ]
!330 = metadata !{null, metadata !327, metadata !331}
!331 = metadata !{i32 786448, null, null, null, i32 0, i64 0, i64 0, i64 0, i32 0, metadata !332} ; [ DW_TAG_reference_type ]
!332 = metadata !{i32 786470, null, metadata !"", null, i32 0, i64 0, i64 0, i64 0, i32 0, metadata !320} ; [ DW_TAG_const_type ]
!333 = metadata !{i32 786478, i32 0, metadata !320, metadata !"~new_allocator", metadata !"~new_allocator", metadata !"", metadata !322, i32 76, metadata !325, i1 false, i1 false, i32 0, i32 0, null, i32 256, i1 false, null, null, i32 0, metadata !89, i32 76} ; [ DW_TAG_subprogram ]
!334 = metadata !{i32 786478, i32 0, metadata !320, metadata !"address", metadata !"address", metadata !"_ZNK9__gnu_cxx13new_allocatorIcE7addressERc", metadata !322, i32 79, metadata !335, i1 false, i1 false, i32 0, i32 0, null, i32 256, i1 false, null, null, i32 0, metadata !89, i32 79} ; [ DW_TAG_subprogram ]
!335 = metadata !{i32 786453, i32 0, metadata !"", i32 0, i32 0, i64 0, i64 0, i64 0, i32 0, null, metadata !336, i32 0, i32 0} ; [ DW_TAG_subroutine_type ]
!336 = metadata !{metadata !337, metadata !338, metadata !339}
!337 = metadata !{i32 786454, metadata !320, metadata !"pointer", metadata !322, i32 59, i64 0, i64 0, i64 0, i32 0, metadata !213} ; [ DW_TAG_typedef ]
!338 = metadata !{i32 786447, i32 0, metadata !"", i32 0, i32 0, i64 64, i64 64, i64 0, i32 64, metadata !332} ; [ DW_TAG_pointer_type ]
!339 = metadata !{i32 786454, metadata !320, metadata !"reference", metadata !322, i32 61, i64 0, i64 0, i64 0, i32 0, metadata !340} ; [ DW_TAG_typedef ]
!340 = metadata !{i32 786448, null, null, null, i32 0, i64 0, i64 0, i64 0, i32 0, metadata !174} ; [ DW_TAG_reference_type ]
!341 = metadata !{i32 786478, i32 0, metadata !320, metadata !"address", metadata !"address", metadata !"_ZNK9__gnu_cxx13new_allocatorIcE7addressERKc", metadata !322, i32 82, metadata !342, i1 false, i1 false, i32 0, i32 0, null, i32 256, i1 false, null, null, i32 0, metadata !89, i32 82} ; [ DW_TAG_subprogram ]
!342 = metadata !{i32 786453, i32 0, metadata !"", i32 0, i32 0, i64 0, i64 0, i64 0, i32 0, null, metadata !343, i32 0, i32 0} ; [ DW_TAG_subroutine_type ]
!343 = metadata !{metadata !344, metadata !338, metadata !345}
!344 = metadata !{i32 786454, metadata !320, metadata !"const_pointer", metadata !322, i32 60, i64 0, i64 0, i64 0, i32 0, metadata !172} ; [ DW_TAG_typedef ]
!345 = metadata !{i32 786454, metadata !320, metadata !"const_reference", metadata !322, i32 62, i64 0, i64 0, i64 0, i32 0, metadata !346} ; [ DW_TAG_typedef ]
!346 = metadata !{i32 786448, null, null, null, i32 0, i64 0, i64 0, i64 0, i32 0, metadata !173} ; [ DW_TAG_reference_type ]
!347 = metadata !{i32 786478, i32 0, metadata !320, metadata !"allocate", metadata !"allocate", metadata !"_ZN9__gnu_cxx13new_allocatorIcE8allocateEmPKv", metadata !322, i32 87, metadata !348, i1 false, i1 false, i32 0, i32 0, null, i32 256, i1 false, null, null, i32 0, metadata !89, i32 87} ; [ DW_TAG_subprogram ]
!348 = metadata !{i32 786453, i32 0, metadata !"", i32 0, i32 0, i64 0, i64 0, i64 0, i32 0, null, metadata !349, i32 0, i32 0} ; [ DW_TAG_subroutine_type ]
!349 = metadata !{metadata !337, metadata !327, metadata !350, metadata !351}
!350 = metadata !{i32 786454, null, metadata !"size_type", metadata !322, i32 57, i64 0, i64 0, i64 0, i32 0, metadata !139} ; [ DW_TAG_typedef ]
!351 = metadata !{i32 786447, null, metadata !"", null, i32 0, i64 64, i64 64, i64 0, i32 0, metadata !352} ; [ DW_TAG_pointer_type ]
!352 = metadata !{i32 786470, null, metadata !"", null, i32 0, i64 0, i64 0, i64 0, i32 0, null} ; [ DW_TAG_const_type ]
!353 = metadata !{i32 786478, i32 0, metadata !320, metadata !"deallocate", metadata !"deallocate", metadata !"_ZN9__gnu_cxx13new_allocatorIcE10deallocateEPcm", metadata !322, i32 97, metadata !354, i1 false, i1 false, i32 0, i32 0, null, i32 256, i1 false, null, null, i32 0, metadata !89, i32 97} ; [ DW_TAG_subprogram ]
!354 = metadata !{i32 786453, i32 0, metadata !"", i32 0, i32 0, i64 0, i64 0, i64 0, i32 0, null, metadata !355, i32 0, i32 0} ; [ DW_TAG_subroutine_type ]
!355 = metadata !{null, metadata !327, metadata !337, metadata !350}
!356 = metadata !{i32 786478, i32 0, metadata !320, metadata !"max_size", metadata !"max_size", metadata !"_ZNK9__gnu_cxx13new_allocatorIcE8max_sizeEv", metadata !322, i32 101, metadata !357, i1 false, i1 false, i32 0, i32 0, null, i32 256, i1 false, null, null, i32 0, metadata !89, i32 101} ; [ DW_TAG_subprogram ]
!357 = metadata !{i32 786453, i32 0, metadata !"", i32 0, i32 0, i64 0, i64 0, i64 0, i32 0, null, metadata !358, i32 0, i32 0} ; [ DW_TAG_subroutine_type ]
!358 = metadata !{metadata !350, metadata !338}
!359 = metadata !{i32 786478, i32 0, metadata !320, metadata !"construct", metadata !"construct", metadata !"_ZN9__gnu_cxx13new_allocatorIcE9constructEPcRKc", metadata !322, i32 107, metadata !360, i1 false, i1 false, i32 0, i32 0, null, i32 256, i1 false, null, null, i32 0, metadata !89, i32 107} ; [ DW_TAG_subprogram ]
!360 = metadata !{i32 786453, i32 0, metadata !"", i32 0, i32 0, i64 0, i64 0, i64 0, i32 0, null, metadata !361, i32 0, i32 0} ; [ DW_TAG_subroutine_type ]
!361 = metadata !{null, metadata !327, metadata !337, metadata !346}
!362 = metadata !{i32 786478, i32 0, metadata !320, metadata !"destroy", metadata !"destroy", metadata !"_ZN9__gnu_cxx13new_allocatorIcE7destroyEPc", metadata !322, i32 118, metadata !363, i1 false, i1 false, i32 0, i32 0, null, i32 256, i1 false, null, null, i32 0, metadata !89, i32 118} ; [ DW_TAG_subprogram ]
!363 = metadata !{i32 786453, i32 0, metadata !"", i32 0, i32 0, i64 0, i64 0, i64 0, i32 0, null, metadata !364, i32 0, i32 0} ; [ DW_TAG_subroutine_type ]
!364 = metadata !{null, metadata !327, metadata !337}
!365 = metadata !{metadata !366}
!366 = metadata !{i32 786479, null, metadata !"_Tp", metadata !174, null, i32 0, i32 0} ; [ DW_TAG_template_type_parameter ]
!367 = metadata !{i32 786478, i32 0, metadata !316, metadata !"allocator", metadata !"allocator", metadata !"", metadata !317, i32 107, metadata !368, i1 false, i1 false, i32 0, i32 0, null, i32 256, i1 false, null, null, i32 0, metadata !89, i32 107} ; [ DW_TAG_subprogram ]
!368 = metadata !{i32 786453, i32 0, metadata !"", i32 0, i32 0, i64 0, i64 0, i64 0, i32 0, null, metadata !369, i32 0, i32 0} ; [ DW_TAG_subroutine_type ]
!369 = metadata !{null, metadata !370}
!370 = metadata !{i32 786447, i32 0, metadata !"", i32 0, i32 0, i64 64, i64 64, i64 0, i32 64, metadata !316} ; [ DW_TAG_pointer_type ]
!371 = metadata !{i32 786478, i32 0, metadata !316, metadata !"allocator", metadata !"allocator", metadata !"", metadata !317, i32 109, metadata !372, i1 false, i1 false, i32 0, i32 0, null, i32 256, i1 false, null, null, i32 0, metadata !89, i32 109} ; [ DW_TAG_subprogram ]
!372 = metadata !{i32 786453, i32 0, metadata !"", i32 0, i32 0, i64 0, i64 0, i64 0, i32 0, null, metadata !373, i32 0, i32 0} ; [ DW_TAG_subroutine_type ]
!373 = metadata !{null, metadata !370, metadata !374}
!374 = metadata !{i32 786448, null, null, null, i32 0, i64 0, i64 0, i64 0, i32 0, metadata !375} ; [ DW_TAG_reference_type ]
!375 = metadata !{i32 786470, null, metadata !"", null, i32 0, i64 0, i64 0, i64 0, i32 0, metadata !316} ; [ DW_TAG_const_type ]
!376 = metadata !{i32 786478, i32 0, metadata !316, metadata !"~allocator", metadata !"~allocator", metadata !"", metadata !317, i32 115, metadata !368, i1 false, i1 false, i32 0, i32 0, null, i32 256, i1 false, null, null, i32 0, metadata !89, i32 115} ; [ DW_TAG_subprogram ]
!377 = metadata !{metadata !378}
!378 = metadata !{i32 786479, null, metadata !"_Alloc", metadata !174, null, i32 0, i32 0} ; [ DW_TAG_template_type_parameter ]
!379 = metadata !{i32 786445, metadata !313, metadata !"_M_p", metadata !312, i32 271, i64 64, i64 64, i64 0, i32 0, metadata !213} ; [ DW_TAG_member ]
!380 = metadata !{i32 786478, i32 0, metadata !313, metadata !"_Alloc_hider", metadata !"_Alloc_hider", metadata !"", metadata !312, i32 268, metadata !381, i1 false, i1 false, i32 0, i32 0, null, i32 256, i1 false, null, null, i32 0, metadata !89, i32 268} ; [ DW_TAG_subprogram ]
!381 = metadata !{i32 786453, i32 0, metadata !"", i32 0, i32 0, i64 0, i64 0, i64 0, i32 0, null, metadata !382, i32 0, i32 0} ; [ DW_TAG_subroutine_type ]
!382 = metadata !{null, metadata !383, metadata !213, metadata !374}
!383 = metadata !{i32 786447, i32 0, metadata !"", i32 0, i32 0, i64 64, i64 64, i64 0, i32 64, metadata !313} ; [ DW_TAG_pointer_type ]
!384 = metadata !{i32 786478, i32 0, metadata !308, metadata !"_M_data", metadata !"_M_data", metadata !"_ZNKSs7_M_dataEv", metadata !312, i32 286, metadata !385, i1 false, i1 false, i32 0, i32 0, null, i32 257, i1 false, null, null, i32 0, metadata !89, i32 286} ; [ DW_TAG_subprogram ]
!385 = metadata !{i32 786453, i32 0, metadata !"", i32 0, i32 0, i64 0, i64 0, i64 0, i32 0, null, metadata !386, i32 0, i32 0} ; [ DW_TAG_subroutine_type ]
!386 = metadata !{metadata !213, metadata !387}
!387 = metadata !{i32 786447, i32 0, metadata !"", i32 0, i32 0, i64 64, i64 64, i64 0, i32 64, metadata !388} ; [ DW_TAG_pointer_type ]
!388 = metadata !{i32 786470, null, metadata !"", null, i32 0, i64 0, i64 0, i64 0, i32 0, metadata !308} ; [ DW_TAG_const_type ]
!389 = metadata !{i32 786478, i32 0, metadata !308, metadata !"_M_data", metadata !"_M_data", metadata !"_ZNSs7_M_dataEPc", metadata !312, i32 290, metadata !390, i1 false, i1 false, i32 0, i32 0, null, i32 257, i1 false, null, null, i32 0, metadata !89, i32 290} ; [ DW_TAG_subprogram ]
!390 = metadata !{i32 786453, i32 0, metadata !"", i32 0, i32 0, i64 0, i64 0, i64 0, i32 0, null, metadata !391, i32 0, i32 0} ; [ DW_TAG_subroutine_type ]
!391 = metadata !{metadata !213, metadata !392, metadata !213}
!392 = metadata !{i32 786447, i32 0, metadata !"", i32 0, i32 0, i64 64, i64 64, i64 0, i32 64, metadata !308} ; [ DW_TAG_pointer_type ]
!393 = metadata !{i32 786478, i32 0, metadata !308, metadata !"_M_rep", metadata !"_M_rep", metadata !"_ZNKSs6_M_repEv", metadata !312, i32 294, metadata !394, i1 false, i1 false, i32 0, i32 0, null, i32 257, i1 false, null, null, i32 0, metadata !89, i32 294} ; [ DW_TAG_subprogram ]
!394 = metadata !{i32 786453, i32 0, metadata !"", i32 0, i32 0, i64 0, i64 0, i64 0, i32 0, null, metadata !395, i32 0, i32 0} ; [ DW_TAG_subroutine_type ]
!395 = metadata !{metadata !396, metadata !387}
!396 = metadata !{i32 786447, null, metadata !"", null, i32 0, i64 64, i64 64, i64 0, i32 0, metadata !397} ; [ DW_TAG_pointer_type ]
!397 = metadata !{i32 786434, metadata !308, metadata !"_Rep", metadata !312, i32 149, i64 192, i64 64, i32 0, i32 0, null, metadata !398, i32 0, null, null} ; [ DW_TAG_class_type ]
!398 = metadata !{metadata !399, metadata !407, metadata !411, metadata !416, metadata !417, metadata !421, metadata !422, metadata !425, metadata !428, metadata !431, metadata !434, metadata !437, metadata !438, metadata !439}
!399 = metadata !{i32 786460, metadata !397, null, metadata !312, i32 0, i64 0, i64 0, i64 0, i32 0, metadata !400} ; [ DW_TAG_inheritance ]
!400 = metadata !{i32 786434, metadata !308, metadata !"_Rep_base", metadata !312, i32 142, i64 192, i64 64, i32 0, i32 0, null, metadata !401, i32 0, null, null} ; [ DW_TAG_class_type ]
!401 = metadata !{metadata !402, metadata !405, metadata !406}
!402 = metadata !{i32 786445, metadata !400, metadata !"_M_length", metadata !312, i32 144, i64 64, i64 64, i64 0, i32 0, metadata !403} ; [ DW_TAG_member ]
!403 = metadata !{i32 786454, metadata !308, metadata !"size_type", metadata !312, i32 115, i64 0, i64 0, i64 0, i32 0, metadata !404} ; [ DW_TAG_typedef ]
!404 = metadata !{i32 786454, metadata !316, metadata !"size_type", metadata !312, i32 95, i64 0, i64 0, i64 0, i32 0, metadata !139} ; [ DW_TAG_typedef ]
!405 = metadata !{i32 786445, metadata !400, metadata !"_M_capacity", metadata !312, i32 145, i64 64, i64 64, i64 64, i32 0, metadata !403} ; [ DW_TAG_member ]
!406 = metadata !{i32 786445, metadata !400, metadata !"_M_refcount", metadata !312, i32 146, i64 32, i64 32, i64 128, i32 0, metadata !84} ; [ DW_TAG_member ]
!407 = metadata !{i32 786478, i32 0, metadata !397, metadata !"_S_empty_rep", metadata !"_S_empty_rep", metadata !"_ZNSs4_Rep12_S_empty_repEv", metadata !312, i32 175, metadata !408, i1 false, i1 false, i32 0, i32 0, null, i32 256, i1 false, null, null, i32 0, metadata !89, i32 175} ; [ DW_TAG_subprogram ]
!408 = metadata !{i32 786453, i32 0, metadata !"", i32 0, i32 0, i64 0, i64 0, i64 0, i32 0, null, metadata !409, i32 0, i32 0} ; [ DW_TAG_subroutine_type ]
!409 = metadata !{metadata !410}
!410 = metadata !{i32 786448, null, null, null, i32 0, i64 0, i64 0, i64 0, i32 0, metadata !397} ; [ DW_TAG_reference_type ]
!411 = metadata !{i32 786478, i32 0, metadata !397, metadata !"_M_is_leaked", metadata !"_M_is_leaked", metadata !"_ZNKSs4_Rep12_M_is_leakedEv", metadata !312, i32 185, metadata !412, i1 false, i1 false, i32 0, i32 0, null, i32 256, i1 false, null, null, i32 0, metadata !89, i32 185} ; [ DW_TAG_subprogram ]
!412 = metadata !{i32 786453, i32 0, metadata !"", i32 0, i32 0, i64 0, i64 0, i64 0, i32 0, null, metadata !413, i32 0, i32 0} ; [ DW_TAG_subroutine_type ]
!413 = metadata !{metadata !238, metadata !414}
!414 = metadata !{i32 786447, i32 0, metadata !"", i32 0, i32 0, i64 64, i64 64, i64 0, i32 64, metadata !415} ; [ DW_TAG_pointer_type ]
!415 = metadata !{i32 786470, null, metadata !"", null, i32 0, i64 0, i64 0, i64 0, i32 0, metadata !397} ; [ DW_TAG_const_type ]
!416 = metadata !{i32 786478, i32 0, metadata !397, metadata !"_M_is_shared", metadata !"_M_is_shared", metadata !"_ZNKSs4_Rep12_M_is_sharedEv", metadata !312, i32 189, metadata !412, i1 false, i1 false, i32 0, i32 0, null, i32 256, i1 false, null, null, i32 0, metadata !89, i32 189} ; [ DW_TAG_subprogram ]
!417 = metadata !{i32 786478, i32 0, metadata !397, metadata !"_M_set_leaked", metadata !"_M_set_leaked", metadata !"_ZNSs4_Rep13_M_set_leakedEv", metadata !312, i32 193, metadata !418, i1 false, i1 false, i32 0, i32 0, null, i32 256, i1 false, null, null, i32 0, metadata !89, i32 193} ; [ DW_TAG_subprogram ]
!418 = metadata !{i32 786453, i32 0, metadata !"", i32 0, i32 0, i64 0, i64 0, i64 0, i32 0, null, metadata !419, i32 0, i32 0} ; [ DW_TAG_subroutine_type ]
!419 = metadata !{null, metadata !420}
!420 = metadata !{i32 786447, i32 0, metadata !"", i32 0, i32 0, i64 64, i64 64, i64 0, i32 64, metadata !397} ; [ DW_TAG_pointer_type ]
!421 = metadata !{i32 786478, i32 0, metadata !397, metadata !"_M_set_sharable", metadata !"_M_set_sharable", metadata !"_ZNSs4_Rep15_M_set_sharableEv", metadata !312, i32 197, metadata !418, i1 false, i1 false, i32 0, i32 0, null, i32 256, i1 false, null, null, i32 0, metadata !89, i32 197} ; [ DW_TAG_subprogram ]
!422 = metadata !{i32 786478, i32 0, metadata !397, metadata !"_M_set_length_and_sharable", metadata !"_M_set_length_and_sharable", metadata !"_ZNSs4_Rep26_M_set_length_and_sharableEm", metadata !312, i32 201, metadata !423, i1 false, i1 false, i32 0, i32 0, null, i32 256, i1 false, null, null, i32 0, metadata !89, i32 201} ; [ DW_TAG_subprogram ]
!423 = metadata !{i32 786453, i32 0, metadata !"", i32 0, i32 0, i64 0, i64 0, i64 0, i32 0, null, metadata !424, i32 0, i32 0} ; [ DW_TAG_subroutine_type ]
!424 = metadata !{null, metadata !420, metadata !403}
!425 = metadata !{i32 786478, i32 0, metadata !397, metadata !"_M_refdata", metadata !"_M_refdata", metadata !"_ZNSs4_Rep10_M_refdataEv", metadata !312, i32 216, metadata !426, i1 false, i1 false, i32 0, i32 0, null, i32 256, i1 false, null, null, i32 0, metadata !89, i32 216} ; [ DW_TAG_subprogram ]
!426 = metadata !{i32 786453, i32 0, metadata !"", i32 0, i32 0, i64 0, i64 0, i64 0, i32 0, null, metadata !427, i32 0, i32 0} ; [ DW_TAG_subroutine_type ]
!427 = metadata !{metadata !213, metadata !420}
!428 = metadata !{i32 786478, i32 0, metadata !397, metadata !"_M_grab", metadata !"_M_grab", metadata !"_ZNSs4_Rep7_M_grabERKSaIcES2_", metadata !312, i32 220, metadata !429, i1 false, i1 false, i32 0, i32 0, null, i32 256, i1 false, null, null, i32 0, metadata !89, i32 220} ; [ DW_TAG_subprogram ]
!429 = metadata !{i32 786453, i32 0, metadata !"", i32 0, i32 0, i64 0, i64 0, i64 0, i32 0, null, metadata !430, i32 0, i32 0} ; [ DW_TAG_subroutine_type ]
!430 = metadata !{metadata !213, metadata !420, metadata !374, metadata !374}
!431 = metadata !{i32 786478, i32 0, metadata !397, metadata !"_S_create", metadata !"_S_create", metadata !"_ZNSs4_Rep9_S_createEmmRKSaIcE", metadata !312, i32 228, metadata !432, i1 false, i1 false, i32 0, i32 0, null, i32 256, i1 false, null, null, i32 0, metadata !89, i32 228} ; [ DW_TAG_subprogram ]
!432 = metadata !{i32 786453, i32 0, metadata !"", i32 0, i32 0, i64 0, i64 0, i64 0, i32 0, null, metadata !433, i32 0, i32 0} ; [ DW_TAG_subroutine_type ]
!433 = metadata !{metadata !396, metadata !403, metadata !403, metadata !374}
!434 = metadata !{i32 786478, i32 0, metadata !397, metadata !"_M_dispose", metadata !"_M_dispose", metadata !"_ZNSs4_Rep10_M_disposeERKSaIcE", metadata !312, i32 231, metadata !435, i1 false, i1 false, i32 0, i32 0, null, i32 256, i1 false, null, null, i32 0, metadata !89, i32 231} ; [ DW_TAG_subprogram ]
!435 = metadata !{i32 786453, i32 0, metadata !"", i32 0, i32 0, i64 0, i64 0, i64 0, i32 0, null, metadata !436, i32 0, i32 0} ; [ DW_TAG_subroutine_type ]
!436 = metadata !{null, metadata !420, metadata !374}
!437 = metadata !{i32 786478, i32 0, metadata !397, metadata !"_M_destroy", metadata !"_M_destroy", metadata !"_ZNSs4_Rep10_M_destroyERKSaIcE", metadata !312, i32 249, metadata !435, i1 false, i1 false, i32 0, i32 0, null, i32 256, i1 false, null, null, i32 0, metadata !89, i32 249} ; [ DW_TAG_subprogram ]
!438 = metadata !{i32 786478, i32 0, metadata !397, metadata !"_M_refcopy", metadata !"_M_refcopy", metadata !"_ZNSs4_Rep10_M_refcopyEv", metadata !312, i32 252, metadata !426, i1 false, i1 false, i32 0, i32 0, null, i32 256, i1 false, null, null, i32 0, metadata !89, i32 252} ; [ DW_TAG_subprogram ]
!439 = metadata !{i32 786478, i32 0, metadata !397, metadata !"_M_clone", metadata !"_M_clone", metadata !"_ZNSs4_Rep8_M_cloneERKSaIcEm", metadata !312, i32 262, metadata !440, i1 false, i1 false, i32 0, i32 0, null, i32 256, i1 false, null, null, i32 0, metadata !89, i32 262} ; [ DW_TAG_subprogram ]
!440 = metadata !{i32 786453, i32 0, metadata !"", i32 0, i32 0, i64 0, i64 0, i64 0, i32 0, null, metadata !441, i32 0, i32 0} ; [ DW_TAG_subroutine_type ]
!441 = metadata !{metadata !213, metadata !420, metadata !374, metadata !403}
!442 = metadata !{i32 786478, i32 0, metadata !308, metadata !"_M_ibegin", metadata !"_M_ibegin", metadata !"_ZNKSs9_M_ibeginEv", metadata !312, i32 300, metadata !443, i1 false, i1 false, i32 0, i32 0, null, i32 257, i1 false, null, null, i32 0, metadata !89, i32 300} ; [ DW_TAG_subprogram ]
!443 = metadata !{i32 786453, i32 0, metadata !"", i32 0, i32 0, i64 0, i64 0, i64 0, i32 0, null, metadata !444, i32 0, i32 0} ; [ DW_TAG_subroutine_type ]
!444 = metadata !{metadata !445, metadata !387}
!445 = metadata !{i32 786454, metadata !308, metadata !"iterator", metadata !309, i32 121, i64 0, i64 0, i64 0, i32 0, metadata !446} ; [ DW_TAG_typedef ]
!446 = metadata !{i32 786434, null, metadata !"__normal_iterator<char *, std::basic_string<char> >", metadata !447, i32 702, i32 0, i32 0, i32 0, i32 4, null, null, i32 0} ; [ DW_TAG_class_type ]
!447 = metadata !{i32 786473, metadata !"/media/common/DATAPART1/vivado/Vivado/2017.4/lnx64/tools/gcc/lib/gcc/x86_64-unknown-linux-gnu/4.6.3/../../../../include/c++/4.6.3/bits/stl_iterator.h", metadata !"/home/common/FPGA/CONV/CNNIOT/deeplib", null} ; [ DW_TAG_file_type ]
!448 = metadata !{i32 786478, i32 0, metadata !308, metadata !"_M_iend", metadata !"_M_iend", metadata !"_ZNKSs7_M_iendEv", metadata !312, i32 304, metadata !443, i1 false, i1 false, i32 0, i32 0, null, i32 257, i1 false, null, null, i32 0, metadata !89, i32 304} ; [ DW_TAG_subprogram ]
!449 = metadata !{i32 786478, i32 0, metadata !308, metadata !"_M_leak", metadata !"_M_leak", metadata !"_ZNSs7_M_leakEv", metadata !312, i32 308, metadata !450, i1 false, i1 false, i32 0, i32 0, null, i32 257, i1 false, null, null, i32 0, metadata !89, i32 308} ; [ DW_TAG_subprogram ]
!450 = metadata !{i32 786453, i32 0, metadata !"", i32 0, i32 0, i64 0, i64 0, i64 0, i32 0, null, metadata !451, i32 0, i32 0} ; [ DW_TAG_subroutine_type ]
!451 = metadata !{null, metadata !392}
!452 = metadata !{i32 786478, i32 0, metadata !308, metadata !"_M_check", metadata !"_M_check", metadata !"_ZNKSs8_M_checkEmPKc", metadata !312, i32 315, metadata !453, i1 false, i1 false, i32 0, i32 0, null, i32 257, i1 false, null, null, i32 0, metadata !89, i32 315} ; [ DW_TAG_subprogram ]
!453 = metadata !{i32 786453, i32 0, metadata !"", i32 0, i32 0, i64 0, i64 0, i64 0, i32 0, null, metadata !454, i32 0, i32 0} ; [ DW_TAG_subroutine_type ]
!454 = metadata !{metadata !403, metadata !387, metadata !403, metadata !172}
!455 = metadata !{i32 786478, i32 0, metadata !308, metadata !"_M_check_length", metadata !"_M_check_length", metadata !"_ZNKSs15_M_check_lengthEmmPKc", metadata !312, i32 323, metadata !456, i1 false, i1 false, i32 0, i32 0, null, i32 257, i1 false, null, null, i32 0, metadata !89, i32 323} ; [ DW_TAG_subprogram ]
!456 = metadata !{i32 786453, i32 0, metadata !"", i32 0, i32 0, i64 0, i64 0, i64 0, i32 0, null, metadata !457, i32 0, i32 0} ; [ DW_TAG_subroutine_type ]
!457 = metadata !{null, metadata !387, metadata !403, metadata !403, metadata !172}
!458 = metadata !{i32 786478, i32 0, metadata !308, metadata !"_M_limit", metadata !"_M_limit", metadata !"_ZNKSs8_M_limitEmm", metadata !312, i32 331, metadata !459, i1 false, i1 false, i32 0, i32 0, null, i32 257, i1 false, null, null, i32 0, metadata !89, i32 331} ; [ DW_TAG_subprogram ]
!459 = metadata !{i32 786453, i32 0, metadata !"", i32 0, i32 0, i64 0, i64 0, i64 0, i32 0, null, metadata !460, i32 0, i32 0} ; [ DW_TAG_subroutine_type ]
!460 = metadata !{metadata !403, metadata !387, metadata !403, metadata !403}
!461 = metadata !{i32 786478, i32 0, metadata !308, metadata !"_M_disjunct", metadata !"_M_disjunct", metadata !"_ZNKSs11_M_disjunctEPKc", metadata !312, i32 339, metadata !462, i1 false, i1 false, i32 0, i32 0, null, i32 257, i1 false, null, null, i32 0, metadata !89, i32 339} ; [ DW_TAG_subprogram ]
!462 = metadata !{i32 786453, i32 0, metadata !"", i32 0, i32 0, i64 0, i64 0, i64 0, i32 0, null, metadata !463, i32 0, i32 0} ; [ DW_TAG_subroutine_type ]
!463 = metadata !{metadata !238, metadata !387, metadata !172}
!464 = metadata !{i32 786478, i32 0, metadata !308, metadata !"_M_copy", metadata !"_M_copy", metadata !"_ZNSs7_M_copyEPcPKcm", metadata !312, i32 348, metadata !465, i1 false, i1 false, i32 0, i32 0, null, i32 257, i1 false, null, null, i32 0, metadata !89, i32 348} ; [ DW_TAG_subprogram ]
!465 = metadata !{i32 786453, i32 0, metadata !"", i32 0, i32 0, i64 0, i64 0, i64 0, i32 0, null, metadata !466, i32 0, i32 0} ; [ DW_TAG_subroutine_type ]
!466 = metadata !{null, metadata !213, metadata !172, metadata !403}
!467 = metadata !{i32 786478, i32 0, metadata !308, metadata !"_M_move", metadata !"_M_move", metadata !"_ZNSs7_M_moveEPcPKcm", metadata !312, i32 357, metadata !465, i1 false, i1 false, i32 0, i32 0, null, i32 257, i1 false, null, null, i32 0, metadata !89, i32 357} ; [ DW_TAG_subprogram ]
!468 = metadata !{i32 786478, i32 0, metadata !308, metadata !"_M_assign", metadata !"_M_assign", metadata !"_ZNSs9_M_assignEPcmc", metadata !312, i32 366, metadata !469, i1 false, i1 false, i32 0, i32 0, null, i32 257, i1 false, null, null, i32 0, metadata !89, i32 366} ; [ DW_TAG_subprogram ]
!469 = metadata !{i32 786453, i32 0, metadata !"", i32 0, i32 0, i64 0, i64 0, i64 0, i32 0, null, metadata !470, i32 0, i32 0} ; [ DW_TAG_subroutine_type ]
!470 = metadata !{null, metadata !213, metadata !403, metadata !174}
!471 = metadata !{i32 786478, i32 0, metadata !308, metadata !"_S_copy_chars", metadata !"_S_copy_chars", metadata !"_ZNSs13_S_copy_charsEPcN9__gnu_cxx17__normal_iteratorIS_SsEES2_", metadata !312, i32 385, metadata !472, i1 false, i1 false, i32 0, i32 0, null, i32 257, i1 false, null, null, i32 0, metadata !89, i32 385} ; [ DW_TAG_subprogram ]
!472 = metadata !{i32 786453, i32 0, metadata !"", i32 0, i32 0, i64 0, i64 0, i64 0, i32 0, null, metadata !473, i32 0, i32 0} ; [ DW_TAG_subroutine_type ]
!473 = metadata !{null, metadata !213, metadata !445, metadata !445}
!474 = metadata !{i32 786478, i32 0, metadata !308, metadata !"_S_copy_chars", metadata !"_S_copy_chars", metadata !"_ZNSs13_S_copy_charsEPcN9__gnu_cxx17__normal_iteratorIPKcSsEES4_", metadata !312, i32 389, metadata !475, i1 false, i1 false, i32 0, i32 0, null, i32 257, i1 false, null, null, i32 0, metadata !89, i32 389} ; [ DW_TAG_subprogram ]
!475 = metadata !{i32 786453, i32 0, metadata !"", i32 0, i32 0, i64 0, i64 0, i64 0, i32 0, null, metadata !476, i32 0, i32 0} ; [ DW_TAG_subroutine_type ]
!476 = metadata !{null, metadata !213, metadata !477, metadata !477}
!477 = metadata !{i32 786454, metadata !308, metadata !"const_iterator", metadata !309, i32 123, i64 0, i64 0, i64 0, i32 0, metadata !478} ; [ DW_TAG_typedef ]
!478 = metadata !{i32 786434, null, metadata !"__normal_iterator<const char *, std::basic_string<char> >", metadata !447, i32 702, i32 0, i32 0, i32 0, i32 4, null, null, i32 0} ; [ DW_TAG_class_type ]
!479 = metadata !{i32 786478, i32 0, metadata !308, metadata !"_S_copy_chars", metadata !"_S_copy_chars", metadata !"_ZNSs13_S_copy_charsEPcS_S_", metadata !312, i32 393, metadata !480, i1 false, i1 false, i32 0, i32 0, null, i32 257, i1 false, null, null, i32 0, metadata !89, i32 393} ; [ DW_TAG_subprogram ]
!480 = metadata !{i32 786453, i32 0, metadata !"", i32 0, i32 0, i64 0, i64 0, i64 0, i32 0, null, metadata !481, i32 0, i32 0} ; [ DW_TAG_subroutine_type ]
!481 = metadata !{null, metadata !213, metadata !213, metadata !213}
!482 = metadata !{i32 786478, i32 0, metadata !308, metadata !"_S_copy_chars", metadata !"_S_copy_chars", metadata !"_ZNSs13_S_copy_charsEPcPKcS1_", metadata !312, i32 397, metadata !483, i1 false, i1 false, i32 0, i32 0, null, i32 257, i1 false, null, null, i32 0, metadata !89, i32 397} ; [ DW_TAG_subprogram ]
!483 = metadata !{i32 786453, i32 0, metadata !"", i32 0, i32 0, i64 0, i64 0, i64 0, i32 0, null, metadata !484, i32 0, i32 0} ; [ DW_TAG_subroutine_type ]
!484 = metadata !{null, metadata !213, metadata !172, metadata !172}
!485 = metadata !{i32 786478, i32 0, metadata !308, metadata !"_S_compare", metadata !"_S_compare", metadata !"_ZNSs10_S_compareEmm", metadata !312, i32 401, metadata !486, i1 false, i1 false, i32 0, i32 0, null, i32 257, i1 false, null, null, i32 0, metadata !89, i32 401} ; [ DW_TAG_subprogram ]
!486 = metadata !{i32 786453, i32 0, metadata !"", i32 0, i32 0, i64 0, i64 0, i64 0, i32 0, null, metadata !487, i32 0, i32 0} ; [ DW_TAG_subroutine_type ]
!487 = metadata !{metadata !56, metadata !403, metadata !403}
!488 = metadata !{i32 786478, i32 0, metadata !308, metadata !"_M_mutate", metadata !"_M_mutate", metadata !"_ZNSs9_M_mutateEmmm", metadata !312, i32 414, metadata !489, i1 false, i1 false, i32 0, i32 0, null, i32 257, i1 false, null, null, i32 0, metadata !89, i32 414} ; [ DW_TAG_subprogram ]
!489 = metadata !{i32 786453, i32 0, metadata !"", i32 0, i32 0, i64 0, i64 0, i64 0, i32 0, null, metadata !490, i32 0, i32 0} ; [ DW_TAG_subroutine_type ]
!490 = metadata !{null, metadata !392, metadata !403, metadata !403, metadata !403}
!491 = metadata !{i32 786478, i32 0, metadata !308, metadata !"_M_leak_hard", metadata !"_M_leak_hard", metadata !"_ZNSs12_M_leak_hardEv", metadata !312, i32 417, metadata !450, i1 false, i1 false, i32 0, i32 0, null, i32 257, i1 false, null, null, i32 0, metadata !89, i32 417} ; [ DW_TAG_subprogram ]
!492 = metadata !{i32 786478, i32 0, metadata !308, metadata !"_S_empty_rep", metadata !"_S_empty_rep", metadata !"_ZNSs12_S_empty_repEv", metadata !312, i32 420, metadata !408, i1 false, i1 false, i32 0, i32 0, null, i32 257, i1 false, null, null, i32 0, metadata !89, i32 420} ; [ DW_TAG_subprogram ]
!493 = metadata !{i32 786478, i32 0, metadata !308, metadata !"basic_string", metadata !"basic_string", metadata !"", metadata !312, i32 431, metadata !450, i1 false, i1 false, i32 0, i32 0, null, i32 256, i1 false, null, null, i32 0, metadata !89, i32 431} ; [ DW_TAG_subprogram ]
!494 = metadata !{i32 786478, i32 0, metadata !308, metadata !"basic_string", metadata !"basic_string", metadata !"", metadata !312, i32 442, metadata !495, i1 false, i1 false, i32 0, i32 0, null, i32 384, i1 false, null, null, i32 0, metadata !89, i32 442} ; [ DW_TAG_subprogram ]
!495 = metadata !{i32 786453, i32 0, metadata !"", i32 0, i32 0, i64 0, i64 0, i64 0, i32 0, null, metadata !496, i32 0, i32 0} ; [ DW_TAG_subroutine_type ]
!496 = metadata !{null, metadata !392, metadata !374}
!497 = metadata !{i32 786478, i32 0, metadata !308, metadata !"basic_string", metadata !"basic_string", metadata !"", metadata !312, i32 449, metadata !498, i1 false, i1 false, i32 0, i32 0, null, i32 256, i1 false, null, null, i32 0, metadata !89, i32 449} ; [ DW_TAG_subprogram ]
!498 = metadata !{i32 786453, i32 0, metadata !"", i32 0, i32 0, i64 0, i64 0, i64 0, i32 0, null, metadata !499, i32 0, i32 0} ; [ DW_TAG_subroutine_type ]
!499 = metadata !{null, metadata !392, metadata !500}
!500 = metadata !{i32 786448, null, null, null, i32 0, i64 0, i64 0, i64 0, i32 0, metadata !388} ; [ DW_TAG_reference_type ]
!501 = metadata !{i32 786478, i32 0, metadata !308, metadata !"basic_string", metadata !"basic_string", metadata !"", metadata !312, i32 456, metadata !502, i1 false, i1 false, i32 0, i32 0, null, i32 256, i1 false, null, null, i32 0, metadata !89, i32 456} ; [ DW_TAG_subprogram ]
!502 = metadata !{i32 786453, i32 0, metadata !"", i32 0, i32 0, i64 0, i64 0, i64 0, i32 0, null, metadata !503, i32 0, i32 0} ; [ DW_TAG_subroutine_type ]
!503 = metadata !{null, metadata !392, metadata !500, metadata !403, metadata !403}
!504 = metadata !{i32 786478, i32 0, metadata !308, metadata !"basic_string", metadata !"basic_string", metadata !"", metadata !312, i32 465, metadata !505, i1 false, i1 false, i32 0, i32 0, null, i32 256, i1 false, null, null, i32 0, metadata !89, i32 465} ; [ DW_TAG_subprogram ]
!505 = metadata !{i32 786453, i32 0, metadata !"", i32 0, i32 0, i64 0, i64 0, i64 0, i32 0, null, metadata !506, i32 0, i32 0} ; [ DW_TAG_subroutine_type ]
!506 = metadata !{null, metadata !392, metadata !500, metadata !403, metadata !403, metadata !374}
!507 = metadata !{i32 786478, i32 0, metadata !308, metadata !"basic_string", metadata !"basic_string", metadata !"", metadata !312, i32 477, metadata !508, i1 false, i1 false, i32 0, i32 0, null, i32 256, i1 false, null, null, i32 0, metadata !89, i32 477} ; [ DW_TAG_subprogram ]
!508 = metadata !{i32 786453, i32 0, metadata !"", i32 0, i32 0, i64 0, i64 0, i64 0, i32 0, null, metadata !509, i32 0, i32 0} ; [ DW_TAG_subroutine_type ]
!509 = metadata !{null, metadata !392, metadata !172, metadata !403, metadata !374}
!510 = metadata !{i32 786478, i32 0, metadata !308, metadata !"basic_string", metadata !"basic_string", metadata !"", metadata !312, i32 484, metadata !511, i1 false, i1 false, i32 0, i32 0, null, i32 256, i1 false, null, null, i32 0, metadata !89, i32 484} ; [ DW_TAG_subprogram ]
!511 = metadata !{i32 786453, i32 0, metadata !"", i32 0, i32 0, i64 0, i64 0, i64 0, i32 0, null, metadata !512, i32 0, i32 0} ; [ DW_TAG_subroutine_type ]
!512 = metadata !{null, metadata !392, metadata !172, metadata !374}
!513 = metadata !{i32 786478, i32 0, metadata !308, metadata !"basic_string", metadata !"basic_string", metadata !"", metadata !312, i32 491, metadata !514, i1 false, i1 false, i32 0, i32 0, null, i32 256, i1 false, null, null, i32 0, metadata !89, i32 491} ; [ DW_TAG_subprogram ]
!514 = metadata !{i32 786453, i32 0, metadata !"", i32 0, i32 0, i64 0, i64 0, i64 0, i32 0, null, metadata !515, i32 0, i32 0} ; [ DW_TAG_subroutine_type ]
!515 = metadata !{null, metadata !392, metadata !403, metadata !174, metadata !374}
!516 = metadata !{i32 786478, i32 0, metadata !308, metadata !"~basic_string", metadata !"~basic_string", metadata !"", metadata !312, i32 532, metadata !450, i1 false, i1 false, i32 0, i32 0, null, i32 256, i1 false, null, null, i32 0, metadata !89, i32 532} ; [ DW_TAG_subprogram ]
!517 = metadata !{i32 786478, i32 0, metadata !308, metadata !"operator=", metadata !"operator=", metadata !"_ZNSsaSERKSs", metadata !312, i32 540, metadata !518, i1 false, i1 false, i32 0, i32 0, null, i32 256, i1 false, null, null, i32 0, metadata !89, i32 540} ; [ DW_TAG_subprogram ]
!518 = metadata !{i32 786453, i32 0, metadata !"", i32 0, i32 0, i64 0, i64 0, i64 0, i32 0, null, metadata !519, i32 0, i32 0} ; [ DW_TAG_subroutine_type ]
!519 = metadata !{metadata !520, metadata !392, metadata !500}
!520 = metadata !{i32 786448, null, null, null, i32 0, i64 0, i64 0, i64 0, i32 0, metadata !308} ; [ DW_TAG_reference_type ]
!521 = metadata !{i32 786478, i32 0, metadata !308, metadata !"operator=", metadata !"operator=", metadata !"_ZNSsaSEPKc", metadata !312, i32 548, metadata !522, i1 false, i1 false, i32 0, i32 0, null, i32 256, i1 false, null, null, i32 0, metadata !89, i32 548} ; [ DW_TAG_subprogram ]
!522 = metadata !{i32 786453, i32 0, metadata !"", i32 0, i32 0, i64 0, i64 0, i64 0, i32 0, null, metadata !523, i32 0, i32 0} ; [ DW_TAG_subroutine_type ]
!523 = metadata !{metadata !520, metadata !392, metadata !172}
!524 = metadata !{i32 786478, i32 0, metadata !308, metadata !"operator=", metadata !"operator=", metadata !"_ZNSsaSEc", metadata !312, i32 559, metadata !525, i1 false, i1 false, i32 0, i32 0, null, i32 256, i1 false, null, null, i32 0, metadata !89, i32 559} ; [ DW_TAG_subprogram ]
!525 = metadata !{i32 786453, i32 0, metadata !"", i32 0, i32 0, i64 0, i64 0, i64 0, i32 0, null, metadata !526, i32 0, i32 0} ; [ DW_TAG_subroutine_type ]
!526 = metadata !{metadata !520, metadata !392, metadata !174}
!527 = metadata !{i32 786478, i32 0, metadata !308, metadata !"begin", metadata !"begin", metadata !"_ZNSs5beginEv", metadata !312, i32 599, metadata !528, i1 false, i1 false, i32 0, i32 0, null, i32 256, i1 false, null, null, i32 0, metadata !89, i32 599} ; [ DW_TAG_subprogram ]
!528 = metadata !{i32 786453, i32 0, metadata !"", i32 0, i32 0, i64 0, i64 0, i64 0, i32 0, null, metadata !529, i32 0, i32 0} ; [ DW_TAG_subroutine_type ]
!529 = metadata !{metadata !445, metadata !392}
!530 = metadata !{i32 786478, i32 0, metadata !308, metadata !"begin", metadata !"begin", metadata !"_ZNKSs5beginEv", metadata !312, i32 610, metadata !531, i1 false, i1 false, i32 0, i32 0, null, i32 256, i1 false, null, null, i32 0, metadata !89, i32 610} ; [ DW_TAG_subprogram ]
!531 = metadata !{i32 786453, i32 0, metadata !"", i32 0, i32 0, i64 0, i64 0, i64 0, i32 0, null, metadata !532, i32 0, i32 0} ; [ DW_TAG_subroutine_type ]
!532 = metadata !{metadata !477, metadata !387}
!533 = metadata !{i32 786478, i32 0, metadata !308, metadata !"end", metadata !"end", metadata !"_ZNSs3endEv", metadata !312, i32 618, metadata !528, i1 false, i1 false, i32 0, i32 0, null, i32 256, i1 false, null, null, i32 0, metadata !89, i32 618} ; [ DW_TAG_subprogram ]
!534 = metadata !{i32 786478, i32 0, metadata !308, metadata !"end", metadata !"end", metadata !"_ZNKSs3endEv", metadata !312, i32 629, metadata !531, i1 false, i1 false, i32 0, i32 0, null, i32 256, i1 false, null, null, i32 0, metadata !89, i32 629} ; [ DW_TAG_subprogram ]
!535 = metadata !{i32 786478, i32 0, metadata !308, metadata !"rbegin", metadata !"rbegin", metadata !"_ZNSs6rbeginEv", metadata !312, i32 638, metadata !536, i1 false, i1 false, i32 0, i32 0, null, i32 256, i1 false, null, null, i32 0, metadata !89, i32 638} ; [ DW_TAG_subprogram ]
!536 = metadata !{i32 786453, i32 0, metadata !"", i32 0, i32 0, i64 0, i64 0, i64 0, i32 0, null, metadata !537, i32 0, i32 0} ; [ DW_TAG_subroutine_type ]
!537 = metadata !{metadata !538, metadata !392}
!538 = metadata !{i32 786454, metadata !308, metadata !"reverse_iterator", metadata !309, i32 125, i64 0, i64 0, i64 0, i32 0, metadata !539} ; [ DW_TAG_typedef ]
!539 = metadata !{i32 786434, null, metadata !"reverse_iterator<__gnu_cxx::__normal_iterator<char *, std::basic_string<char> > >", metadata !447, i32 97, i32 0, i32 0, i32 0, i32 4, null, null, i32 0} ; [ DW_TAG_class_type ]
!540 = metadata !{i32 786478, i32 0, metadata !308, metadata !"rbegin", metadata !"rbegin", metadata !"_ZNKSs6rbeginEv", metadata !312, i32 647, metadata !541, i1 false, i1 false, i32 0, i32 0, null, i32 256, i1 false, null, null, i32 0, metadata !89, i32 647} ; [ DW_TAG_subprogram ]
!541 = metadata !{i32 786453, i32 0, metadata !"", i32 0, i32 0, i64 0, i64 0, i64 0, i32 0, null, metadata !542, i32 0, i32 0} ; [ DW_TAG_subroutine_type ]
!542 = metadata !{metadata !543, metadata !387}
!543 = metadata !{i32 786454, metadata !308, metadata !"const_reverse_iterator", metadata !309, i32 124, i64 0, i64 0, i64 0, i32 0, metadata !544} ; [ DW_TAG_typedef ]
!544 = metadata !{i32 786434, null, metadata !"reverse_iterator<__gnu_cxx::__normal_iterator<const char *, std::basic_string<char> > >", metadata !447, i32 97, i32 0, i32 0, i32 0, i32 4, null, null, i32 0} ; [ DW_TAG_class_type ]
!545 = metadata !{i32 786478, i32 0, metadata !308, metadata !"rend", metadata !"rend", metadata !"_ZNSs4rendEv", metadata !312, i32 656, metadata !536, i1 false, i1 false, i32 0, i32 0, null, i32 256, i1 false, null, null, i32 0, metadata !89, i32 656} ; [ DW_TAG_subprogram ]
!546 = metadata !{i32 786478, i32 0, metadata !308, metadata !"rend", metadata !"rend", metadata !"_ZNKSs4rendEv", metadata !312, i32 665, metadata !541, i1 false, i1 false, i32 0, i32 0, null, i32 256, i1 false, null, null, i32 0, metadata !89, i32 665} ; [ DW_TAG_subprogram ]
!547 = metadata !{i32 786478, i32 0, metadata !308, metadata !"size", metadata !"size", metadata !"_ZNKSs4sizeEv", metadata !312, i32 709, metadata !548, i1 false, i1 false, i32 0, i32 0, null, i32 256, i1 false, null, null, i32 0, metadata !89, i32 709} ; [ DW_TAG_subprogram ]
!548 = metadata !{i32 786453, i32 0, metadata !"", i32 0, i32 0, i64 0, i64 0, i64 0, i32 0, null, metadata !549, i32 0, i32 0} ; [ DW_TAG_subroutine_type ]
!549 = metadata !{metadata !403, metadata !387}
!550 = metadata !{i32 786478, i32 0, metadata !308, metadata !"length", metadata !"length", metadata !"_ZNKSs6lengthEv", metadata !312, i32 715, metadata !548, i1 false, i1 false, i32 0, i32 0, null, i32 256, i1 false, null, null, i32 0, metadata !89, i32 715} ; [ DW_TAG_subprogram ]
!551 = metadata !{i32 786478, i32 0, metadata !308, metadata !"max_size", metadata !"max_size", metadata !"_ZNKSs8max_sizeEv", metadata !312, i32 720, metadata !548, i1 false, i1 false, i32 0, i32 0, null, i32 256, i1 false, null, null, i32 0, metadata !89, i32 720} ; [ DW_TAG_subprogram ]
!552 = metadata !{i32 786478, i32 0, metadata !308, metadata !"resize", metadata !"resize", metadata !"_ZNSs6resizeEmc", metadata !312, i32 734, metadata !553, i1 false, i1 false, i32 0, i32 0, null, i32 256, i1 false, null, null, i32 0, metadata !89, i32 734} ; [ DW_TAG_subprogram ]
!553 = metadata !{i32 786453, i32 0, metadata !"", i32 0, i32 0, i64 0, i64 0, i64 0, i32 0, null, metadata !554, i32 0, i32 0} ; [ DW_TAG_subroutine_type ]
!554 = metadata !{null, metadata !392, metadata !403, metadata !174}
!555 = metadata !{i32 786478, i32 0, metadata !308, metadata !"resize", metadata !"resize", metadata !"_ZNSs6resizeEm", metadata !312, i32 747, metadata !556, i1 false, i1 false, i32 0, i32 0, null, i32 256, i1 false, null, null, i32 0, metadata !89, i32 747} ; [ DW_TAG_subprogram ]
!556 = metadata !{i32 786453, i32 0, metadata !"", i32 0, i32 0, i64 0, i64 0, i64 0, i32 0, null, metadata !557, i32 0, i32 0} ; [ DW_TAG_subroutine_type ]
!557 = metadata !{null, metadata !392, metadata !403}
!558 = metadata !{i32 786478, i32 0, metadata !308, metadata !"capacity", metadata !"capacity", metadata !"_ZNKSs8capacityEv", metadata !312, i32 767, metadata !548, i1 false, i1 false, i32 0, i32 0, null, i32 256, i1 false, null, null, i32 0, metadata !89, i32 767} ; [ DW_TAG_subprogram ]
!559 = metadata !{i32 786478, i32 0, metadata !308, metadata !"reserve", metadata !"reserve", metadata !"_ZNSs7reserveEm", metadata !312, i32 788, metadata !556, i1 false, i1 false, i32 0, i32 0, null, i32 256, i1 false, null, null, i32 0, metadata !89, i32 788} ; [ DW_TAG_subprogram ]
!560 = metadata !{i32 786478, i32 0, metadata !308, metadata !"clear", metadata !"clear", metadata !"_ZNSs5clearEv", metadata !312, i32 794, metadata !450, i1 false, i1 false, i32 0, i32 0, null, i32 256, i1 false, null, null, i32 0, metadata !89, i32 794} ; [ DW_TAG_subprogram ]
!561 = metadata !{i32 786478, i32 0, metadata !308, metadata !"empty", metadata !"empty", metadata !"_ZNKSs5emptyEv", metadata !312, i32 802, metadata !562, i1 false, i1 false, i32 0, i32 0, null, i32 256, i1 false, null, null, i32 0, metadata !89, i32 802} ; [ DW_TAG_subprogram ]
!562 = metadata !{i32 786453, i32 0, metadata !"", i32 0, i32 0, i64 0, i64 0, i64 0, i32 0, null, metadata !563, i32 0, i32 0} ; [ DW_TAG_subroutine_type ]
!563 = metadata !{metadata !238, metadata !387}
!564 = metadata !{i32 786478, i32 0, metadata !308, metadata !"operator[]", metadata !"operator[]", metadata !"_ZNKSsixEm", metadata !312, i32 817, metadata !565, i1 false, i1 false, i32 0, i32 0, null, i32 256, i1 false, null, null, i32 0, metadata !89, i32 817} ; [ DW_TAG_subprogram ]
!565 = metadata !{i32 786453, i32 0, metadata !"", i32 0, i32 0, i64 0, i64 0, i64 0, i32 0, null, metadata !566, i32 0, i32 0} ; [ DW_TAG_subroutine_type ]
!566 = metadata !{metadata !567, metadata !387, metadata !403}
!567 = metadata !{i32 786454, metadata !308, metadata !"const_reference", metadata !309, i32 118, i64 0, i64 0, i64 0, i32 0, metadata !568} ; [ DW_TAG_typedef ]
!568 = metadata !{i32 786454, metadata !316, metadata !"const_reference", metadata !309, i32 100, i64 0, i64 0, i64 0, i32 0, metadata !346} ; [ DW_TAG_typedef ]
!569 = metadata !{i32 786478, i32 0, metadata !308, metadata !"operator[]", metadata !"operator[]", metadata !"_ZNSsixEm", metadata !312, i32 834, metadata !570, i1 false, i1 false, i32 0, i32 0, null, i32 256, i1 false, null, null, i32 0, metadata !89, i32 834} ; [ DW_TAG_subprogram ]
!570 = metadata !{i32 786453, i32 0, metadata !"", i32 0, i32 0, i64 0, i64 0, i64 0, i32 0, null, metadata !571, i32 0, i32 0} ; [ DW_TAG_subroutine_type ]
!571 = metadata !{metadata !572, metadata !392, metadata !403}
!572 = metadata !{i32 786454, metadata !308, metadata !"reference", metadata !309, i32 117, i64 0, i64 0, i64 0, i32 0, metadata !573} ; [ DW_TAG_typedef ]
!573 = metadata !{i32 786454, metadata !316, metadata !"reference", metadata !309, i32 99, i64 0, i64 0, i64 0, i32 0, metadata !340} ; [ DW_TAG_typedef ]
!574 = metadata !{i32 786478, i32 0, metadata !308, metadata !"at", metadata !"at", metadata !"_ZNKSs2atEm", metadata !312, i32 855, metadata !565, i1 false, i1 false, i32 0, i32 0, null, i32 256, i1 false, null, null, i32 0, metadata !89, i32 855} ; [ DW_TAG_subprogram ]
!575 = metadata !{i32 786478, i32 0, metadata !308, metadata !"at", metadata !"at", metadata !"_ZNSs2atEm", metadata !312, i32 908, metadata !570, i1 false, i1 false, i32 0, i32 0, null, i32 256, i1 false, null, null, i32 0, metadata !89, i32 908} ; [ DW_TAG_subprogram ]
!576 = metadata !{i32 786478, i32 0, metadata !308, metadata !"operator+=", metadata !"operator+=", metadata !"_ZNSspLERKSs", metadata !312, i32 923, metadata !518, i1 false, i1 false, i32 0, i32 0, null, i32 256, i1 false, null, null, i32 0, metadata !89, i32 923} ; [ DW_TAG_subprogram ]
!577 = metadata !{i32 786478, i32 0, metadata !308, metadata !"operator+=", metadata !"operator+=", metadata !"_ZNSspLEPKc", metadata !312, i32 932, metadata !522, i1 false, i1 false, i32 0, i32 0, null, i32 256, i1 false, null, null, i32 0, metadata !89, i32 932} ; [ DW_TAG_subprogram ]
!578 = metadata !{i32 786478, i32 0, metadata !308, metadata !"operator+=", metadata !"operator+=", metadata !"_ZNSspLEc", metadata !312, i32 941, metadata !525, i1 false, i1 false, i32 0, i32 0, null, i32 256, i1 false, null, null, i32 0, metadata !89, i32 941} ; [ DW_TAG_subprogram ]
!579 = metadata !{i32 786478, i32 0, metadata !308, metadata !"append", metadata !"append", metadata !"_ZNSs6appendERKSs", metadata !312, i32 964, metadata !518, i1 false, i1 false, i32 0, i32 0, null, i32 256, i1 false, null, null, i32 0, metadata !89, i32 964} ; [ DW_TAG_subprogram ]
!580 = metadata !{i32 786478, i32 0, metadata !308, metadata !"append", metadata !"append", metadata !"_ZNSs6appendERKSsmm", metadata !312, i32 979, metadata !581, i1 false, i1 false, i32 0, i32 0, null, i32 256, i1 false, null, null, i32 0, metadata !89, i32 979} ; [ DW_TAG_subprogram ]
!581 = metadata !{i32 786453, i32 0, metadata !"", i32 0, i32 0, i64 0, i64 0, i64 0, i32 0, null, metadata !582, i32 0, i32 0} ; [ DW_TAG_subroutine_type ]
!582 = metadata !{metadata !520, metadata !392, metadata !500, metadata !403, metadata !403}
!583 = metadata !{i32 786478, i32 0, metadata !308, metadata !"append", metadata !"append", metadata !"_ZNSs6appendEPKcm", metadata !312, i32 988, metadata !584, i1 false, i1 false, i32 0, i32 0, null, i32 256, i1 false, null, null, i32 0, metadata !89, i32 988} ; [ DW_TAG_subprogram ]
!584 = metadata !{i32 786453, i32 0, metadata !"", i32 0, i32 0, i64 0, i64 0, i64 0, i32 0, null, metadata !585, i32 0, i32 0} ; [ DW_TAG_subroutine_type ]
!585 = metadata !{metadata !520, metadata !392, metadata !172, metadata !403}
!586 = metadata !{i32 786478, i32 0, metadata !308, metadata !"append", metadata !"append", metadata !"_ZNSs6appendEPKc", metadata !312, i32 996, metadata !522, i1 false, i1 false, i32 0, i32 0, null, i32 256, i1 false, null, null, i32 0, metadata !89, i32 996} ; [ DW_TAG_subprogram ]
!587 = metadata !{i32 786478, i32 0, metadata !308, metadata !"append", metadata !"append", metadata !"_ZNSs6appendEmc", metadata !312, i32 1011, metadata !588, i1 false, i1 false, i32 0, i32 0, null, i32 256, i1 false, null, null, i32 0, metadata !89, i32 1011} ; [ DW_TAG_subprogram ]
!588 = metadata !{i32 786453, i32 0, metadata !"", i32 0, i32 0, i64 0, i64 0, i64 0, i32 0, null, metadata !589, i32 0, i32 0} ; [ DW_TAG_subroutine_type ]
!589 = metadata !{metadata !520, metadata !392, metadata !403, metadata !174}
!590 = metadata !{i32 786478, i32 0, metadata !308, metadata !"push_back", metadata !"push_back", metadata !"_ZNSs9push_backEc", metadata !312, i32 1042, metadata !591, i1 false, i1 false, i32 0, i32 0, null, i32 256, i1 false, null, null, i32 0, metadata !89, i32 1042} ; [ DW_TAG_subprogram ]
!591 = metadata !{i32 786453, i32 0, metadata !"", i32 0, i32 0, i64 0, i64 0, i64 0, i32 0, null, metadata !592, i32 0, i32 0} ; [ DW_TAG_subroutine_type ]
!592 = metadata !{null, metadata !392, metadata !174}
!593 = metadata !{i32 786478, i32 0, metadata !308, metadata !"assign", metadata !"assign", metadata !"_ZNSs6assignERKSs", metadata !312, i32 1057, metadata !518, i1 false, i1 false, i32 0, i32 0, null, i32 256, i1 false, null, null, i32 0, metadata !89, i32 1057} ; [ DW_TAG_subprogram ]
!594 = metadata !{i32 786478, i32 0, metadata !308, metadata !"assign", metadata !"assign", metadata !"_ZNSs6assignERKSsmm", metadata !312, i32 1089, metadata !581, i1 false, i1 false, i32 0, i32 0, null, i32 256, i1 false, null, null, i32 0, metadata !89, i32 1089} ; [ DW_TAG_subprogram ]
!595 = metadata !{i32 786478, i32 0, metadata !308, metadata !"assign", metadata !"assign", metadata !"_ZNSs6assignEPKcm", metadata !312, i32 1105, metadata !584, i1 false, i1 false, i32 0, i32 0, null, i32 256, i1 false, null, null, i32 0, metadata !89, i32 1105} ; [ DW_TAG_subprogram ]
!596 = metadata !{i32 786478, i32 0, metadata !308, metadata !"assign", metadata !"assign", metadata !"_ZNSs6assignEPKc", metadata !312, i32 1117, metadata !522, i1 false, i1 false, i32 0, i32 0, null, i32 256, i1 false, null, null, i32 0, metadata !89, i32 1117} ; [ DW_TAG_subprogram ]
!597 = metadata !{i32 786478, i32 0, metadata !308, metadata !"assign", metadata !"assign", metadata !"_ZNSs6assignEmc", metadata !312, i32 1133, metadata !588, i1 false, i1 false, i32 0, i32 0, null, i32 256, i1 false, null, null, i32 0, metadata !89, i32 1133} ; [ DW_TAG_subprogram ]
!598 = metadata !{i32 786478, i32 0, metadata !308, metadata !"insert", metadata !"insert", metadata !"_ZNSs6insertEN9__gnu_cxx17__normal_iteratorIPcSsEEmc", metadata !312, i32 1173, metadata !599, i1 false, i1 false, i32 0, i32 0, null, i32 256, i1 false, null, null, i32 0, metadata !89, i32 1173} ; [ DW_TAG_subprogram ]
!599 = metadata !{i32 786453, i32 0, metadata !"", i32 0, i32 0, i64 0, i64 0, i64 0, i32 0, null, metadata !600, i32 0, i32 0} ; [ DW_TAG_subroutine_type ]
!600 = metadata !{null, metadata !392, metadata !445, metadata !403, metadata !174}
!601 = metadata !{i32 786478, i32 0, metadata !308, metadata !"insert", metadata !"insert", metadata !"_ZNSs6insertEmRKSs", metadata !312, i32 1219, metadata !602, i1 false, i1 false, i32 0, i32 0, null, i32 256, i1 false, null, null, i32 0, metadata !89, i32 1219} ; [ DW_TAG_subprogram ]
!602 = metadata !{i32 786453, i32 0, metadata !"", i32 0, i32 0, i64 0, i64 0, i64 0, i32 0, null, metadata !603, i32 0, i32 0} ; [ DW_TAG_subroutine_type ]
!603 = metadata !{metadata !520, metadata !392, metadata !403, metadata !500}
!604 = metadata !{i32 786478, i32 0, metadata !308, metadata !"insert", metadata !"insert", metadata !"_ZNSs6insertEmRKSsmm", metadata !312, i32 1241, metadata !605, i1 false, i1 false, i32 0, i32 0, null, i32 256, i1 false, null, null, i32 0, metadata !89, i32 1241} ; [ DW_TAG_subprogram ]
!605 = metadata !{i32 786453, i32 0, metadata !"", i32 0, i32 0, i64 0, i64 0, i64 0, i32 0, null, metadata !606, i32 0, i32 0} ; [ DW_TAG_subroutine_type ]
!606 = metadata !{metadata !520, metadata !392, metadata !403, metadata !500, metadata !403, metadata !403}
!607 = metadata !{i32 786478, i32 0, metadata !308, metadata !"insert", metadata !"insert", metadata !"_ZNSs6insertEmPKcm", metadata !312, i32 1264, metadata !608, i1 false, i1 false, i32 0, i32 0, null, i32 256, i1 false, null, null, i32 0, metadata !89, i32 1264} ; [ DW_TAG_subprogram ]
!608 = metadata !{i32 786453, i32 0, metadata !"", i32 0, i32 0, i64 0, i64 0, i64 0, i32 0, null, metadata !609, i32 0, i32 0} ; [ DW_TAG_subroutine_type ]
!609 = metadata !{metadata !520, metadata !392, metadata !403, metadata !172, metadata !403}
!610 = metadata !{i32 786478, i32 0, metadata !308, metadata !"insert", metadata !"insert", metadata !"_ZNSs6insertEmPKc", metadata !312, i32 1282, metadata !611, i1 false, i1 false, i32 0, i32 0, null, i32 256, i1 false, null, null, i32 0, metadata !89, i32 1282} ; [ DW_TAG_subprogram ]
!611 = metadata !{i32 786453, i32 0, metadata !"", i32 0, i32 0, i64 0, i64 0, i64 0, i32 0, null, metadata !612, i32 0, i32 0} ; [ DW_TAG_subroutine_type ]
!612 = metadata !{metadata !520, metadata !392, metadata !403, metadata !172}
!613 = metadata !{i32 786478, i32 0, metadata !308, metadata !"insert", metadata !"insert", metadata !"_ZNSs6insertEmmc", metadata !312, i32 1305, metadata !614, i1 false, i1 false, i32 0, i32 0, null, i32 256, i1 false, null, null, i32 0, metadata !89, i32 1305} ; [ DW_TAG_subprogram ]
!614 = metadata !{i32 786453, i32 0, metadata !"", i32 0, i32 0, i64 0, i64 0, i64 0, i32 0, null, metadata !615, i32 0, i32 0} ; [ DW_TAG_subroutine_type ]
!615 = metadata !{metadata !520, metadata !392, metadata !403, metadata !403, metadata !174}
!616 = metadata !{i32 786478, i32 0, metadata !308, metadata !"insert", metadata !"insert", metadata !"_ZNSs6insertEN9__gnu_cxx17__normal_iteratorIPcSsEEc", metadata !312, i32 1322, metadata !617, i1 false, i1 false, i32 0, i32 0, null, i32 256, i1 false, null, null, i32 0, metadata !89, i32 1322} ; [ DW_TAG_subprogram ]
!617 = metadata !{i32 786453, i32 0, metadata !"", i32 0, i32 0, i64 0, i64 0, i64 0, i32 0, null, metadata !618, i32 0, i32 0} ; [ DW_TAG_subroutine_type ]
!618 = metadata !{metadata !445, metadata !392, metadata !445, metadata !174}
!619 = metadata !{i32 786478, i32 0, metadata !308, metadata !"erase", metadata !"erase", metadata !"_ZNSs5eraseEmm", metadata !312, i32 1346, metadata !620, i1 false, i1 false, i32 0, i32 0, null, i32 256, i1 false, null, null, i32 0, metadata !89, i32 1346} ; [ DW_TAG_subprogram ]
!620 = metadata !{i32 786453, i32 0, metadata !"", i32 0, i32 0, i64 0, i64 0, i64 0, i32 0, null, metadata !621, i32 0, i32 0} ; [ DW_TAG_subroutine_type ]
!621 = metadata !{metadata !520, metadata !392, metadata !403, metadata !403}
!622 = metadata !{i32 786478, i32 0, metadata !308, metadata !"erase", metadata !"erase", metadata !"_ZNSs5eraseEN9__gnu_cxx17__normal_iteratorIPcSsEE", metadata !312, i32 1362, metadata !623, i1 false, i1 false, i32 0, i32 0, null, i32 256, i1 false, null, null, i32 0, metadata !89, i32 1362} ; [ DW_TAG_subprogram ]
!623 = metadata !{i32 786453, i32 0, metadata !"", i32 0, i32 0, i64 0, i64 0, i64 0, i32 0, null, metadata !624, i32 0, i32 0} ; [ DW_TAG_subroutine_type ]
!624 = metadata !{metadata !445, metadata !392, metadata !445}
!625 = metadata !{i32 786478, i32 0, metadata !308, metadata !"erase", metadata !"erase", metadata !"_ZNSs5eraseEN9__gnu_cxx17__normal_iteratorIPcSsEES2_", metadata !312, i32 1382, metadata !626, i1 false, i1 false, i32 0, i32 0, null, i32 256, i1 false, null, null, i32 0, metadata !89, i32 1382} ; [ DW_TAG_subprogram ]
!626 = metadata !{i32 786453, i32 0, metadata !"", i32 0, i32 0, i64 0, i64 0, i64 0, i32 0, null, metadata !627, i32 0, i32 0} ; [ DW_TAG_subroutine_type ]
!627 = metadata !{metadata !445, metadata !392, metadata !445, metadata !445}
!628 = metadata !{i32 786478, i32 0, metadata !308, metadata !"replace", metadata !"replace", metadata !"_ZNSs7replaceEmmRKSs", metadata !312, i32 1401, metadata !629, i1 false, i1 false, i32 0, i32 0, null, i32 256, i1 false, null, null, i32 0, metadata !89, i32 1401} ; [ DW_TAG_subprogram ]
!629 = metadata !{i32 786453, i32 0, metadata !"", i32 0, i32 0, i64 0, i64 0, i64 0, i32 0, null, metadata !630, i32 0, i32 0} ; [ DW_TAG_subroutine_type ]
!630 = metadata !{metadata !520, metadata !392, metadata !403, metadata !403, metadata !500}
!631 = metadata !{i32 786478, i32 0, metadata !308, metadata !"replace", metadata !"replace", metadata !"_ZNSs7replaceEmmRKSsmm", metadata !312, i32 1423, metadata !632, i1 false, i1 false, i32 0, i32 0, null, i32 256, i1 false, null, null, i32 0, metadata !89, i32 1423} ; [ DW_TAG_subprogram ]
!632 = metadata !{i32 786453, i32 0, metadata !"", i32 0, i32 0, i64 0, i64 0, i64 0, i32 0, null, metadata !633, i32 0, i32 0} ; [ DW_TAG_subroutine_type ]
!633 = metadata !{metadata !520, metadata !392, metadata !403, metadata !403, metadata !500, metadata !403, metadata !403}
!634 = metadata !{i32 786478, i32 0, metadata !308, metadata !"replace", metadata !"replace", metadata !"_ZNSs7replaceEmmPKcm", metadata !312, i32 1447, metadata !635, i1 false, i1 false, i32 0, i32 0, null, i32 256, i1 false, null, null, i32 0, metadata !89, i32 1447} ; [ DW_TAG_subprogram ]
!635 = metadata !{i32 786453, i32 0, metadata !"", i32 0, i32 0, i64 0, i64 0, i64 0, i32 0, null, metadata !636, i32 0, i32 0} ; [ DW_TAG_subroutine_type ]
!636 = metadata !{metadata !520, metadata !392, metadata !403, metadata !403, metadata !172, metadata !403}
!637 = metadata !{i32 786478, i32 0, metadata !308, metadata !"replace", metadata !"replace", metadata !"_ZNSs7replaceEmmPKc", metadata !312, i32 1466, metadata !638, i1 false, i1 false, i32 0, i32 0, null, i32 256, i1 false, null, null, i32 0, metadata !89, i32 1466} ; [ DW_TAG_subprogram ]
!638 = metadata !{i32 786453, i32 0, metadata !"", i32 0, i32 0, i64 0, i64 0, i64 0, i32 0, null, metadata !639, i32 0, i32 0} ; [ DW_TAG_subroutine_type ]
!639 = metadata !{metadata !520, metadata !392, metadata !403, metadata !403, metadata !172}
!640 = metadata !{i32 786478, i32 0, metadata !308, metadata !"replace", metadata !"replace", metadata !"_ZNSs7replaceEmmmc", metadata !312, i32 1489, metadata !641, i1 false, i1 false, i32 0, i32 0, null, i32 256, i1 false, null, null, i32 0, metadata !89, i32 1489} ; [ DW_TAG_subprogram ]
!641 = metadata !{i32 786453, i32 0, metadata !"", i32 0, i32 0, i64 0, i64 0, i64 0, i32 0, null, metadata !642, i32 0, i32 0} ; [ DW_TAG_subroutine_type ]
!642 = metadata !{metadata !520, metadata !392, metadata !403, metadata !403, metadata !403, metadata !174}
!643 = metadata !{i32 786478, i32 0, metadata !308, metadata !"replace", metadata !"replace", metadata !"_ZNSs7replaceEN9__gnu_cxx17__normal_iteratorIPcSsEES2_RKSs", metadata !312, i32 1507, metadata !644, i1 false, i1 false, i32 0, i32 0, null, i32 256, i1 false, null, null, i32 0, metadata !89, i32 1507} ; [ DW_TAG_subprogram ]
!644 = metadata !{i32 786453, i32 0, metadata !"", i32 0, i32 0, i64 0, i64 0, i64 0, i32 0, null, metadata !645, i32 0, i32 0} ; [ DW_TAG_subroutine_type ]
!645 = metadata !{metadata !520, metadata !392, metadata !445, metadata !445, metadata !500}
!646 = metadata !{i32 786478, i32 0, metadata !308, metadata !"replace", metadata !"replace", metadata !"_ZNSs7replaceEN9__gnu_cxx17__normal_iteratorIPcSsEES2_PKcm", metadata !312, i32 1525, metadata !647, i1 false, i1 false, i32 0, i32 0, null, i32 256, i1 false, null, null, i32 0, metadata !89, i32 1525} ; [ DW_TAG_subprogram ]
!647 = metadata !{i32 786453, i32 0, metadata !"", i32 0, i32 0, i64 0, i64 0, i64 0, i32 0, null, metadata !648, i32 0, i32 0} ; [ DW_TAG_subroutine_type ]
!648 = metadata !{metadata !520, metadata !392, metadata !445, metadata !445, metadata !172, metadata !403}
!649 = metadata !{i32 786478, i32 0, metadata !308, metadata !"replace", metadata !"replace", metadata !"_ZNSs7replaceEN9__gnu_cxx17__normal_iteratorIPcSsEES2_PKc", metadata !312, i32 1546, metadata !650, i1 false, i1 false, i32 0, i32 0, null, i32 256, i1 false, null, null, i32 0, metadata !89, i32 1546} ; [ DW_TAG_subprogram ]
!650 = metadata !{i32 786453, i32 0, metadata !"", i32 0, i32 0, i64 0, i64 0, i64 0, i32 0, null, metadata !651, i32 0, i32 0} ; [ DW_TAG_subroutine_type ]
!651 = metadata !{metadata !520, metadata !392, metadata !445, metadata !445, metadata !172}
!652 = metadata !{i32 786478, i32 0, metadata !308, metadata !"replace", metadata !"replace", metadata !"_ZNSs7replaceEN9__gnu_cxx17__normal_iteratorIPcSsEES2_mc", metadata !312, i32 1567, metadata !653, i1 false, i1 false, i32 0, i32 0, null, i32 256, i1 false, null, null, i32 0, metadata !89, i32 1567} ; [ DW_TAG_subprogram ]
!653 = metadata !{i32 786453, i32 0, metadata !"", i32 0, i32 0, i64 0, i64 0, i64 0, i32 0, null, metadata !654, i32 0, i32 0} ; [ DW_TAG_subroutine_type ]
!654 = metadata !{metadata !520, metadata !392, metadata !445, metadata !445, metadata !403, metadata !174}
!655 = metadata !{i32 786478, i32 0, metadata !308, metadata !"replace", metadata !"replace", metadata !"_ZNSs7replaceEN9__gnu_cxx17__normal_iteratorIPcSsEES2_S1_S1_", metadata !312, i32 1603, metadata !656, i1 false, i1 false, i32 0, i32 0, null, i32 256, i1 false, null, null, i32 0, metadata !89, i32 1603} ; [ DW_TAG_subprogram ]
!656 = metadata !{i32 786453, i32 0, metadata !"", i32 0, i32 0, i64 0, i64 0, i64 0, i32 0, null, metadata !657, i32 0, i32 0} ; [ DW_TAG_subroutine_type ]
!657 = metadata !{metadata !520, metadata !392, metadata !445, metadata !445, metadata !213, metadata !213}
!658 = metadata !{i32 786478, i32 0, metadata !308, metadata !"replace", metadata !"replace", metadata !"_ZNSs7replaceEN9__gnu_cxx17__normal_iteratorIPcSsEES2_PKcS4_", metadata !312, i32 1613, metadata !659, i1 false, i1 false, i32 0, i32 0, null, i32 256, i1 false, null, null, i32 0, metadata !89, i32 1613} ; [ DW_TAG_subprogram ]
!659 = metadata !{i32 786453, i32 0, metadata !"", i32 0, i32 0, i64 0, i64 0, i64 0, i32 0, null, metadata !660, i32 0, i32 0} ; [ DW_TAG_subroutine_type ]
!660 = metadata !{metadata !520, metadata !392, metadata !445, metadata !445, metadata !172, metadata !172}
!661 = metadata !{i32 786478, i32 0, metadata !308, metadata !"replace", metadata !"replace", metadata !"_ZNSs7replaceEN9__gnu_cxx17__normal_iteratorIPcSsEES2_S2_S2_", metadata !312, i32 1624, metadata !662, i1 false, i1 false, i32 0, i32 0, null, i32 256, i1 false, null, null, i32 0, metadata !89, i32 1624} ; [ DW_TAG_subprogram ]
!662 = metadata !{i32 786453, i32 0, metadata !"", i32 0, i32 0, i64 0, i64 0, i64 0, i32 0, null, metadata !663, i32 0, i32 0} ; [ DW_TAG_subroutine_type ]
!663 = metadata !{metadata !520, metadata !392, metadata !445, metadata !445, metadata !445, metadata !445}
!664 = metadata !{i32 786478, i32 0, metadata !308, metadata !"replace", metadata !"replace", metadata !"_ZNSs7replaceEN9__gnu_cxx17__normal_iteratorIPcSsEES2_NS0_IPKcSsEES5_", metadata !312, i32 1634, metadata !665, i1 false, i1 false, i32 0, i32 0, null, i32 256, i1 false, null, null, i32 0, metadata !89, i32 1634} ; [ DW_TAG_subprogram ]
!665 = metadata !{i32 786453, i32 0, metadata !"", i32 0, i32 0, i64 0, i64 0, i64 0, i32 0, null, metadata !666, i32 0, i32 0} ; [ DW_TAG_subroutine_type ]
!666 = metadata !{metadata !520, metadata !392, metadata !445, metadata !445, metadata !477, metadata !477}
!667 = metadata !{i32 786478, i32 0, metadata !308, metadata !"_M_replace_aux", metadata !"_M_replace_aux", metadata !"_ZNSs14_M_replace_auxEmmmc", metadata !312, i32 1676, metadata !641, i1 false, i1 false, i32 0, i32 0, null, i32 257, i1 false, null, null, i32 0, metadata !89, i32 1676} ; [ DW_TAG_subprogram ]
!668 = metadata !{i32 786478, i32 0, metadata !308, metadata !"_M_replace_safe", metadata !"_M_replace_safe", metadata !"_ZNSs15_M_replace_safeEmmPKcm", metadata !312, i32 1680, metadata !635, i1 false, i1 false, i32 0, i32 0, null, i32 257, i1 false, null, null, i32 0, metadata !89, i32 1680} ; [ DW_TAG_subprogram ]
!669 = metadata !{i32 786478, i32 0, metadata !308, metadata !"_S_construct_aux_2", metadata !"_S_construct_aux_2", metadata !"_ZNSs18_S_construct_aux_2EmcRKSaIcE", metadata !312, i32 1704, metadata !670, i1 false, i1 false, i32 0, i32 0, null, i32 257, i1 false, null, null, i32 0, metadata !89, i32 1704} ; [ DW_TAG_subprogram ]
!670 = metadata !{i32 786453, i32 0, metadata !"", i32 0, i32 0, i64 0, i64 0, i64 0, i32 0, null, metadata !671, i32 0, i32 0} ; [ DW_TAG_subroutine_type ]
!671 = metadata !{metadata !213, metadata !403, metadata !174, metadata !374}
!672 = metadata !{i32 786478, i32 0, metadata !308, metadata !"_S_construct", metadata !"_S_construct", metadata !"_ZNSs12_S_constructEmcRKSaIcE", metadata !312, i32 1729, metadata !670, i1 false, i1 false, i32 0, i32 0, null, i32 257, i1 false, null, null, i32 0, metadata !89, i32 1729} ; [ DW_TAG_subprogram ]
!673 = metadata !{i32 786478, i32 0, metadata !308, metadata !"copy", metadata !"copy", metadata !"_ZNKSs4copyEPcmm", metadata !312, i32 1745, metadata !674, i1 false, i1 false, i32 0, i32 0, null, i32 256, i1 false, null, null, i32 0, metadata !89, i32 1745} ; [ DW_TAG_subprogram ]
!674 = metadata !{i32 786453, i32 0, metadata !"", i32 0, i32 0, i64 0, i64 0, i64 0, i32 0, null, metadata !675, i32 0, i32 0} ; [ DW_TAG_subroutine_type ]
!675 = metadata !{metadata !403, metadata !387, metadata !213, metadata !403, metadata !403}
!676 = metadata !{i32 786478, i32 0, metadata !308, metadata !"swap", metadata !"swap", metadata !"_ZNSs4swapERSs", metadata !312, i32 1755, metadata !677, i1 false, i1 false, i32 0, i32 0, null, i32 256, i1 false, null, null, i32 0, metadata !89, i32 1755} ; [ DW_TAG_subprogram ]
!677 = metadata !{i32 786453, i32 0, metadata !"", i32 0, i32 0, i64 0, i64 0, i64 0, i32 0, null, metadata !678, i32 0, i32 0} ; [ DW_TAG_subroutine_type ]
!678 = metadata !{null, metadata !392, metadata !520}
!679 = metadata !{i32 786478, i32 0, metadata !308, metadata !"c_str", metadata !"c_str", metadata !"_ZNKSs5c_strEv", metadata !312, i32 1765, metadata !680, i1 false, i1 false, i32 0, i32 0, null, i32 256, i1 false, null, null, i32 0, metadata !89, i32 1765} ; [ DW_TAG_subprogram ]
!680 = metadata !{i32 786453, i32 0, metadata !"", i32 0, i32 0, i64 0, i64 0, i64 0, i32 0, null, metadata !681, i32 0, i32 0} ; [ DW_TAG_subroutine_type ]
!681 = metadata !{metadata !172, metadata !387}
!682 = metadata !{i32 786478, i32 0, metadata !308, metadata !"data", metadata !"data", metadata !"_ZNKSs4dataEv", metadata !312, i32 1775, metadata !680, i1 false, i1 false, i32 0, i32 0, null, i32 256, i1 false, null, null, i32 0, metadata !89, i32 1775} ; [ DW_TAG_subprogram ]
!683 = metadata !{i32 786478, i32 0, metadata !308, metadata !"get_allocator", metadata !"get_allocator", metadata !"_ZNKSs13get_allocatorEv", metadata !312, i32 1782, metadata !684, i1 false, i1 false, i32 0, i32 0, null, i32 256, i1 false, null, null, i32 0, metadata !89, i32 1782} ; [ DW_TAG_subprogram ]
!684 = metadata !{i32 786453, i32 0, metadata !"", i32 0, i32 0, i64 0, i64 0, i64 0, i32 0, null, metadata !685, i32 0, i32 0} ; [ DW_TAG_subroutine_type ]
!685 = metadata !{metadata !686, metadata !387}
!686 = metadata !{i32 786454, metadata !308, metadata !"allocator_type", metadata !309, i32 114, i64 0, i64 0, i64 0, i32 0, metadata !316} ; [ DW_TAG_typedef ]
!687 = metadata !{i32 786478, i32 0, metadata !308, metadata !"find", metadata !"find", metadata !"_ZNKSs4findEPKcmm", metadata !312, i32 1797, metadata !688, i1 false, i1 false, i32 0, i32 0, null, i32 256, i1 false, null, null, i32 0, metadata !89, i32 1797} ; [ DW_TAG_subprogram ]
!688 = metadata !{i32 786453, i32 0, metadata !"", i32 0, i32 0, i64 0, i64 0, i64 0, i32 0, null, metadata !689, i32 0, i32 0} ; [ DW_TAG_subroutine_type ]
!689 = metadata !{metadata !403, metadata !387, metadata !172, metadata !403, metadata !403}
!690 = metadata !{i32 786478, i32 0, metadata !308, metadata !"find", metadata !"find", metadata !"_ZNKSs4findERKSsm", metadata !312, i32 1810, metadata !691, i1 false, i1 false, i32 0, i32 0, null, i32 256, i1 false, null, null, i32 0, metadata !89, i32 1810} ; [ DW_TAG_subprogram ]
!691 = metadata !{i32 786453, i32 0, metadata !"", i32 0, i32 0, i64 0, i64 0, i64 0, i32 0, null, metadata !692, i32 0, i32 0} ; [ DW_TAG_subroutine_type ]
!692 = metadata !{metadata !403, metadata !387, metadata !500, metadata !403}
!693 = metadata !{i32 786478, i32 0, metadata !308, metadata !"find", metadata !"find", metadata !"_ZNKSs4findEPKcm", metadata !312, i32 1824, metadata !694, i1 false, i1 false, i32 0, i32 0, null, i32 256, i1 false, null, null, i32 0, metadata !89, i32 1824} ; [ DW_TAG_subprogram ]
!694 = metadata !{i32 786453, i32 0, metadata !"", i32 0, i32 0, i64 0, i64 0, i64 0, i32 0, null, metadata !695, i32 0, i32 0} ; [ DW_TAG_subroutine_type ]
!695 = metadata !{metadata !403, metadata !387, metadata !172, metadata !403}
!696 = metadata !{i32 786478, i32 0, metadata !308, metadata !"find", metadata !"find", metadata !"_ZNKSs4findEcm", metadata !312, i32 1841, metadata !697, i1 false, i1 false, i32 0, i32 0, null, i32 256, i1 false, null, null, i32 0, metadata !89, i32 1841} ; [ DW_TAG_subprogram ]
!697 = metadata !{i32 786453, i32 0, metadata !"", i32 0, i32 0, i64 0, i64 0, i64 0, i32 0, null, metadata !698, i32 0, i32 0} ; [ DW_TAG_subroutine_type ]
!698 = metadata !{metadata !403, metadata !387, metadata !174, metadata !403}
!699 = metadata !{i32 786478, i32 0, metadata !308, metadata !"rfind", metadata !"rfind", metadata !"_ZNKSs5rfindERKSsm", metadata !312, i32 1854, metadata !691, i1 false, i1 false, i32 0, i32 0, null, i32 256, i1 false, null, null, i32 0, metadata !89, i32 1854} ; [ DW_TAG_subprogram ]
!700 = metadata !{i32 786478, i32 0, metadata !308, metadata !"rfind", metadata !"rfind", metadata !"_ZNKSs5rfindEPKcmm", metadata !312, i32 1869, metadata !688, i1 false, i1 false, i32 0, i32 0, null, i32 256, i1 false, null, null, i32 0, metadata !89, i32 1869} ; [ DW_TAG_subprogram ]
!701 = metadata !{i32 786478, i32 0, metadata !308, metadata !"rfind", metadata !"rfind", metadata !"_ZNKSs5rfindEPKcm", metadata !312, i32 1882, metadata !694, i1 false, i1 false, i32 0, i32 0, null, i32 256, i1 false, null, null, i32 0, metadata !89, i32 1882} ; [ DW_TAG_subprogram ]
!702 = metadata !{i32 786478, i32 0, metadata !308, metadata !"rfind", metadata !"rfind", metadata !"_ZNKSs5rfindEcm", metadata !312, i32 1899, metadata !697, i1 false, i1 false, i32 0, i32 0, null, i32 256, i1 false, null, null, i32 0, metadata !89, i32 1899} ; [ DW_TAG_subprogram ]
!703 = metadata !{i32 786478, i32 0, metadata !308, metadata !"find_first_of", metadata !"find_first_of", metadata !"_ZNKSs13find_first_ofERKSsm", metadata !312, i32 1912, metadata !691, i1 false, i1 false, i32 0, i32 0, null, i32 256, i1 false, null, null, i32 0, metadata !89, i32 1912} ; [ DW_TAG_subprogram ]
!704 = metadata !{i32 786478, i32 0, metadata !308, metadata !"find_first_of", metadata !"find_first_of", metadata !"_ZNKSs13find_first_ofEPKcmm", metadata !312, i32 1927, metadata !688, i1 false, i1 false, i32 0, i32 0, null, i32 256, i1 false, null, null, i32 0, metadata !89, i32 1927} ; [ DW_TAG_subprogram ]
!705 = metadata !{i32 786478, i32 0, metadata !308, metadata !"find_first_of", metadata !"find_first_of", metadata !"_ZNKSs13find_first_ofEPKcm", metadata !312, i32 1940, metadata !694, i1 false, i1 false, i32 0, i32 0, null, i32 256, i1 false, null, null, i32 0, metadata !89, i32 1940} ; [ DW_TAG_subprogram ]
!706 = metadata !{i32 786478, i32 0, metadata !308, metadata !"find_first_of", metadata !"find_first_of", metadata !"_ZNKSs13find_first_ofEcm", metadata !312, i32 1959, metadata !697, i1 false, i1 false, i32 0, i32 0, null, i32 256, i1 false, null, null, i32 0, metadata !89, i32 1959} ; [ DW_TAG_subprogram ]
