; ModuleID = '/home/common/FPGA/deeplib/deeplib/solution1/.autopilot/db/a.o.3.bc'
target datalayout = "e-p:64:64:64-i1:8:8-i8:8:8-i16:16:16-i32:32:32-i64:64:64-f32:32:32-f64:64:64-v64:64:64-v128:128:128-a0:0:64-s0:64:64-f80:128:128-n8:16:32:64-S128"
target triple = "x86_64-unknown-linux-gnu"

@llvm_global_ctors_1 = appending global [1 x void ()*] [void ()* @_GLOBAL__I_a] ; [#uses=0 type=[1 x void ()*]*]
@llvm_global_ctors_0 = appending global [1 x i32] [i32 65535] ; [#uses=0 type=[1 x i32]*]
@cnn_str = internal unnamed_addr constant [4 x i8] c"cnn\00" ; [#uses=1 type=[4 x i8]*]
@p_str3 = private unnamed_addr constant [5 x i8] c"both\00", align 1 ; [#uses=4 type=[5 x i8]*]
@p_str2 = private unnamed_addr constant [5 x i8] c"axis\00", align 1 ; [#uses=4 type=[5 x i8]*]
@p_str1 = private unnamed_addr constant [1 x i8] zeroinitializer, align 1 ; [#uses=26 type=[1 x i8]*]
@p_str = private unnamed_addr constant [13 x i8] c"ap_ctrl_none\00", align 1 ; [#uses=1 type=[13 x i8]*]

; [#uses=1]
declare i79 @llvm.part.select.i79(i79, i32, i32) nounwind readnone

; [#uses=1]
declare i32 @llvm.part.select.i32(i32, i32, i32) nounwind readnone

; [#uses=142]
declare void @llvm.dbg.value(metadata, i64, metadata) nounwind readnone

; [#uses=6]
declare void @llvm.dbg.declare(metadata, metadata) nounwind readnone

; [#uses=0]
define void @cnn(i32* %in_data_data_V, i4* %in_data_keep_V, i4* %in_data_strb_V, i1* %in_data_user_V, i1* %in_data_last_V, i1* %in_data_id_V, i1* %in_data_dest_V, i32* %out_data_data_V, i4* %out_data_keep_V, i4* %out_data_strb_V, i1* %out_data_user_V, i1* %out_data_last_V, i1* %out_data_id_V, i1* %out_data_dest_V) {
  %Precision_1 = alloca float                     ; [#uses=2 type=float*]
  call void @llvm.dbg.declare(metadata !{float* %Precision_1}, metadata !39) ; [debug variable = Precision]
  %Relu_Activation_1 = alloca i32                 ; [#uses=2 type=i32*]
  call void @llvm.dbg.declare(metadata !{i32* %Relu_Activation_1}, metadata !1651) ; [debug variable = Relu_Activation]
  call void (...)* @_ssdm_op_SpecBitsMap(i32* %in_data_data_V), !map !1652
  call void (...)* @_ssdm_op_SpecBitsMap(i4* %in_data_keep_V), !map !1656
  call void (...)* @_ssdm_op_SpecBitsMap(i4* %in_data_strb_V), !map !1660
  call void (...)* @_ssdm_op_SpecBitsMap(i1* %in_data_user_V), !map !1664
  call void (...)* @_ssdm_op_SpecBitsMap(i1* %in_data_last_V), !map !1668
  call void (...)* @_ssdm_op_SpecBitsMap(i1* %in_data_id_V), !map !1672
  call void (...)* @_ssdm_op_SpecBitsMap(i1* %in_data_dest_V), !map !1676
  call void (...)* @_ssdm_op_SpecBitsMap(i32* %out_data_data_V), !map !1680
  call void (...)* @_ssdm_op_SpecBitsMap(i4* %out_data_keep_V), !map !1684
  call void (...)* @_ssdm_op_SpecBitsMap(i4* %out_data_strb_V), !map !1688
  call void (...)* @_ssdm_op_SpecBitsMap(i1* %out_data_user_V), !map !1692
  call void (...)* @_ssdm_op_SpecBitsMap(i1* %out_data_last_V), !map !1696
  call void (...)* @_ssdm_op_SpecBitsMap(i1* %out_data_id_V), !map !1700
  call void (...)* @_ssdm_op_SpecBitsMap(i1* %out_data_dest_V), !map !1704
  call void (...)* @_ssdm_op_SpecTopModule([4 x i8]* @cnn_str) nounwind
  %Input = alloca [6000 x float], align 16        ; [#uses=2 type=[6000 x float]*]
  %Weight = alloca [5000 x float], align 16       ; [#uses=2 type=[5000 x float]*]
  %Bias = alloca [1000 x float], align 16         ; [#uses=2 type=[1000 x float]*]
  %Parameters = alloca [17 x i32], align 16       ; [#uses=16 type=[17 x i32]*]
  call void @llvm.dbg.value(metadata !{i32* %in_data_data_V}, i64 0, metadata !1708), !dbg !1719 ; [debug line = 32:20] [debug variable = in_data.data.V]
  call void @llvm.dbg.value(metadata !{i4* %in_data_keep_V}, i64 0, metadata !1720), !dbg !1719 ; [debug line = 32:20] [debug variable = in_data.keep.V]
  call void @llvm.dbg.value(metadata !{i4* %in_data_strb_V}, i64 0, metadata !1730), !dbg !1719 ; [debug line = 32:20] [debug variable = in_data.strb.V]
  call void @llvm.dbg.value(metadata !{i1* %in_data_user_V}, i64 0, metadata !1731), !dbg !1719 ; [debug line = 32:20] [debug variable = in_data.user.V]
  call void @llvm.dbg.value(metadata !{i1* %in_data_last_V}, i64 0, metadata !1741), !dbg !1719 ; [debug line = 32:20] [debug variable = in_data.last.V]
  call void @llvm.dbg.value(metadata !{i1* %in_data_id_V}, i64 0, metadata !1742), !dbg !1719 ; [debug line = 32:20] [debug variable = in_data.id.V]
  call void @llvm.dbg.value(metadata !{i1* %in_data_dest_V}, i64 0, metadata !1743), !dbg !1719 ; [debug line = 32:20] [debug variable = in_data.dest.V]
  call void @llvm.dbg.value(metadata !{i32* %out_data_data_V}, i64 0, metadata !1744), !dbg !1746 ; [debug line = 32:38] [debug variable = out_data.data.V]
  call void @llvm.dbg.value(metadata !{i4* %out_data_keep_V}, i64 0, metadata !1747), !dbg !1746 ; [debug line = 32:38] [debug variable = out_data.keep.V]
  call void @llvm.dbg.value(metadata !{i4* %out_data_strb_V}, i64 0, metadata !1748), !dbg !1746 ; [debug line = 32:38] [debug variable = out_data.strb.V]
  call void @llvm.dbg.value(metadata !{i1* %out_data_user_V}, i64 0, metadata !1749), !dbg !1746 ; [debug line = 32:38] [debug variable = out_data.user.V]
  call void @llvm.dbg.value(metadata !{i1* %out_data_last_V}, i64 0, metadata !1750), !dbg !1746 ; [debug line = 32:38] [debug variable = out_data.last.V]
  call void @llvm.dbg.value(metadata !{i1* %out_data_id_V}, i64 0, metadata !1751), !dbg !1746 ; [debug line = 32:38] [debug variable = out_data.id.V]
  call void @llvm.dbg.value(metadata !{i1* %out_data_dest_V}, i64 0, metadata !1752), !dbg !1746 ; [debug line = 32:38] [debug variable = out_data.dest.V]
  call void (...)* @_ssdm_op_SpecInterface(i32 0, [13 x i8]* @p_str, i32 0, i32 0, [1 x i8]* @p_str1, i32 0, i32 0, [1 x i8]* @p_str1, [1 x i8]* @p_str1, [1 x i8]* @p_str1, i32 0, i32 0, i32 0, i32 0, [1 x i8]* @p_str1, [1 x i8]* @p_str1) nounwind, !dbg !1753 ; [debug line = 34:1]
  call void (...)* @_ssdm_op_SpecInterface(i32* %in_data_data_V, i4* %in_data_keep_V, i4* %in_data_strb_V, i1* %in_data_user_V, i1* %in_data_last_V, i1* %in_data_id_V, i1* %in_data_dest_V, [5 x i8]* @p_str2, i32 1, i32 1, [5 x i8]* @p_str3, i32 0, i32 0, [1 x i8]* @p_str1, [1 x i8]* @p_str1, [1 x i8]* @p_str1, i32 0, i32 0, i32 0, i32 0, [1 x i8]* @p_str1, [1 x i8]* @p_str1) nounwind, !dbg !1754 ; [debug line = 35:1]
  call void (...)* @_ssdm_op_SpecInterface(i32* %out_data_data_V, i4* %out_data_keep_V, i4* %out_data_strb_V, i1* %out_data_user_V, i1* %out_data_last_V, i1* %out_data_id_V, i1* %out_data_dest_V, [5 x i8]* @p_str2, i32 1, i32 1, [5 x i8]* @p_str3, i32 0, i32 0, [1 x i8]* @p_str1, [1 x i8]* @p_str1, [1 x i8]* @p_str1, i32 0, i32 0, i32 0, i32 0, [1 x i8]* @p_str1, [1 x i8]* @p_str1) nounwind, !dbg !1755 ; [debug line = 36:1]
  %Parameters_addr = getelementptr inbounds [17 x i32]* %Parameters, i64 0, i64 0, !dbg !1756 ; [#uses=1 type=i32*] [debug line = 56:2]
  %Parameters_addr_1 = getelementptr inbounds [17 x i32]* %Parameters, i64 0, i64 13, !dbg !1757 ; [#uses=1 type=i32*] [debug line = 58:3]
  %Parameters_addr_2 = getelementptr inbounds [17 x i32]* %Parameters, i64 0, i64 15, !dbg !1759 ; [#uses=1 type=i32*] [debug line = 59:3]
  %Parameters_addr_3 = getelementptr inbounds [17 x i32]* %Parameters, i64 0, i64 16, !dbg !1760 ; [#uses=1 type=i32*] [debug line = 60:3]
  %Parameters_addr_4 = getelementptr inbounds [17 x i32]* %Parameters, i64 0, i64 14, !dbg !1761 ; [#uses=1 type=i32*] [debug line = 62:3]
  %Parameters_addr_5 = getelementptr inbounds [17 x i32]* %Parameters, i64 0, i64 12, !dbg !1762 ; [#uses=2 type=i32*] [debug line = 74:3]
  %Parameters_addr_6 = getelementptr inbounds [17 x i32]* %Parameters, i64 0, i64 5, !dbg !1763 ; [#uses=3 type=i32*] [debug line = 76:18]
  %Parameters_addr_7 = getelementptr inbounds [17 x i32]* %Parameters, i64 0, i64 6, !dbg !1766 ; [#uses=2 type=i32*] [debug line = 85:17]
  %Parameters_addr_8 = getelementptr inbounds [17 x i32]* %Parameters, i64 0, i64 7, !dbg !1766 ; [#uses=2 type=i32*] [debug line = 85:17]
  %Parameters_addr_9 = getelementptr inbounds [17 x i32]* %Parameters, i64 0, i64 8, !dbg !1766 ; [#uses=2 type=i32*] [debug line = 85:17]
  %Parameters_addr_10 = getelementptr inbounds [17 x i32]* %Parameters, i64 0, i64 1, !dbg !1768 ; [#uses=1 type=i32*] [debug line = 66:17]
  %Parameters_addr_11 = getelementptr inbounds [17 x i32]* %Parameters, i64 0, i64 3, !dbg !1771 ; [#uses=1 type=i32*] [debug line = 94:3]
  %Parameters_addr_12 = getelementptr inbounds [17 x i32]* %Parameters, i64 0, i64 9, !dbg !1771 ; [#uses=1 type=i32*] [debug line = 94:3]
  %Parameters_addr_13 = getelementptr inbounds [17 x i32]* %Parameters, i64 0, i64 4, !dbg !1772 ; [#uses=1 type=i32*] [debug line = 95:3]
  %Parameters_addr_14 = getelementptr inbounds [17 x i32]* %Parameters, i64 0, i64 10, !dbg !1772 ; [#uses=1 type=i32*] [debug line = 95:3]
  br label %.loopexit, !dbg !1773                 ; [debug line = 38:1]

.loopexit.loopexit:                               ; preds = %.loopexit4
  br label %.loopexit

.loopexit:                                        ; preds = %.loopexit.loopexit, %0
  %loop_begin = call i32 (...)* @_ssdm_op_SpecLoopBegin() nounwind ; [#uses=0 type=i32]
  call void @llvm.dbg.declare(metadata !{[6000 x float]* %Input}, metadata !1774), !dbg !1778 ; [debug line = 40:8] [debug variable = Input]
  call void @llvm.dbg.declare(metadata !{[5000 x float]* %Weight}, metadata !1779), !dbg !1783 ; [debug line = 40:20] [debug variable = Weight]
  call void @llvm.dbg.declare(metadata !{[1000 x float]* %Bias}, metadata !1784), !dbg !1788 ; [debug line = 40:33] [debug variable = Bias]
  call void @llvm.dbg.declare(metadata !{[17 x i32]* %Parameters}, metadata !1789), !dbg !1793 ; [debug line = 42:37] [debug variable = Parameters]
  br label %1, !dbg !1794                         ; [debug line = 45:15]

; <label>:1                                       ; preds = %2, %.loopexit
  %idx = phi i5 [ 0, %.loopexit ], [ %idx_1, %2 ] ; [#uses=3 type=i5]
  %exitcond = icmp eq i5 %idx, -15, !dbg !1794    ; [#uses=1 type=i1] [debug line = 45:15]
  %empty = call i32 (...)* @_ssdm_op_SpecLoopTripCount(i64 17, i64 17, i64 17) ; [#uses=0 type=i32]
  %idx_1 = add i5 %idx, 1, !dbg !1796             ; [#uses=1 type=i5] [debug line = 45:28]
  br i1 %exitcond, label %3, label %2, !dbg !1794 ; [debug line = 45:15]

; <label>:2                                       ; preds = %1
  %tmp_8 = call fastcc i32 @Axi_Transfer(i32* %in_data_data_V, i4* %in_data_keep_V, i4* %in_data_strb_V, i1* %in_data_user_V, i1* %in_data_last_V, i1* %in_data_id_V, i1* %in_data_dest_V, i32* %out_data_data_V, i4* %out_data_keep_V, i4* %out_data_strb_V, i1* %out_data_user_V, i1* %out_data_last_V, i1* %out_data_id_V, i1* %out_data_dest_V, i32 0, i1 true), !dbg !1797 ; [#uses=1 type=i32] [debug line = 48:20]
  %tmp_9 = zext i5 %idx to i64, !dbg !1797        ; [#uses=1 type=i64] [debug line = 48:20]
  %Parameters_addr_15 = getelementptr inbounds [17 x i32]* %Parameters, i64 0, i64 %tmp_9, !dbg !1797 ; [#uses=1 type=i32*] [debug line = 48:20]
  store i32 %tmp_8, i32* %Parameters_addr_15, align 4, !dbg !1797 ; [debug line = 48:20]
  call void @llvm.dbg.value(metadata !{i5 %idx_1}, i64 0, metadata !1799), !dbg !1796 ; [debug line = 45:28] [debug variable = idx]
  br label %1, !dbg !1796                         ; [debug line = 45:28]

; <label>:3                                       ; preds = %1
  %Parameters_load = load i32* %Parameters_addr, align 16, !dbg !1756 ; [#uses=1 type=i32] [debug line = 56:2]
  %tmp_s = icmp eq i32 %Parameters_load, 0, !dbg !1756 ; [#uses=1 type=i1] [debug line = 56:2]
  br i1 %tmp_s, label %4, label %.loopexit3, !dbg !1756 ; [debug line = 56:2]

; <label>:4                                       ; preds = %3
  %Relu_Activation = load i32* %Parameters_addr_1, align 4, !dbg !1757 ; [#uses=1 type=i32] [debug line = 58:3]
  call void @llvm.dbg.value(metadata !{i32 %Relu_Activation}, i64 0, metadata !1651), !dbg !1757 ; [debug line = 58:3] [debug variable = Relu_Activation]
  %Load_Input = load i32* %Parameters_addr_2, align 4, !dbg !1759 ; [#uses=1 type=i32] [debug line = 59:3]
  call void @llvm.dbg.value(metadata !{i32 %Load_Input}, i64 0, metadata !1800), !dbg !1759 ; [debug line = 59:3] [debug variable = Load_Input]
  %Load_Weight = load i32* %Parameters_addr_3, align 16, !dbg !1760 ; [#uses=1 type=i32] [debug line = 60:3]
  call void @llvm.dbg.value(metadata !{i32 %Load_Weight}, i64 0, metadata !1801), !dbg !1760 ; [debug line = 60:3] [debug variable = Load_Weight]
  %Parameters_load_4 = load i32* %Parameters_addr_4, align 8, !dbg !1761 ; [#uses=1 type=i32] [debug line = 62:3]
  %Precision = sitofp i32 %Parameters_load_4 to float, !dbg !1761 ; [#uses=4 type=float] [debug line = 62:3]
  call void @llvm.dbg.value(metadata !{float %Precision}, i64 0, metadata !39), !dbg !1761 ; [debug line = 62:3] [debug variable = Precision]
  %tmp_1 = icmp eq i32 %Load_Input, 1, !dbg !1802 ; [#uses=1 type=i1] [debug line = 64:3]
  br i1 %tmp_1, label %.preheader6.preheader, label %.loopexit7, !dbg !1802 ; [debug line = 64:3]

.preheader6.preheader:                            ; preds = %4
  %Parameters_load_5 = load i32* %Parameters_addr_10, align 4, !dbg !1768 ; [#uses=1 type=i32] [debug line = 66:17]
  br label %.preheader6, !dbg !1768               ; [debug line = 66:17]

.preheader6:                                      ; preds = %5, %.preheader6.preheader
  %idx1 = phi i31 [ %idx_2, %5 ], [ 0, %.preheader6.preheader ] ; [#uses=3 type=i31]
  %idx1_cast = zext i31 %idx1 to i32, !dbg !1768  ; [#uses=1 type=i32] [debug line = 66:17]
  %tmp_2 = icmp slt i32 %idx1_cast, %Parameters_load_5, !dbg !1768 ; [#uses=1 type=i1] [debug line = 66:17]
  %idx_2 = add i31 %idx1, 1, !dbg !1803           ; [#uses=1 type=i31] [debug line = 66:37]
  br i1 %tmp_2, label %5, label %.loopexit7.loopexit, !dbg !1768 ; [debug line = 66:17]

; <label>:5                                       ; preds = %.preheader6
  %tmp_3 = call fastcc i32 @Axi_Transfer(i32* %in_data_data_V, i4* %in_data_keep_V, i4* %in_data_strb_V, i1* %in_data_user_V, i1* %in_data_last_V, i1* %in_data_id_V, i1* %in_data_dest_V, i32* %out_data_data_V, i4* %out_data_keep_V, i4* %out_data_strb_V, i1* %out_data_user_V, i1* %out_data_last_V, i1* %out_data_id_V, i1* %out_data_dest_V, i32 1, i1 false), !dbg !1804 ; [#uses=1 type=i32] [debug line = 68:15]
  %Temproray = sitofp i32 %tmp_3 to float, !dbg !1804 ; [#uses=1 type=float] [debug line = 68:15]
  call void @llvm.dbg.value(metadata !{float %Temproray}, i64 0, metadata !1806), !dbg !1804 ; [debug line = 68:15] [debug variable = Temproray]
  %tmp_4 = fdiv float %Temproray, %Precision, !dbg !1807 ; [#uses=1 type=float] [debug line = 69:4]
  %tmp_5 = zext i31 %idx1 to i64, !dbg !1807      ; [#uses=1 type=i64] [debug line = 69:4]
  %Input_addr = getelementptr inbounds [6000 x float]* %Input, i64 0, i64 %tmp_5, !dbg !1807 ; [#uses=1 type=float*] [debug line = 69:4]
  store float %tmp_4, float* %Input_addr, align 4, !dbg !1807 ; [debug line = 69:4]
  call void @llvm.dbg.value(metadata !{i31 %idx_2}, i64 0, metadata !1808), !dbg !1803 ; [debug line = 66:37] [debug variable = idx]
  br label %.preheader6, !dbg !1803               ; [debug line = 66:37]

.loopexit7.loopexit:                              ; preds = %.preheader6
  br label %.loopexit7

.loopexit7:                                       ; preds = %.loopexit7.loopexit, %4
  %tmp_6 = icmp eq i32 %Load_Weight, 1, !dbg !1809 ; [#uses=1 type=i1] [debug line = 72:3]
  br i1 %tmp_6, label %6, label %.loopexit7._crit_edge, !dbg !1809 ; [debug line = 72:3]

; <label>:6                                       ; preds = %.loopexit7
  %Parameters_load_6 = load i32* %Parameters_addr_5, align 16, !dbg !1762 ; [#uses=1 type=i32] [debug line = 74:3]
  %tmp_7 = icmp eq i32 %Parameters_load_6, 1, !dbg !1762 ; [#uses=1 type=i1] [debug line = 74:3]
  br i1 %tmp_7, label %.preheader4.preheader, label %.loopexit5, !dbg !1762 ; [debug line = 74:3]

.preheader4.preheader:                            ; preds = %6
  %Parameters_load_7 = load i32* %Parameters_addr_6, align 4, !dbg !1763 ; [#uses=1 type=i32] [debug line = 76:18]
  br label %.preheader4, !dbg !1763               ; [debug line = 76:18]

.preheader4:                                      ; preds = %7, %.preheader4.preheader
  %idx2 = phi i31 [ %idx_3, %7 ], [ 0, %.preheader4.preheader ] ; [#uses=3 type=i31]
  %idx2_cast = zext i31 %idx2 to i32, !dbg !1763  ; [#uses=1 type=i32] [debug line = 76:18]
  %tmp_10 = icmp slt i32 %idx2_cast, %Parameters_load_7, !dbg !1763 ; [#uses=1 type=i1] [debug line = 76:18]
  %idx_3 = add i31 %idx2, 1, !dbg !1810           ; [#uses=1 type=i31] [debug line = 76:38]
  br i1 %tmp_10, label %7, label %.loopexit5.loopexit, !dbg !1763 ; [debug line = 76:18]

; <label>:7                                       ; preds = %.preheader4
  %tmp_11 = call fastcc i32 @Axi_Transfer(i32* %in_data_data_V, i4* %in_data_keep_V, i4* %in_data_strb_V, i1* %in_data_user_V, i1* %in_data_last_V, i1* %in_data_id_V, i1* %in_data_dest_V, i32* %out_data_data_V, i4* %out_data_keep_V, i4* %out_data_strb_V, i1* %out_data_user_V, i1* %out_data_last_V, i1* %out_data_id_V, i1* %out_data_dest_V, i32 2, i1 false), !dbg !1811 ; [#uses=1 type=i32] [debug line = 79:16]
  %Temproray_1 = sitofp i32 %tmp_11 to float, !dbg !1811 ; [#uses=1 type=float] [debug line = 79:16]
  call void @llvm.dbg.value(metadata !{float %Temproray_1}, i64 0, metadata !1806), !dbg !1811 ; [debug line = 79:16] [debug variable = Temproray]
  %tmp_12 = fdiv float %Temproray_1, %Precision, !dbg !1813 ; [#uses=1 type=float] [debug line = 80:5]
  %tmp_13 = zext i31 %idx2 to i64, !dbg !1813     ; [#uses=1 type=i64] [debug line = 80:5]
  %Bias_addr = getelementptr inbounds [1000 x float]* %Bias, i64 0, i64 %tmp_13, !dbg !1813 ; [#uses=1 type=float*] [debug line = 80:5]
  store float %tmp_12, float* %Bias_addr, align 4, !dbg !1813 ; [debug line = 80:5]
  call void @llvm.dbg.value(metadata !{i31 %idx_3}, i64 0, metadata !1814), !dbg !1810 ; [debug line = 76:38] [debug variable = idx]
  br label %.preheader4, !dbg !1810               ; [debug line = 76:38]

.loopexit5.loopexit:                              ; preds = %.preheader4
  br label %.loopexit5

.loopexit5:                                       ; preds = %.loopexit5.loopexit, %6
  br label %.loopexit7._crit_edge, !dbg !1815     ; [debug line = 82:3]

.loopexit7._crit_edge:                            ; preds = %.loopexit5, %.loopexit7
  %Parameters_load_8 = load i32* %Parameters_addr_6, align 4, !dbg !1766 ; [#uses=1 type=i32] [debug line = 85:17]
  %Parameters_load_9 = load i32* %Parameters_addr_7, align 8, !dbg !1766 ; [#uses=1 type=i32] [debug line = 85:17]
  %Parameters_load_10 = load i32* %Parameters_addr_8, align 4, !dbg !1766 ; [#uses=1 type=i32] [debug line = 85:17]
  %Parameters_load_11 = load i32* %Parameters_addr_9, align 16, !dbg !1766 ; [#uses=1 type=i32] [debug line = 85:17]
  %tmp1 = mul i32 %Parameters_load_9, %Parameters_load_8, !dbg !1766 ; [#uses=1 type=i32] [debug line = 85:17]
  %tmp2 = mul i32 %Parameters_load_10, %Parameters_load_11, !dbg !1766 ; [#uses=1 type=i32] [debug line = 85:17]
  %tmp_14 = mul i32 %tmp2, %tmp1, !dbg !1766      ; [#uses=1 type=i32] [debug line = 85:17]
  br label %8, !dbg !1766                         ; [debug line = 85:17]

; <label>:8                                       ; preds = %9, %.loopexit7._crit_edge
  %idx3 = phi i31 [ 0, %.loopexit7._crit_edge ], [ %idx_4, %9 ] ; [#uses=3 type=i31]
  %idx3_cast = zext i31 %idx3 to i32, !dbg !1766  ; [#uses=1 type=i32] [debug line = 85:17]
  %tmp_15 = icmp slt i32 %idx3_cast, %tmp_14, !dbg !1766 ; [#uses=1 type=i1] [debug line = 85:17]
  %idx_4 = add i31 %idx3, 1, !dbg !1816           ; [#uses=1 type=i31] [debug line = 85:81]
  br i1 %tmp_15, label %9, label %.loopexit3.loopexit, !dbg !1766 ; [debug line = 85:17]

; <label>:9                                       ; preds = %8
  %tmp_16 = call fastcc i32 @Axi_Transfer(i32* %in_data_data_V, i4* %in_data_keep_V, i4* %in_data_strb_V, i1* %in_data_user_V, i1* %in_data_last_V, i1* %in_data_id_V, i1* %in_data_dest_V, i32* %out_data_data_V, i4* %out_data_keep_V, i4* %out_data_strb_V, i1* %out_data_user_V, i1* %out_data_last_V, i1* %out_data_id_V, i1* %out_data_dest_V, i32 3, i1 false), !dbg !1817 ; [#uses=1 type=i32] [debug line = 88:15]
  %Temproray_2 = sitofp i32 %tmp_16 to float, !dbg !1817 ; [#uses=1 type=float] [debug line = 88:15]
  call void @llvm.dbg.value(metadata !{float %Temproray_2}, i64 0, metadata !1806), !dbg !1817 ; [debug line = 88:15] [debug variable = Temproray]
  %tmp_17 = fdiv float %Temproray_2, %Precision, !dbg !1819 ; [#uses=1 type=float] [debug line = 89:4]
  %tmp_18 = zext i31 %idx3 to i64, !dbg !1819     ; [#uses=1 type=i64] [debug line = 89:4]
  %Weight_addr = getelementptr inbounds [5000 x float]* %Weight, i64 0, i64 %tmp_18, !dbg !1819 ; [#uses=1 type=float*] [debug line = 89:4]
  store float %tmp_17, float* %Weight_addr, align 4, !dbg !1819 ; [debug line = 89:4]
  call void @llvm.dbg.value(metadata !{i31 %idx_4}, i64 0, metadata !1820), !dbg !1816 ; [debug line = 85:81] [debug variable = idx]
  br label %8, !dbg !1816                         ; [debug line = 85:81]

.loopexit3.loopexit:                              ; preds = %8
  store i32 %Relu_Activation, i32* %Relu_Activation_1, !dbg !1757 ; [debug line = 58:3]
  store float %Precision, float* %Precision_1, !dbg !1761 ; [debug line = 62:3]
  br label %.loopexit3

.loopexit3:                                       ; preds = %.loopexit3.loopexit, %3
  %Relu_Activation_1_lo = load i32* %Relu_Activation_1 ; [#uses=1 type=i32]
  %Parameters_load_12 = load i32* %Parameters_addr_11, align 4, !dbg !1771 ; [#uses=2 type=i32] [debug line = 94:3]
  %Parameters_load_13 = load i32* %Parameters_addr_8, align 4, !dbg !1771 ; [#uses=3 type=i32] [debug line = 94:3]
  %tmp_19 = sub nsw i32 %Parameters_load_12, %Parameters_load_13, !dbg !1771 ; [#uses=1 type=i32] [debug line = 94:3]
  %Parameters_load_14 = load i32* %Parameters_addr_12, align 4, !dbg !1771 ; [#uses=2 type=i32] [debug line = 94:3]
  %tmp_20 = sdiv i32 %tmp_19, %Parameters_load_14, !dbg !1771 ; [#uses=1 type=i32] [debug line = 94:3]
  %H_Result = add nsw i32 1, %tmp_20, !dbg !1771  ; [#uses=3 type=i32] [debug line = 94:3]
  call void @llvm.dbg.value(metadata !{i32 %H_Result}, i64 0, metadata !1821), !dbg !1771 ; [debug line = 94:3] [debug variable = H_Result]
  %Parameters_load_15 = load i32* %Parameters_addr_13, align 16, !dbg !1772 ; [#uses=2 type=i32] [debug line = 95:3]
  %Parameters_load_16 = load i32* %Parameters_addr_9, align 16, !dbg !1772 ; [#uses=3 type=i32] [debug line = 95:3]
  %tmp_21 = sub nsw i32 %Parameters_load_15, %Parameters_load_16, !dbg !1772 ; [#uses=1 type=i32] [debug line = 95:3]
  %Parameters_load_17 = load i32* %Parameters_addr_14, align 8, !dbg !1772 ; [#uses=2 type=i32] [debug line = 95:3]
  %tmp_22 = sdiv i32 %tmp_21, %Parameters_load_17, !dbg !1772 ; [#uses=1 type=i32] [debug line = 95:3]
  %W_Result = add nsw i32 1, %tmp_22, !dbg !1772  ; [#uses=3 type=i32] [debug line = 95:3]
  call void @llvm.dbg.value(metadata !{i32 %W_Result}, i64 0, metadata !1822), !dbg !1772 ; [debug line = 95:3] [debug variable = W_Result]
  %Parameters_load_18 = load i32* %Parameters_addr_6, align 4, !dbg !1823 ; [#uses=2 type=i32] [debug line = 98:6]
  %tmp3 = mul i32 %W_Result, %H_Result, !dbg !1823 ; [#uses=1 type=i32] [debug line = 98:6]
  %tmp_23 = mul i32 %Parameters_load_18, %tmp3, !dbg !1823 ; [#uses=1 type=i32] [debug line = 98:6]
  %Temproray_3 = sitofp i32 %tmp_23 to float, !dbg !1823 ; [#uses=1 type=float] [debug line = 98:6]
  call void @llvm.dbg.value(metadata !{float %Temproray_3}, i64 0, metadata !1806), !dbg !1823 ; [debug line = 98:6] [debug variable = Temproray]
  call void @llvm.dbg.value(metadata !{float %Temproray_3}, i64 0, metadata !1824) nounwind, !dbg !1831 ; [debug line = 49:42@99:6] [debug variable = x]
  call void @llvm.dbg.value(metadata !{float %Temproray_3}, i64 0, metadata !1832) nounwind, !dbg !1842 ; [debug line = 367:27@49:54@99:6] [debug variable = x]
  call void @llvm.dbg.value(metadata !{float %Temproray_3}, i64 0, metadata !1843) nounwind, !dbg !1867 ; [debug line = 280:27@368:10@49:54@99:6] [debug variable = x]
  call void @llvm.dbg.value(metadata !{float %Temproray_3}, i64 0, metadata !1868) nounwind, !dbg !13406 ; [debug line = 306:21@281:22@368:10@49:54@99:6] [debug variable = f]
  call void @llvm.dbg.value(metadata !{float %Temproray_3}, i64 0, metadata !13407) nounwind, !dbg !13410 ; [debug line = 306:21@320:5@281:22@368:10@49:54@99:6] [debug variable = f]
  %p_Val2_s = bitcast float %Temproray_3 to i32, !dbg !13411 ; [#uses=3 type=i32] [debug line = 311:32@320:5@281:22@368:10@49:54@99:6]
  call void @llvm.dbg.value(metadata !{i32 %p_Val2_s}, i64 0, metadata !13413) nounwind, !dbg !13415 ; [debug line = 208:62@311:32@320:5@281:22@368:10@49:54@99:6] [debug variable = val]
  call void @llvm.dbg.value(metadata !{i32 %p_Val2_s}, i64 0, metadata !13416) nounwind, !dbg !13419 ; [debug line = 208:62@208:84@311:32@320:5@281:22@368:10@49:54@99:6] [debug variable = val]
  call void @llvm.dbg.value(metadata !{i32 %p_Val2_s}, i64 0, metadata !13420) nounwind, !dbg !13428 ; [debug line = 208:69@208:84@311:32@320:5@281:22@368:10@49:54@99:6] [debug variable = data.V]
  call void @llvm.dbg.value(metadata !{i32 %p_Val2_s}, i64 0, metadata !13430) nounwind, !dbg !13438 ; [debug line = 1213:139@1233:51@317:19@320:5@281:22@368:10@49:54@99:6] [debug variable = __Val2__]
  %p_Result_s = call i1 @_ssdm_op_BitSelect.i1.i32.i32(i32 %p_Val2_s, i32 31), !dbg !13439 ; [#uses=1 type=i1] [debug line = 1213:141@1233:51@317:19@320:5@281:22@368:10@49:54@99:6]
  call void @llvm.dbg.value(metadata !{i1 %p_Result_s}, i64 0, metadata !13440) nounwind, !dbg !13444 ; [debug line = 1217:113@1233:51@317:19@320:5@281:22@368:10@49:54@99:6] [debug variable = __Result__]
  call void @llvm.dbg.value(metadata !{i1 %p_Result_s}, i64 0, metadata !13445) nounwind, !dbg !13455 ; [debug line = 1217:230@1233:51@317:19@320:5@281:22@368:10@49:54@99:6] [debug variable = xs.sign.V]
  call void @llvm.dbg.value(metadata !{i32 %p_Val2_s}, i64 0, metadata !13456) nounwind, !dbg !13469 ; [debug line = 895:79@1492:15@1493:3@918:12@318:19@320:5@281:22@368:10@49:54@99:6] [debug variable = __Val2__]
  %loc_V = call i8 @_ssdm_op_PartSelect.i8.i32.i32.i32(i32 %p_Val2_s, i32 23, i32 30) nounwind, !dbg !13470 ; [#uses=2 type=i8] [debug line = 895:81@1492:15@1493:3@918:12@318:19@320:5@281:22@368:10@49:54@99:6]
  call void @llvm.dbg.value(metadata !{i8 %loc_V}, i64 0, metadata !13471) nounwind, !dbg !13482 ; [debug line = 1460:93@1460:109@911:39@918:12@318:19@320:5@281:22@368:10@49:54@99:6] [debug variable = loc.V]
  call void @llvm.dbg.value(metadata !{i8 %loc_V}, i64 0, metadata !13485) nounwind, !dbg !13487 ; [debug line = 912:113@918:12@318:19@320:5@281:22@368:10@49:54@99:6] [debug variable = __Repl2__]
  call void @llvm.dbg.value(metadata !{i8 %loc_V}, i64 0, metadata !13488) nounwind, !dbg !13489 ; [debug line = 912:115@918:12@318:19@320:5@281:22@368:10@49:54@99:6] [debug variable = __Result__]
  call void @llvm.dbg.value(metadata !{i8 %loc_V}, i64 0, metadata !13490) nounwind, !dbg !13495 ; [debug line = 912:232@918:12@318:19@320:5@281:22@368:10@49:54@99:6] [debug variable = xs.exp.V]
  call void @llvm.dbg.value(metadata !{i32 %p_Val2_s}, i64 0, metadata !13496) nounwind, !dbg !13503 ; [debug line = 895:79@1492:15@1493:3@918:12@319:20@320:5@281:22@368:10@49:54@99:6] [debug variable = __Val2__]
  %loc_V_1 = trunc i32 %p_Val2_s to i23, !dbg !13504 ; [#uses=1 type=i23] [debug line = 895:81@1492:15@1493:3@918:12@319:20@320:5@281:22@368:10@49:54@99:6]
  call void @llvm.dbg.value(metadata !{i23 %loc_V_1}, i64 0, metadata !13505) nounwind, !dbg !13516 ; [debug line = 1460:93@1460:109@911:39@918:12@319:20@320:5@281:22@368:10@49:54@99:6] [debug variable = loc.V]
  call void @llvm.dbg.value(metadata !{i23 %loc_V_1}, i64 0, metadata !13519) nounwind, !dbg !13521 ; [debug line = 912:113@918:12@319:20@320:5@281:22@368:10@49:54@99:6] [debug variable = __Repl2__]
  call void @llvm.dbg.value(metadata !{i23 %loc_V_1}, i64 0, metadata !13522) nounwind, !dbg !13523 ; [debug line = 912:115@918:12@319:20@320:5@281:22@368:10@49:54@99:6] [debug variable = __Result__]
  call void @llvm.dbg.value(metadata !{i23 %loc_V_1}, i64 0, metadata !13524) nounwind, !dbg !13529 ; [debug line = 912:232@918:12@319:20@320:5@281:22@368:10@49:54@99:6] [debug variable = xs.sig.V]
  call void @llvm.dbg.value(metadata !{i23 %loc_V_1}, i64 0, metadata !13530) nounwind, !dbg !13536 ; [debug line = 363:36@283:54@368:10@49:54@99:6] [debug variable = fp_struct<float>.sig.V]
  call void @llvm.dbg.value(metadata !{i23 %loc_V_1}, i64 0, metadata !13537) nounwind, !dbg !13551 ; [debug line = 895:79@1492:15@1493:3@275:16@365:25@283:54@368:10@49:54@99:6] [debug variable = __Val2__]
  call void @llvm.dbg.value(metadata !{i23 %loc_V_1}, i64 0, metadata !13552) nounwind, !dbg !13553 ; [debug line = 895:81@1492:15@1493:3@275:16@365:25@283:54@368:10@49:54@99:6] [debug variable = __Result__]
  call void @llvm.dbg.value(metadata !{i23 %loc_V_1}, i64 0, metadata !13554) nounwind, !dbg !13556 ; [debug line = 895:180@1492:15@1493:3@275:16@365:25@283:54@368:10@49:54@99:6] [debug variable = ret.V]
  %tmp_3_i_i_i2 = call i25 @_ssdm_op_BitConcatenate.i25.i1.i23.i1(i1 true, i23 %loc_V_1, i1 false), !dbg !13557 ; [#uses=2 type=i25] [debug line = 657:17@383:47@383:48@283:54@368:10@49:54@99:6]
  %tmp_3_i_i_i2_cast9 = zext i25 %tmp_3_i_i_i2 to i79, !dbg !13557 ; [#uses=1 type=i79] [debug line = 657:17@383:47@383:48@283:54@368:10@49:54@99:6]
  call void @llvm.dbg.value(metadata !{i8 %loc_V}, i64 0, metadata !13661) nounwind, !dbg !13666 ; [debug line = 339:16@286:67@368:10@49:54@99:6] [debug variable = fp_struct<float>.exp.V]
  %tmp_i_i_i_i2_cast8 = zext i8 %loc_V to i9, !dbg !13667 ; [#uses=1 type=i9] [debug line = 340:16@286:67@368:10@49:54@99:6]
  %sh_assign = add i9 -127, %tmp_i_i_i_i2_cast8, !dbg !13667 ; [#uses=2 type=i9] [debug line = 340:16@286:67@368:10@49:54@99:6]
  call void @llvm.dbg.value(metadata !{i9 %sh_assign}, i64 0, metadata !13669) nounwind, !dbg !13671 ; [debug line = 1456:23@286:67@368:10@49:54@99:6] [debug variable = sh]
  %isNeg = call i1 @_ssdm_op_BitSelect.i1.i9.i32(i9 %sh_assign, i32 8), !dbg !13672 ; [#uses=2 type=i1] [debug line = 1461:37@286:67@368:10@49:54@99:6]
  call void @llvm.dbg.value(metadata !{i1 %isNeg}, i64 0, metadata !13674) nounwind, !dbg !13672 ; [debug line = 1461:37@286:67@368:10@49:54@99:6] [debug variable = isNeg]
  %tmp_5_i_i_i3 = sub i8 127, %loc_V, !dbg !13675 ; [#uses=1 type=i8] [debug line = 1462:9@286:67@368:10@49:54@99:6]
  %tmp_5_i_i_i3_cast = sext i8 %tmp_5_i_i_i3 to i9, !dbg !13675 ; [#uses=1 type=i9] [debug line = 1462:9@286:67@368:10@49:54@99:6]
  %sh_assign_1 = select i1 %isNeg, i9 %tmp_5_i_i_i3_cast, i9 %sh_assign, !dbg !13675 ; [#uses=2 type=i9] [debug line = 1462:9@286:67@368:10@49:54@99:6]
  %sh_assign_7_cast = sext i9 %sh_assign_1 to i32, !dbg !13675 ; [#uses=1 type=i32] [debug line = 1462:9@286:67@368:10@49:54@99:6]
  %sh_assign_7_cast_cas = sext i9 %sh_assign_1 to i25, !dbg !13675 ; [#uses=1 type=i25] [debug line = 1462:9@286:67@368:10@49:54@99:6]
  call void @llvm.dbg.value(metadata !{i9 %sh_assign_1}, i64 0, metadata !13669) nounwind, !dbg !13675 ; [debug line = 1462:9@286:67@368:10@49:54@99:6] [debug variable = sh]
  %tmp_7_i_i_i3 = zext i32 %sh_assign_7_cast to i79, !dbg !13676 ; [#uses=1 type=i79] [debug line = 1463:20@286:67@368:10@49:54@99:6]
  %tmp_8_i_i_i3 = lshr i25 %tmp_3_i_i_i2, %sh_assign_7_cast_cas, !dbg !13676 ; [#uses=1 type=i25] [debug line = 1463:20@286:67@368:10@49:54@99:6]
  %tmp_i_i_i3 = shl i79 %tmp_3_i_i_i2_cast9, %tmp_7_i_i_i3, !dbg !13677 ; [#uses=1 type=i79] [debug line = 1464:14@286:67@368:10@49:54@99:6]
  %tmp_51 = call i1 @_ssdm_op_BitSelect.i1.i25.i32(i25 %tmp_8_i_i_i3, i32 24), !dbg !13678 ; [#uses=1 type=i1] [debug line = 636:17@383:47@383:48@289:68@368:10@49:54@99:6]
  %tmp_36 = zext i1 %tmp_51 to i32, !dbg !13678   ; [#uses=1 type=i32] [debug line = 636:17@383:47@383:48@289:68@368:10@49:54@99:6]
  %tmp_47 = call i32 @_ssdm_op_PartSelect.i32.i79.i32.i32(i79 %tmp_i_i_i3, i32 24, i32 55), !dbg !13678 ; [#uses=1 type=i32] [debug line = 636:17@383:47@383:48@289:68@368:10@49:54@99:6]
  %p_Val2_2 = select i1 %isNeg, i32 %tmp_36, i32 %tmp_47, !dbg !14167 ; [#uses=2 type=i32] [debug line = 1463:9@286:67@368:10@49:54@99:6]
  call void @llvm.dbg.value(metadata !{i32 %p_Val2_2}, i64 0, metadata !14168) nounwind, !dbg !14276 ; [debug line = 629:0@261:46@261:47@317:53@368:10@49:54@99:6] [debug variable = __Val2__]
  call void @llvm.dbg.value(metadata !{i1 %p_Result_s}, i64 0, metadata !14277) nounwind, !dbg !14282 ; [debug line = 372:16@318:6@368:10@49:54@99:6] [debug variable = fp_struct<float>.sign.V]
  call void @llvm.dbg.value(metadata !{i32 %p_Val2_2}, i64 0, metadata !14283) nounwind, !dbg !14293 ; [debug line = 629:0@727:5@1414:61@318:31@368:10@49:54@99:6] [debug variable = __Val2__]
  %p_Val2_6_i_i_i3 = sub i32 0, %p_Val2_2, !dbg !14294 ; [#uses=1 type=i32] [debug line = 633:13@292:43@292:44@318:31@368:10@49:54@99:6]
  %p_Val2_4 = select i1 %p_Result_s, i32 %p_Val2_6_i_i_i3, i32 %p_Val2_2, !dbg !14281 ; [#uses=1 type=i32] [debug line = 318:6@368:10@49:54@99:6]
  call void @llvm.dbg.value(metadata !{i32 %p_Val2_4}, i64 0, metadata !14301) nounwind, !dbg !14281 ; [debug line = 318:6@368:10@49:54@99:6] [debug variable = __Val2__]
  call void @llvm.dbg.value(metadata !{i32 %p_Val2_4}, i64 0, metadata !14302) nounwind, !dbg !14313 ; [debug line = 1025:195@1056:16@1245:16@320:10@368:10@49:54@99:6] [debug variable = __Val2__]
  call void @llvm.dbg.value(metadata !{i32 %p_Val2_4}, i64 0, metadata !14314) nounwind, !dbg !14315 ; [debug line = 1025:197@1056:16@1245:16@320:10@368:10@49:54@99:6] [debug variable = __Result__]
  call void @llvm.dbg.value(metadata !{i32 %p_Val2_4}, i64 0, metadata !14316) nounwind, !dbg !14322 ; [debug line = 1025:0@1056:16@1245:16@320:10@368:10@49:54@99:6] [debug variable = ret.V]
  call void @llvm.dbg.value(metadata !{i32 %p_Val2_4}, i64 0, metadata !14323) nounwind, !dbg !14326 ; [debug line = 1037:200@1056:16@1245:16@320:10@368:10@49:54@99:6] [debug variable = __Val2__]
  %empty_7 = call fastcc i32 @Axi_Transfer(i32* %in_data_data_V, i4* %in_data_keep_V, i4* %in_data_strb_V, i1* %in_data_user_V, i1* %in_data_last_V, i1* %in_data_id_V, i1* %in_data_dest_V, i32* %out_data_data_V, i4* %out_data_keep_V, i4* %out_data_strb_V, i1* %out_data_user_V, i1* %out_data_last_V, i1* %out_data_id_V, i1* %out_data_dest_V, i32 %p_Val2_4, i1 false), !dbg !1830 ; [#uses=0 type=i32] [debug line = 99:6]
  %empty_8 = call fastcc i32 @Axi_Transfer(i32* %in_data_data_V, i4* %in_data_keep_V, i4* %in_data_strb_V, i1* %in_data_user_V, i1* %in_data_last_V, i1* %in_data_id_V, i1* %in_data_dest_V, i32* %out_data_data_V, i4* %out_data_keep_V, i4* %out_data_strb_V, i1* %out_data_user_V, i1* %out_data_last_V, i1* %out_data_id_V, i1* %out_data_dest_V, i32 %H_Result, i1 false), !dbg !14327 ; [#uses=0 type=i32] [debug line = 100:6]
  %empty_9 = call fastcc i32 @Axi_Transfer(i32* %in_data_data_V, i4* %in_data_keep_V, i4* %in_data_strb_V, i1* %in_data_user_V, i1* %in_data_last_V, i1* %in_data_id_V, i1* %in_data_dest_V, i32* %out_data_data_V, i4* %out_data_keep_V, i4* %out_data_strb_V, i1* %out_data_user_V, i1* %out_data_last_V, i1* %out_data_id_V, i1* %out_data_dest_V, i32 %W_Result, i1 false), !dbg !14328 ; [#uses=0 type=i32] [debug line = 101:6]
  %tmp_24 = icmp eq i32 %Relu_Activation_1_lo, 1, !dbg !14329 ; [#uses=1 type=i1] [debug line = 136:15]
  %Parameters_load_19 = load i32* %Parameters_addr_7, align 8, !dbg !14336 ; [#uses=1 type=i32] [debug line = 116:26]
  %Parameters_load_20 = load i32* %Parameters_addr_5, align 16, !dbg !14338 ; [#uses=1 type=i32] [debug line = 130:15]
  %tmp_25 = icmp eq i32 %Parameters_load_20, 0, !dbg !14338 ; [#uses=1 type=i1] [debug line = 130:15]
  br label %.loopexit4, !dbg !14339               ; [debug line = 106:20]

.loopexit4.loopexit:                              ; preds = %.loopexit2
  br label %.loopexit4

.loopexit4:                                       ; preds = %.loopexit4.loopexit, %.loopexit3
  %idx4 = phi i31 [ 0, %.loopexit3 ], [ %idx_5, %.loopexit4.loopexit ] ; [#uses=3 type=i31]
  %idx4_cast = zext i31 %idx4 to i32, !dbg !14339 ; [#uses=1 type=i32] [debug line = 106:20]
  %tmp_26 = icmp slt i32 %idx4_cast, %Parameters_load_18, !dbg !14339 ; [#uses=1 type=i1] [debug line = 106:20]
  %idx_5 = add i31 %idx4, 1, !dbg !14340          ; [#uses=1 type=i31] [debug line = 106:40]
  call void @llvm.dbg.value(metadata !{i31 %idx_5}, i64 0, metadata !14341), !dbg !14340 ; [debug line = 106:40] [debug variable = idx]
  br i1 %tmp_26, label %10, label %.loopexit.loopexit, !dbg !14339 ; [debug line = 106:20]

; <label>:10                                      ; preds = %.loopexit4
  call void @llvm.dbg.value(metadata !{i32 %H_Result}, i64 0, metadata !1821), !dbg !14342 ; [debug line = 108:7] [debug variable = H_Result]
  %tmp_27 = zext i31 %idx4 to i64, !dbg !14343    ; [#uses=1 type=i64] [debug line = 134:16]
  %Bias_addr_1 = getelementptr inbounds [1000 x float]* %Bias, i64 0, i64 %tmp_27, !dbg !14343 ; [#uses=1 type=float*] [debug line = 134:16]
  %Bias_load = load float* %Bias_addr_1, align 4, !dbg !14343 ; [#uses=1 type=float] [debug line = 134:16]
  br label %.loopexit2, !dbg !14345               ; [debug line = 109:24]

.loopexit2.loopexit:                              ; preds = %12
  br label %.loopexit2

.loopexit2:                                       ; preds = %.loopexit2.loopexit, %10
  %idx5 = phi i31 [ 0, %10 ], [ %idx2_1, %.loopexit2.loopexit ] ; [#uses=2 type=i31]
  %idx5_cast = zext i31 %idx5 to i32, !dbg !14345 ; [#uses=2 type=i32] [debug line = 109:24]
  %tmp_28 = icmp slt i32 %idx5_cast, %H_Result, !dbg !14345 ; [#uses=1 type=i1] [debug line = 109:24]
  %idx2_1 = add i31 %idx5, 1, !dbg !14346         ; [#uses=1 type=i31] [debug line = 109:40]
  call void @llvm.dbg.value(metadata !{i31 %idx2_1}, i64 0, metadata !14347), !dbg !14346 ; [debug line = 109:40] [debug variable = idx2]
  br i1 %tmp_28, label %11, label %.loopexit4.loopexit, !dbg !14345 ; [debug line = 109:24]

; <label>:11                                      ; preds = %.loopexit2
  call void @llvm.dbg.value(metadata !{i32 %W_Result}, i64 0, metadata !1822), !dbg !14348 ; [debug line = 111:11] [debug variable = W_Result]
  %tmp_29 = mul nsw i32 %Parameters_load_14, %idx5_cast, !dbg !14349 ; [#uses=1 type=i32] [debug line = 121:8]
  br label %12, !dbg !14353                       ; [debug line = 112:28]

; <label>:12                                      ; preds = %_ifconv, %11
  %idx6 = phi i31 [ 0, %11 ], [ %idx3_1, %_ifconv ] ; [#uses=2 type=i31]
  %idx6_cast = zext i31 %idx6 to i32, !dbg !14353 ; [#uses=2 type=i32] [debug line = 112:28]
  %tmp_30 = icmp slt i32 %idx6_cast, %W_Result, !dbg !14353 ; [#uses=1 type=i1] [debug line = 112:28]
  %idx3_1 = add i31 %idx6, 1, !dbg !14354         ; [#uses=1 type=i31] [debug line = 112:44]
  br i1 %tmp_30, label %.preheader.preheader, label %.loopexit2.loopexit, !dbg !14353 ; [debug line = 112:28]

.preheader.preheader:                             ; preds = %12
  %tmp_31 = mul nsw i32 %Parameters_load_17, %idx6_cast, !dbg !14355 ; [#uses=1 type=i32] [debug line = 124:10]
  br label %.preheader, !dbg !14336               ; [debug line = 116:26]

.preheader.loopexit:                              ; preds = %.loopexit1
  br label %.preheader

.preheader:                                       ; preds = %.preheader.loopexit, %.preheader.preheader
  %k = phi i31 [ 0, %.preheader.preheader ], [ %k_1, %.preheader.loopexit ] ; [#uses=2 type=i31]
  %Convolve_value = phi float [ 0.000000e+00, %.preheader.preheader ], [ %Convolve_value_1, %.preheader.loopexit ] ; [#uses=3 type=float]
  %k_cast = zext i31 %k to i32, !dbg !14336       ; [#uses=3 type=i32] [debug line = 116:26]
  %tmp_32 = icmp slt i32 %k_cast, %Parameters_load_19, !dbg !14336 ; [#uses=1 type=i1] [debug line = 116:26]
  %k_1 = add i31 %k, 1, !dbg !14358               ; [#uses=1 type=i31] [debug line = 116:44]
  call void @llvm.dbg.value(metadata !{i31 %k_1}, i64 0, metadata !14359), !dbg !14358 ; [debug line = 116:44] [debug variable = k]
  br i1 %tmp_32, label %13, label %_ifconv, !dbg !14336 ; [debug line = 116:26]

; <label>:13                                      ; preds = %.preheader
  %tmp_33 = mul i32 %Parameters_load_12, %k_cast, !dbg !14360 ; [#uses=1 type=i32] [debug line = 118:16]
  %tmp_34 = mul i32 %Parameters_load_13, %k_cast, !dbg !14361 ; [#uses=1 type=i32] [debug line = 126:10]
  br label %.loopexit1, !dbg !14362               ; [debug line = 119:18]

.loopexit1.loopexit:                              ; preds = %15
  br label %.loopexit1

.loopexit1:                                       ; preds = %.loopexit1.loopexit, %13
  %Convolve_value_1 = phi float [ %Convolve_value, %13 ], [ %Convolve_value_2, %.loopexit1.loopexit ] ; [#uses=2 type=float]
  %i = phi i31 [ 0, %13 ], [ %i_1, %.loopexit1.loopexit ] ; [#uses=2 type=i31]
  %i_cast = zext i31 %i to i32, !dbg !14362       ; [#uses=3 type=i32] [debug line = 119:18]
  %tmp_40 = icmp slt i32 %i_cast, %Parameters_load_13, !dbg !14362 ; [#uses=1 type=i1] [debug line = 119:18]
  %i_1 = add i31 %i, 1, !dbg !14363               ; [#uses=1 type=i31] [debug line = 119:36]
  call void @llvm.dbg.value(metadata !{i31 %i_1}, i64 0, metadata !14364), !dbg !14363 ; [debug line = 119:36] [debug variable = i]
  br i1 %tmp_40, label %14, label %.preheader.loopexit, !dbg !14362 ; [debug line = 119:18]

; <label>:14                                      ; preds = %.loopexit1
  call void @llvm.dbg.value(metadata !{i32 %R_Row}, i64 0, metadata !14365), !dbg !14349 ; [debug line = 121:8] [debug variable = R_Row]
  %tmp4 = add i32 %tmp_29, %i_cast, !dbg !14349   ; [#uses=1 type=i32] [debug line = 121:8]
  %tmp_41 = add i32 %tmp4, %tmp_33, !dbg !14349   ; [#uses=1 type=i32] [debug line = 121:8]
  %R_Row = mul i32 %Parameters_load_15, %tmp_41, !dbg !14349 ; [#uses=1 type=i32] [debug line = 121:8]
  %tmp = add i32 %i_cast, %tmp_34                 ; [#uses=1 type=i32]
  %tmp9 = mul i32 %Parameters_load_16, %tmp       ; [#uses=1 type=i32]
  br label %15, !dbg !14366                       ; [debug line = 122:19]

; <label>:15                                      ; preds = %16, %14
  %Convolve_value_2 = phi float [ %Convolve_value_1, %14 ], [ %Convolve_value_8, %16 ] ; [#uses=2 type=float]
  %j = phi i31 [ 0, %14 ], [ %j_1, %16 ]          ; [#uses=2 type=i31]
  %j_cast = zext i31 %j to i32, !dbg !14366       ; [#uses=3 type=i32] [debug line = 122:19]
  %tmp_42 = icmp slt i32 %j_cast, %Parameters_load_16, !dbg !14366 ; [#uses=1 type=i1] [debug line = 122:19]
  %j_1 = add i31 %j, 1, !dbg !14367               ; [#uses=1 type=i31] [debug line = 122:37]
  br i1 %tmp_42, label %16, label %.loopexit1.loopexit, !dbg !14366 ; [debug line = 122:19]

; <label>:16                                      ; preds = %15
  %tmp5 = add i32 %tmp_31, %j_cast, !dbg !14355   ; [#uses=1 type=i32] [debug line = 124:10]
  %Index = add i32 %tmp5, %R_Row, !dbg !14355     ; [#uses=1 type=i32] [debug line = 124:10]
  call void @llvm.dbg.value(metadata !{i32 %Index}, i64 0, metadata !14368), !dbg !14355 ; [debug line = 124:10] [debug variable = Index]
  %tmp_43 = sext i32 %Index to i64, !dbg !14361   ; [#uses=1 type=i64] [debug line = 126:10]
  %Input_addr_1 = getelementptr inbounds [6000 x float]* %Input, i64 0, i64 %tmp_43, !dbg !14361 ; [#uses=1 type=float*] [debug line = 126:10]
  %Input_load = load float* %Input_addr_1, align 4, !dbg !14361 ; [#uses=1 type=float] [debug line = 126:10]
  %tmp_44 = add i32 %tmp9, %j_cast, !dbg !14361   ; [#uses=1 type=i32] [debug line = 126:10]
  %tmp_45 = sext i32 %tmp_44 to i64, !dbg !14361  ; [#uses=1 type=i64] [debug line = 126:10]
  %Weight_addr_1 = getelementptr inbounds [5000 x float]* %Weight, i64 0, i64 %tmp_45, !dbg !14361 ; [#uses=1 type=float*] [debug line = 126:10]
  %Weight_load = load float* %Weight_addr_1, align 4, !dbg !14361 ; [#uses=1 type=float] [debug line = 126:10]
  %tmp_46 = fmul float %Input_load, %Weight_load, !dbg !14361 ; [#uses=1 type=float] [debug line = 126:10]
  %Convolve_value_8 = fadd float %Convolve_value_2, %tmp_46, !dbg !14361 ; [#uses=1 type=float] [debug line = 126:10]
  call void @llvm.dbg.value(metadata !{float %Convolve_value_8}, i64 0, metadata !14369), !dbg !14361 ; [debug line = 126:10] [debug variable = Convolve_value]
  call void @llvm.dbg.value(metadata !{i31 %j_1}, i64 0, metadata !14370), !dbg !14367 ; [debug line = 122:37] [debug variable = j]
  br label %15, !dbg !14367                       ; [debug line = 122:37]

_ifconv:                                          ; preds = %.preheader
  %Precision_1_load = load float* %Precision_1, !dbg !14371 ; [#uses=1 type=float] [debug line = 140:15]
  %Convolve_value_6 = fadd float %Convolve_value, %Bias_load, !dbg !14343 ; [#uses=1 type=float] [debug line = 134:16]
  call void @llvm.dbg.value(metadata !{float %Convolve_value_6}, i64 0, metadata !14369), !dbg !14343 ; [debug line = 134:16] [debug variable = Convolve_value]
  %Convolve_value_3 = select i1 %tmp_25, float %Convolve_value, float %Convolve_value_6 ; [#uses=4 type=float]
  call void @llvm.dbg.value(metadata !{float %Convolve_value_3}, i64 0, metadata !14369), !dbg !14361 ; [debug line = 126:10] [debug variable = Convolve_value]
  %Convolve_value_3_to_s = bitcast float %Convolve_value_3 to i32 ; [#uses=2 type=i32]
  %tmp_35 = call i8 @_ssdm_op_PartSelect.i8.i32.i32.i32(i32 %Convolve_value_3_to_s, i32 23, i32 30) ; [#uses=1 type=i8]
  %tmp_54 = trunc i32 %Convolve_value_3_to_s to i23 ; [#uses=1 type=i23]
  %notlhs = icmp ne i8 %tmp_35, -1                ; [#uses=1 type=i1]
  %notrhs = icmp eq i23 %tmp_54, 0                ; [#uses=1 type=i1]
  %tmp_37 = or i1 %notrhs, %notlhs                ; [#uses=1 type=i1]
  %tmp_38 = fcmp olt float %Convolve_value_3, 0.000000e+00, !dbg !14372 ; [#uses=1 type=i1] [debug line = 138:16]
  %tmp_39 = and i1 %tmp_37, %tmp_38, !dbg !14372  ; [#uses=1 type=i1] [debug line = 138:16]
  %Convolve_value_4 = select i1 %tmp_39, float 0.000000e+00, float %Convolve_value_3, !dbg !14372 ; [#uses=1 type=float] [debug line = 138:16]
  %Convolve_value_5 = select i1 %tmp_24, float %Convolve_value_4, float %Convolve_value_3 ; [#uses=1 type=float]
  %Convolve_value_7 = fmul float %Convolve_value_5, %Precision_1_load, !dbg !14371 ; [#uses=1 type=float] [debug line = 140:15]
  call void @llvm.dbg.value(metadata !{float %Convolve_value_7}, i64 0, metadata !14369), !dbg !14371 ; [debug line = 140:15] [debug variable = Convolve_value]
  call void @llvm.dbg.value(metadata !{float %Convolve_value_7}, i64 0, metadata !14374) nounwind, !dbg !14376 ; [debug line = 49:42@141:15] [debug variable = x]
  call void @llvm.dbg.value(metadata !{float %Convolve_value_7}, i64 0, metadata !14377) nounwind, !dbg !14379 ; [debug line = 367:27@49:54@141:15] [debug variable = x]
  call void @llvm.dbg.value(metadata !{float %Convolve_value_7}, i64 0, metadata !14380) nounwind, !dbg !14382 ; [debug line = 280:27@368:10@49:54@141:15] [debug variable = x]
  call void @llvm.dbg.value(metadata !{float %Convolve_value_7}, i64 0, metadata !14383) nounwind, !dbg !14385 ; [debug line = 306:21@281:22@368:10@49:54@141:15] [debug variable = f]
  call void @llvm.dbg.value(metadata !{float %Convolve_value_7}, i64 0, metadata !14386) nounwind, !dbg !14388 ; [debug line = 306:21@320:5@281:22@368:10@49:54@141:15] [debug variable = f]
  %p_Val2_5 = bitcast float %Convolve_value_7 to i32, !dbg !14389 ; [#uses=3 type=i32] [debug line = 311:32@320:5@281:22@368:10@49:54@141:15]
  call void @llvm.dbg.value(metadata !{i32 %p_Val2_5}, i64 0, metadata !14390) nounwind, !dbg !14391 ; [debug line = 208:62@311:32@320:5@281:22@368:10@49:54@141:15] [debug variable = val]
  call void @llvm.dbg.value(metadata !{i32 %p_Val2_5}, i64 0, metadata !14392) nounwind, !dbg !14394 ; [debug line = 208:62@208:84@311:32@320:5@281:22@368:10@49:54@141:15] [debug variable = val]
  call void @llvm.dbg.value(metadata !{i32 %p_Val2_5}, i64 0, metadata !14395) nounwind, !dbg !14396 ; [debug line = 208:69@208:84@311:32@320:5@281:22@368:10@49:54@141:15] [debug variable = data.V]
  call void @llvm.dbg.value(metadata !{i32 %p_Val2_5}, i64 0, metadata !14397) nounwind, !dbg !14400 ; [debug line = 1213:139@1233:51@317:19@320:5@281:22@368:10@49:54@141:15] [debug variable = __Val2__]
  %p_Result_1 = call i1 @_ssdm_op_BitSelect.i1.i32.i32(i32 %p_Val2_5, i32 31), !dbg !14401 ; [#uses=1 type=i1] [debug line = 1213:141@1233:51@317:19@320:5@281:22@368:10@49:54@141:15]
  call void @llvm.dbg.value(metadata !{i1 %p_Result_1}, i64 0, metadata !14402) nounwind, !dbg !14403 ; [debug line = 1217:113@1233:51@317:19@320:5@281:22@368:10@49:54@141:15] [debug variable = __Result__]
  call void @llvm.dbg.value(metadata !{i1 %p_Result_1}, i64 0, metadata !14404) nounwind, !dbg !14405 ; [debug line = 1217:230@1233:51@317:19@320:5@281:22@368:10@49:54@141:15] [debug variable = xs.sign.V]
  call void @llvm.dbg.value(metadata !{i32 %p_Val2_5}, i64 0, metadata !14406) nounwind, !dbg !14411 ; [debug line = 895:79@1492:15@1493:3@918:12@318:19@320:5@281:22@368:10@49:54@141:15] [debug variable = __Val2__]
  %loc_V_2 = call i8 @_ssdm_op_PartSelect.i8.i32.i32.i32(i32 %p_Val2_5, i32 23, i32 30) nounwind, !dbg !14412 ; [#uses=2 type=i8] [debug line = 895:81@1492:15@1493:3@918:12@318:19@320:5@281:22@368:10@49:54@141:15]
  call void @llvm.dbg.value(metadata !{i8 %loc_V_2}, i64 0, metadata !14413) nounwind, !dbg !14416 ; [debug line = 1460:93@1460:109@911:39@918:12@318:19@320:5@281:22@368:10@49:54@141:15] [debug variable = loc.V]
  call void @llvm.dbg.value(metadata !{i8 %loc_V_2}, i64 0, metadata !14417) nounwind, !dbg !14418 ; [debug line = 912:113@918:12@318:19@320:5@281:22@368:10@49:54@141:15] [debug variable = __Repl2__]
  call void @llvm.dbg.value(metadata !{i8 %loc_V_2}, i64 0, metadata !14419) nounwind, !dbg !14420 ; [debug line = 912:115@918:12@318:19@320:5@281:22@368:10@49:54@141:15] [debug variable = __Result__]
  call void @llvm.dbg.value(metadata !{i8 %loc_V_2}, i64 0, metadata !14421) nounwind, !dbg !14422 ; [debug line = 912:232@918:12@318:19@320:5@281:22@368:10@49:54@141:15] [debug variable = xs.exp.V]
  call void @llvm.dbg.value(metadata !{i32 %p_Val2_5}, i64 0, metadata !14423) nounwind, !dbg !14428 ; [debug line = 895:79@1492:15@1493:3@918:12@319:20@320:5@281:22@368:10@49:54@141:15] [debug variable = __Val2__]
  %loc_V_3 = trunc i32 %p_Val2_5 to i23, !dbg !14429 ; [#uses=1 type=i23] [debug line = 895:81@1492:15@1493:3@918:12@319:20@320:5@281:22@368:10@49:54@141:15]
  call void @llvm.dbg.value(metadata !{i23 %loc_V_3}, i64 0, metadata !14430) nounwind, !dbg !14433 ; [debug line = 1460:93@1460:109@911:39@918:12@319:20@320:5@281:22@368:10@49:54@141:15] [debug variable = loc.V]
  call void @llvm.dbg.value(metadata !{i23 %loc_V_3}, i64 0, metadata !14434) nounwind, !dbg !14435 ; [debug line = 912:113@918:12@319:20@320:5@281:22@368:10@49:54@141:15] [debug variable = __Repl2__]
  call void @llvm.dbg.value(metadata !{i23 %loc_V_3}, i64 0, metadata !14436) nounwind, !dbg !14437 ; [debug line = 912:115@918:12@319:20@320:5@281:22@368:10@49:54@141:15] [debug variable = __Result__]
  call void @llvm.dbg.value(metadata !{i23 %loc_V_3}, i64 0, metadata !14438) nounwind, !dbg !14439 ; [debug line = 912:232@918:12@319:20@320:5@281:22@368:10@49:54@141:15] [debug variable = xs.sig.V]
  call void @llvm.dbg.value(metadata !{i23 %loc_V_3}, i64 0, metadata !14440) nounwind, !dbg !14442 ; [debug line = 363:36@283:54@368:10@49:54@141:15] [debug variable = fp_struct<float>.sig.V]
  call void @llvm.dbg.value(metadata !{i23 %loc_V_3}, i64 0, metadata !14443) nounwind, !dbg !14448 ; [debug line = 895:79@1492:15@1493:3@275:16@365:25@283:54@368:10@49:54@141:15] [debug variable = __Val2__]
  call void @llvm.dbg.value(metadata !{i23 %loc_V_3}, i64 0, metadata !14449) nounwind, !dbg !14450 ; [debug line = 895:81@1492:15@1493:3@275:16@365:25@283:54@368:10@49:54@141:15] [debug variable = __Result__]
  call void @llvm.dbg.value(metadata !{i23 %loc_V_3}, i64 0, metadata !14451) nounwind, !dbg !14452 ; [debug line = 895:180@1492:15@1493:3@275:16@365:25@283:54@368:10@49:54@141:15] [debug variable = ret.V]
  %tmp_3_i_i_i3 = call i25 @_ssdm_op_BitConcatenate.i25.i1.i23.i1(i1 true, i23 %loc_V_3, i1 false), !dbg !14453 ; [#uses=2 type=i25] [debug line = 657:17@383:47@383:48@283:54@368:10@49:54@141:15]
  %tmp_3_i_i_i3_cast7 = zext i25 %tmp_3_i_i_i3 to i79, !dbg !14453 ; [#uses=1 type=i79] [debug line = 657:17@383:47@383:48@283:54@368:10@49:54@141:15]
  call void @llvm.dbg.value(metadata !{i8 %loc_V_2}, i64 0, metadata !14456) nounwind, !dbg !14458 ; [debug line = 339:16@286:67@368:10@49:54@141:15] [debug variable = fp_struct<float>.exp.V]
  %tmp_i_i_i_i3_cast6 = zext i8 %loc_V_2 to i9, !dbg !14459 ; [#uses=1 type=i9] [debug line = 340:16@286:67@368:10@49:54@141:15]
  %sh_assign_2 = add i9 -127, %tmp_i_i_i_i3_cast6, !dbg !14459 ; [#uses=2 type=i9] [debug line = 340:16@286:67@368:10@49:54@141:15]
  call void @llvm.dbg.value(metadata !{i9 %sh_assign_2}, i64 0, metadata !14460) nounwind, !dbg !14461 ; [debug line = 1456:23@286:67@368:10@49:54@141:15] [debug variable = sh]
  %isNeg_1 = call i1 @_ssdm_op_BitSelect.i1.i9.i32(i9 %sh_assign_2, i32 8), !dbg !14462 ; [#uses=2 type=i1] [debug line = 1461:37@286:67@368:10@49:54@141:15]
  call void @llvm.dbg.value(metadata !{i1 %isNeg_1}, i64 0, metadata !14463) nounwind, !dbg !14462 ; [debug line = 1461:37@286:67@368:10@49:54@141:15] [debug variable = isNeg]
  %tmp_5_i_i_i4 = sub i8 127, %loc_V_2, !dbg !14464 ; [#uses=1 type=i8] [debug line = 1462:9@286:67@368:10@49:54@141:15]
  %tmp_5_i_i_i4_cast = sext i8 %tmp_5_i_i_i4 to i9, !dbg !14464 ; [#uses=1 type=i9] [debug line = 1462:9@286:67@368:10@49:54@141:15]
  %sh_assign_3 = select i1 %isNeg_1, i9 %tmp_5_i_i_i4_cast, i9 %sh_assign_2, !dbg !14464 ; [#uses=2 type=i9] [debug line = 1462:9@286:67@368:10@49:54@141:15]
  %sh_assign_9_cast = sext i9 %sh_assign_3 to i32, !dbg !14464 ; [#uses=1 type=i32] [debug line = 1462:9@286:67@368:10@49:54@141:15]
  %sh_assign_9_cast_cas = sext i9 %sh_assign_3 to i25, !dbg !14464 ; [#uses=1 type=i25] [debug line = 1462:9@286:67@368:10@49:54@141:15]
  call void @llvm.dbg.value(metadata !{i9 %sh_assign_3}, i64 0, metadata !14460) nounwind, !dbg !14464 ; [debug line = 1462:9@286:67@368:10@49:54@141:15] [debug variable = sh]
  %tmp_7_i_i_i4 = zext i32 %sh_assign_9_cast to i79, !dbg !14465 ; [#uses=1 type=i79] [debug line = 1463:20@286:67@368:10@49:54@141:15]
  %tmp_8_i_i_i4 = lshr i25 %tmp_3_i_i_i3, %sh_assign_9_cast_cas, !dbg !14465 ; [#uses=1 type=i25] [debug line = 1463:20@286:67@368:10@49:54@141:15]
  %tmp_i_i_i4 = shl i79 %tmp_3_i_i_i3_cast7, %tmp_7_i_i_i4, !dbg !14466 ; [#uses=1 type=i79] [debug line = 1464:14@286:67@368:10@49:54@141:15]
  %tmp_58 = call i1 @_ssdm_op_BitSelect.i1.i25.i32(i25 %tmp_8_i_i_i4, i32 24), !dbg !14467 ; [#uses=1 type=i1] [debug line = 636:17@383:47@383:48@289:68@368:10@49:54@141:15]
  %tmp_48 = zext i1 %tmp_58 to i32, !dbg !14467   ; [#uses=1 type=i32] [debug line = 636:17@383:47@383:48@289:68@368:10@49:54@141:15]
  %tmp_49 = call i32 @_ssdm_op_PartSelect.i32.i79.i32.i32(i79 %tmp_i_i_i4, i32 24, i32 55), !dbg !14467 ; [#uses=1 type=i32] [debug line = 636:17@383:47@383:48@289:68@368:10@49:54@141:15]
  %p_Val2_7 = select i1 %isNeg_1, i32 %tmp_48, i32 %tmp_49, !dbg !14471 ; [#uses=2 type=i32] [debug line = 1463:9@286:67@368:10@49:54@141:15]
  call void @llvm.dbg.value(metadata !{i32 %p_Val2_7}, i64 0, metadata !14472) nounwind, !dbg !14476 ; [debug line = 629:0@261:46@261:47@317:53@368:10@49:54@141:15] [debug variable = __Val2__]
  call void @llvm.dbg.value(metadata !{i1 %p_Result_1}, i64 0, metadata !14477) nounwind, !dbg !14479 ; [debug line = 372:16@318:6@368:10@49:54@141:15] [debug variable = fp_struct<float>.sign.V]
  call void @llvm.dbg.value(metadata !{i32 %p_Val2_7}, i64 0, metadata !14480) nounwind, !dbg !14484 ; [debug line = 629:0@727:5@1414:61@318:31@368:10@49:54@141:15] [debug variable = __Val2__]
  %p_Val2_6_i_i_i4 = sub i32 0, %p_Val2_7, !dbg !14485 ; [#uses=1 type=i32] [debug line = 633:13@292:43@292:44@318:31@368:10@49:54@141:15]
  %p_Val2_9 = select i1 %p_Result_1, i32 %p_Val2_6_i_i_i4, i32 %p_Val2_7, !dbg !14478 ; [#uses=1 type=i32] [debug line = 318:6@368:10@49:54@141:15]
  call void @llvm.dbg.value(metadata !{i32 %p_Val2_9}, i64 0, metadata !14488) nounwind, !dbg !14478 ; [debug line = 318:6@368:10@49:54@141:15] [debug variable = __Val2__]
  call void @llvm.dbg.value(metadata !{i32 %p_Val2_9}, i64 0, metadata !14489) nounwind, !dbg !14493 ; [debug line = 1025:195@1056:16@1245:16@320:10@368:10@49:54@141:15] [debug variable = __Val2__]
  call void @llvm.dbg.value(metadata !{i32 %p_Val2_9}, i64 0, metadata !14494) nounwind, !dbg !14495 ; [debug line = 1025:197@1056:16@1245:16@320:10@368:10@49:54@141:15] [debug variable = __Result__]
  call void @llvm.dbg.value(metadata !{i32 %p_Val2_9}, i64 0, metadata !14496) nounwind, !dbg !14497 ; [debug line = 1025:0@1056:16@1245:16@320:10@368:10@49:54@141:15] [debug variable = ret.V]
  call void @llvm.dbg.value(metadata !{i32 %p_Val2_9}, i64 0, metadata !14498) nounwind, !dbg !14499 ; [debug line = 1037:200@1056:16@1245:16@320:10@368:10@49:54@141:15] [debug variable = __Val2__]
  %empty_10 = call fastcc i32 @Axi_Transfer(i32* %in_data_data_V, i4* %in_data_keep_V, i4* %in_data_strb_V, i1* %in_data_user_V, i1* %in_data_last_V, i1* %in_data_id_V, i1* %in_data_dest_V, i32* %out_data_data_V, i4* %out_data_keep_V, i4* %out_data_strb_V, i1* %out_data_user_V, i1* %out_data_last_V, i1* %out_data_id_V, i1* %out_data_dest_V, i32 %p_Val2_9, i1 false), !dbg !14375 ; [#uses=0 type=i32] [debug line = 141:15]
  call void @llvm.dbg.value(metadata !{i31 %idx3_1}, i64 0, metadata !14500), !dbg !14354 ; [debug line = 112:44] [debug variable = idx3]
  br label %12, !dbg !14354                       ; [debug line = 112:44]
}

; [#uses=1]
define weak void @_ssdm_op_Write.axis.volatile.i32P.i4P.i4P.i1P.i1P.i1P.i1P(i32*, i4*, i4*, i1*, i1*, i1*, i1*, i32, i4, i4, i1, i1, i1, i1) {
entry:
  store i32 %7, i32* %0
  store i4 %8, i4* %1
  store i4 %9, i4* %2
  store i1 %10, i1* %3
  store i1 %11, i1* %4
  store i1 %12, i1* %5
  store i1 %13, i1* %6
  ret void
}

; [#uses=1]
define weak void @_ssdm_op_SpecTopModule(...) {
entry:
  ret void
}

; [#uses=1]
define weak i32 @_ssdm_op_SpecLoopTripCount(...) {
entry:
  ret i32 0
}

; [#uses=1]
define weak i32 @_ssdm_op_SpecLoopBegin(...) {
entry:
  ret i32 0
}

; [#uses=5]
define weak void @_ssdm_op_SpecInterface(...) nounwind {
entry:
  ret void
}

; [#uses=14]
define weak void @_ssdm_op_SpecBitsMap(...) {
entry:
  ret void
}

; [#uses=1]
define weak { i32, i4, i4, i1, i1, i1, i1 } @_ssdm_op_Read.axis.volatile.i32P.i4P.i4P.i1P.i1P.i1P.i1P(i32*, i4*, i4*, i1*, i1*, i1*, i1*) {
entry:
  %empty = load i32* %0                           ; [#uses=1 type=i32]
  %empty_11 = load i4* %1                         ; [#uses=1 type=i4]
  %empty_12 = load i4* %2                         ; [#uses=1 type=i4]
  %empty_13 = load i1* %3                         ; [#uses=1 type=i1]
  %empty_14 = load i1* %4                         ; [#uses=1 type=i1]
  %empty_15 = load i1* %5                         ; [#uses=1 type=i1]
  %empty_16 = load i1* %6                         ; [#uses=1 type=i1]
  %mrv_0 = insertvalue { i32, i4, i4, i1, i1, i1, i1 } undef, i32 %empty, 0 ; [#uses=1 type={ i32, i4, i4, i1, i1, i1, i1 }]
  %mrv1 = insertvalue { i32, i4, i4, i1, i1, i1, i1 } %mrv_0, i4 %empty_11, 1 ; [#uses=1 type={ i32, i4, i4, i1, i1, i1, i1 }]
  %mrv2 = insertvalue { i32, i4, i4, i1, i1, i1, i1 } %mrv1, i4 %empty_12, 2 ; [#uses=1 type={ i32, i4, i4, i1, i1, i1, i1 }]
  %mrv3 = insertvalue { i32, i4, i4, i1, i1, i1, i1 } %mrv2, i1 %empty_13, 3 ; [#uses=1 type={ i32, i4, i4, i1, i1, i1, i1 }]
  %mrv4 = insertvalue { i32, i4, i4, i1, i1, i1, i1 } %mrv3, i1 %empty_14, 4 ; [#uses=1 type={ i32, i4, i4, i1, i1, i1, i1 }]
  %mrv5 = insertvalue { i32, i4, i4, i1, i1, i1, i1 } %mrv4, i1 %empty_15, 5 ; [#uses=1 type={ i32, i4, i4, i1, i1, i1, i1 }]
  %mrv6 = insertvalue { i32, i4, i4, i1, i1, i1, i1 } %mrv5, i1 %empty_16, 6 ; [#uses=1 type={ i32, i4, i4, i1, i1, i1, i1 }]
  ret { i32, i4, i4, i1, i1, i1, i1 } %mrv6
}

; [#uses=1]
define weak i32 @_ssdm_op_Read.ap_auto.i32(i32) {
entry:
  ret i32 %0
}

; [#uses=1]
define weak i1 @_ssdm_op_Read.ap_auto.i1(i1) {
entry:
  ret i1 %0
}

; [#uses=3]
define weak i8 @_ssdm_op_PartSelect.i8.i32.i32.i32(i32, i32, i32) nounwind readnone {
entry:
  %empty = call i32 @llvm.part.select.i32(i32 %0, i32 %1, i32 %2) ; [#uses=1 type=i32]
  %empty_17 = trunc i32 %empty to i8              ; [#uses=1 type=i8]
  ret i8 %empty_17
}

; [#uses=2]
define weak i32 @_ssdm_op_PartSelect.i32.i79.i32.i32(i79, i32, i32) nounwind readnone {
entry:
  %empty = call i79 @llvm.part.select.i79(i79 %0, i32 %1, i32 %2) ; [#uses=1 type=i79]
  %empty_18 = trunc i79 %empty to i32             ; [#uses=1 type=i32]
  ret i32 %empty_18
}

; [#uses=0]
declare i23 @_ssdm_op_PartSelect.i23.i32.i32.i32(i32, i32, i32) nounwind readnone

; [#uses=2]
define weak i1 @_ssdm_op_BitSelect.i1.i9.i32(i9, i32) nounwind readnone {
entry:
  %empty = trunc i32 %1 to i9                     ; [#uses=1 type=i9]
  %empty_19 = shl i9 1, %empty                    ; [#uses=1 type=i9]
  %empty_20 = and i9 %0, %empty_19                ; [#uses=1 type=i9]
  %empty_21 = icmp ne i9 %empty_20, 0             ; [#uses=1 type=i1]
  ret i1 %empty_21
}

; [#uses=2]
define weak i1 @_ssdm_op_BitSelect.i1.i32.i32(i32, i32) nounwind readnone {
entry:
  %empty = shl i32 1, %1                          ; [#uses=1 type=i32]
  %empty_22 = and i32 %0, %empty                  ; [#uses=1 type=i32]
  %empty_23 = icmp ne i32 %empty_22, 0            ; [#uses=1 type=i1]
  ret i1 %empty_23
}

; [#uses=2]
define weak i1 @_ssdm_op_BitSelect.i1.i25.i32(i25, i32) nounwind readnone {
entry:
  %empty = trunc i32 %1 to i25                    ; [#uses=1 type=i25]
  %empty_24 = shl i25 1, %empty                   ; [#uses=1 type=i25]
  %empty_25 = and i25 %0, %empty_24               ; [#uses=1 type=i25]
  %empty_26 = icmp ne i25 %empty_25, 0            ; [#uses=1 type=i1]
  ret i1 %empty_26
}

; [#uses=2]
define weak i25 @_ssdm_op_BitConcatenate.i25.i1.i23.i1(i1, i23, i1) nounwind readnone {
entry:
  %empty = zext i23 %1 to i24                     ; [#uses=1 type=i24]
  %empty_27 = zext i1 %2 to i24                   ; [#uses=1 type=i24]
  %empty_28 = shl i24 %empty, 1                   ; [#uses=1 type=i24]
  %empty_29 = or i24 %empty_28, %empty_27         ; [#uses=1 type=i24]
  %empty_30 = zext i1 %0 to i25                   ; [#uses=1 type=i25]
  %empty_31 = zext i24 %empty_29 to i25           ; [#uses=1 type=i25]
  %empty_32 = shl i25 %empty_30, 24               ; [#uses=1 type=i25]
  %empty_33 = or i25 %empty_32, %empty_31         ; [#uses=1 type=i25]
  ret i25 %empty_33
}

; [#uses=1]
declare void @_GLOBAL__I_a() nounwind section ".text.startup"

; [#uses=8]
define internal fastcc i32 @Axi_Transfer(i32* %in_data_data_V, i4* %in_data_keep_V, i4* %in_data_strb_V, i1* %in_data_user_V, i1* %in_data_last_V, i1* %in_data_id_V, i1* %in_data_dest_V, i32* %out_data_data_V, i4* %out_data_keep_V, i4* %out_data_strb_V, i1* %out_data_user_V, i1* %out_data_last_V, i1* %out_data_id_V, i1* %out_data_dest_V, i32 %value, i1 %loop) {
  %loop_read = call i1 @_ssdm_op_Read.ap_auto.i1(i1 %loop) ; [#uses=1 type=i1]
  call void @llvm.dbg.value(metadata !{i1 %loop_read}, i64 0, metadata !14501), !dbg !14505 ; [debug line = 12:70] [debug variable = loop]
  %value_read = call i32 @_ssdm_op_Read.ap_auto.i32(i32 %value) ; [#uses=1 type=i32]
  call void @llvm.dbg.value(metadata !{i32 %value_read}, i64 0, metadata !14506), !dbg !14507 ; [debug line = 12:59] [debug variable = value]
  call void @llvm.dbg.value(metadata !{i32 %value_read}, i64 0, metadata !14508), !dbg !14510 ; [debug line = 253:53@19:8] [debug variable = val]
  call void @llvm.dbg.value(metadata !{i32 %value_read}, i64 0, metadata !14513), !dbg !14515 ; [debug line = 253:53@253:75@19:8] [debug variable = val]
  call void (...)* @_ssdm_op_SpecInterface(i32* %out_data_data_V, i4* %out_data_keep_V, i4* %out_data_strb_V, i1* %out_data_user_V, i1* %out_data_last_V, i1* %out_data_id_V, i1* %out_data_dest_V, [5 x i8]* @p_str2, i32 0, i32 0, [5 x i8]* @p_str3, i32 0, i32 0, [1 x i8]* @p_str1, [1 x i8]* @p_str1, [1 x i8]* @p_str1, i32 0, i32 0, i32 0, i32 0, [1 x i8]* @p_str1, [1 x i8]* @p_str1) nounwind
  call void (...)* @_ssdm_op_SpecInterface(i32* %in_data_data_V, i4* %in_data_keep_V, i4* %in_data_strb_V, i1* %in_data_user_V, i1* %in_data_last_V, i1* %in_data_id_V, i1* %in_data_dest_V, [5 x i8]* @p_str2, i32 0, i32 0, [5 x i8]* @p_str3, i32 0, i32 0, [1 x i8]* @p_str1, [1 x i8]* @p_str1, [1 x i8]* @p_str1, i32 0, i32 0, i32 0, i32 0, [1 x i8]* @p_str1, [1 x i8]* @p_str1) nounwind
  call void @llvm.dbg.value(metadata !{i32* %in_data_data_V}, i64 0, metadata !14517), !dbg !14519 ; [debug line = 12:27] [debug variable = in_data.data.V]
  call void @llvm.dbg.value(metadata !{i4* %in_data_keep_V}, i64 0, metadata !14520), !dbg !14519 ; [debug line = 12:27] [debug variable = in_data.keep.V]
  call void @llvm.dbg.value(metadata !{i4* %in_data_strb_V}, i64 0, metadata !14521), !dbg !14519 ; [debug line = 12:27] [debug variable = in_data.strb.V]
  call void @llvm.dbg.value(metadata !{i1* %in_data_user_V}, i64 0, metadata !14522), !dbg !14519 ; [debug line = 12:27] [debug variable = in_data.user.V]
  call void @llvm.dbg.value(metadata !{i1* %in_data_last_V}, i64 0, metadata !14523), !dbg !14519 ; [debug line = 12:27] [debug variable = in_data.last.V]
  call void @llvm.dbg.value(metadata !{i1* %in_data_id_V}, i64 0, metadata !14524), !dbg !14519 ; [debug line = 12:27] [debug variable = in_data.id.V]
  call void @llvm.dbg.value(metadata !{i1* %in_data_dest_V}, i64 0, metadata !14525), !dbg !14519 ; [debug line = 12:27] [debug variable = in_data.dest.V]
  call void @llvm.dbg.value(metadata !{i32* %out_data_data_V}, i64 0, metadata !14526), !dbg !14528 ; [debug line = 12:45] [debug variable = out_data.data.V]
  call void @llvm.dbg.value(metadata !{i4* %out_data_keep_V}, i64 0, metadata !14529), !dbg !14528 ; [debug line = 12:45] [debug variable = out_data.keep.V]
  call void @llvm.dbg.value(metadata !{i4* %out_data_strb_V}, i64 0, metadata !14530), !dbg !14528 ; [debug line = 12:45] [debug variable = out_data.strb.V]
  call void @llvm.dbg.value(metadata !{i1* %out_data_user_V}, i64 0, metadata !14531), !dbg !14528 ; [debug line = 12:45] [debug variable = out_data.user.V]
  call void @llvm.dbg.value(metadata !{i1* %out_data_last_V}, i64 0, metadata !14532), !dbg !14528 ; [debug line = 12:45] [debug variable = out_data.last.V]
  call void @llvm.dbg.value(metadata !{i1* %out_data_id_V}, i64 0, metadata !14533), !dbg !14528 ; [debug line = 12:45] [debug variable = out_data.id.V]
  call void @llvm.dbg.value(metadata !{i1* %out_data_dest_V}, i64 0, metadata !14534), !dbg !14528 ; [debug line = 12:45] [debug variable = out_data.dest.V]
  call void @llvm.dbg.value(metadata !{i32 %value}, i64 0, metadata !14506), !dbg !14507 ; [debug line = 12:59] [debug variable = value]
  call void @llvm.dbg.value(metadata !{i1 %loop}, i64 0, metadata !14501), !dbg !14505 ; [debug line = 12:70] [debug variable = loop]
  %empty = call { i32, i4, i4, i1, i1, i1, i1 } @_ssdm_op_Read.axis.volatile.i32P.i4P.i4P.i1P.i1P.i1P.i1P(i32* %in_data_data_V, i4* %in_data_keep_V, i4* %in_data_strb_V, i1* %in_data_user_V, i1* %in_data_last_V, i1* %in_data_id_V, i1* %in_data_dest_V) ; [#uses=7 type={ i32, i4, i4, i1, i1, i1, i1 }]
  %Temproray = extractvalue { i32, i4, i4, i1, i1, i1, i1 } %empty, 0 ; [#uses=2 type=i32]
  %in_data_keep_V_tmp = extractvalue { i32, i4, i4, i1, i1, i1, i1 } %empty, 1 ; [#uses=1 type=i4]
  %in_data_strb_V_tmp = extractvalue { i32, i4, i4, i1, i1, i1, i1 } %empty, 2 ; [#uses=1 type=i4]
  %in_data_user_V_tmp = extractvalue { i32, i4, i4, i1, i1, i1, i1 } %empty, 3 ; [#uses=1 type=i1]
  %in_data_last_V_tmp = extractvalue { i32, i4, i4, i1, i1, i1, i1 } %empty, 4 ; [#uses=1 type=i1]
  %in_data_id_V_tmp = extractvalue { i32, i4, i4, i1, i1, i1, i1 } %empty, 5 ; [#uses=1 type=i1]
  %in_data_dest_V_tmp = extractvalue { i32, i4, i4, i1, i1, i1, i1 } %empty, 6 ; [#uses=1 type=i1]
  call void @llvm.dbg.value(metadata !{i32 %Temproray}, i64 0, metadata !14513), !dbg !14535 ; [debug line = 253:53@253:75@18:2] [debug variable = val]
  call void @llvm.dbg.value(metadata !{i32 %Temproray}, i64 0, metadata !14508), !dbg !14539 ; [debug line = 253:53@18:2] [debug variable = val]
  call void @llvm.dbg.value(metadata !{i32 %Temproray}, i64 0, metadata !14540), !dbg !14541 ; [debug line = 15:13] [debug variable = Temproray]
  call void @llvm.dbg.value(metadata !{i32 %value}, i64 0, metadata !14508), !dbg !14510 ; [debug line = 253:53@19:8] [debug variable = val]
  call void @llvm.dbg.value(metadata !{i32 %value}, i64 0, metadata !14513), !dbg !14515 ; [debug line = 253:53@253:75@19:8] [debug variable = val]
  %out_data_data_V_tmp = select i1 %loop_read, i32 %Temproray, i32 %value_read, !dbg !14542 ; [#uses=1 type=i32] [debug line = 16:2]
  call void @llvm.dbg.value(metadata !{i32 %out_data_data_V_tmp}, i64 0, metadata !14513), !dbg !14542 ; [debug line = 16:2] [debug variable = val]
  call void @_ssdm_op_Write.axis.volatile.i32P.i4P.i4P.i1P.i1P.i1P.i1P(i32* %out_data_data_V, i4* %out_data_keep_V, i4* %out_data_strb_V, i1* %out_data_user_V, i1* %out_data_last_V, i1* %out_data_id_V, i1* %out_data_dest_V, i32 %out_data_data_V_tmp, i4 %in_data_keep_V_tmp, i4 %in_data_strb_V_tmp, i1 %in_data_user_V_tmp, i1 %in_data_last_V_tmp, i1 %in_data_id_V_tmp, i1 %in_data_dest_V_tmp)
  ret i32 %Temproray, !dbg !14543                 ; [debug line = 26:2]
}

!opencl.kernels = !{!0, !7, !13, !19, !21, !21, !24, !24, !30, !24}
!hls.encrypted.func = !{}
!llvm.map.gv = !{!32}

!0 = metadata !{null, metadata !1, metadata !2, metadata !3, metadata !4, metadata !5, metadata !6}
!1 = metadata !{metadata !"kernel_arg_addr_space", i32 1, i32 1, i32 0, i32 0}
!2 = metadata !{metadata !"kernel_arg_access_qual", metadata !"none", metadata !"none", metadata !"none", metadata !"none"}
!3 = metadata !{metadata !"kernel_arg_type", metadata !"AXI_VAL*", metadata !"AXI_VAL*", metadata !"int", metadata !"int"}
!4 = metadata !{metadata !"kernel_arg_type_qual", metadata !"", metadata !"", metadata !"", metadata !""}
!5 = metadata !{metadata !"kernel_arg_name", metadata !"in_data", metadata !"out_data", metadata !"value", metadata !"loop"}
!6 = metadata !{metadata !"reqd_work_group_size", i32 1, i32 1, i32 1}
!7 = metadata !{null, metadata !8, metadata !9, metadata !10, metadata !11, metadata !12, metadata !6}
!8 = metadata !{metadata !"kernel_arg_addr_space", i32 1, i32 1}
!9 = metadata !{metadata !"kernel_arg_access_qual", metadata !"none", metadata !"none"}
!10 = metadata !{metadata !"kernel_arg_type", metadata !"AXI_VAL*", metadata !"AXI_VAL*"}
!11 = metadata !{metadata !"kernel_arg_type_qual", metadata !"", metadata !""}
!12 = metadata !{metadata !"kernel_arg_name", metadata !"in_data", metadata !"out_data"}
!13 = metadata !{null, metadata !14, metadata !15, metadata !16, metadata !17, metadata !18, metadata !6}
!14 = metadata !{metadata !"kernel_arg_addr_space", i32 0}
!15 = metadata !{metadata !"kernel_arg_access_qual", metadata !"none"}
!16 = metadata !{metadata !"kernel_arg_type", metadata !"const ap_uint<4> &"}
!17 = metadata !{metadata !"kernel_arg_type_qual", metadata !""}
!18 = metadata !{metadata !"kernel_arg_name", metadata !"op2"}
!19 = metadata !{null, metadata !14, metadata !15, metadata !20, metadata !17, metadata !18, metadata !6}
!20 = metadata !{metadata !"kernel_arg_type", metadata !"const ap_uint<1> &"}
!21 = metadata !{null, metadata !14, metadata !15, metadata !22, metadata !17, metadata !23, metadata !6}
!22 = metadata !{metadata !"kernel_arg_type", metadata !"int"}
!23 = metadata !{metadata !"kernel_arg_name", metadata !"val"}
!24 = metadata !{null, metadata !25, metadata !26, metadata !27, metadata !28, metadata !29, metadata !6}
!25 = metadata !{metadata !"kernel_arg_addr_space"}
!26 = metadata !{metadata !"kernel_arg_access_qual"}
!27 = metadata !{metadata !"kernel_arg_type"}
!28 = metadata !{metadata !"kernel_arg_type_qual"}
!29 = metadata !{metadata !"kernel_arg_name"}
!30 = metadata !{null, metadata !14, metadata !15, metadata !31, metadata !17, metadata !18, metadata !6}
!31 = metadata !{metadata !"kernel_arg_type", metadata !"const ap_uint<32> &"}
!32 = metadata !{metadata !33, [1 x i32]* @llvm_global_ctors_0}
!33 = metadata !{metadata !34}
!34 = metadata !{i32 0, i32 31, metadata !35}
!35 = metadata !{metadata !36}
!36 = metadata !{metadata !"llvm.global_ctors.0", metadata !37, metadata !"", i32 0, i32 31}
!37 = metadata !{metadata !38}
!38 = metadata !{i32 0, i32 0, i32 1}
!39 = metadata !{i32 786688, metadata !40, metadata !"Precision", metadata !43, i32 41, metadata !146, i32 0, i32 0} ; [ DW_TAG_auto_variable ]
!40 = metadata !{i32 786443, metadata !41, i32 39, i32 1, metadata !43, i32 3} ; [ DW_TAG_lexical_block ]
!41 = metadata !{i32 786443, metadata !42, i32 33, i32 1, metadata !43, i32 2} ; [ DW_TAG_lexical_block ]
!42 = metadata !{i32 786478, i32 0, metadata !43, metadata !"cnn", metadata !"cnn", metadata !"_Z3cnnP7ap_axiuILi32ELi1ELi1ELi1EES1_", metadata !43, i32 32, metadata !44, i1 false, i1 true, i32 0, i32 0, null, i32 256, i1 false, null, null, null, metadata !69, i32 33} ; [ DW_TAG_subprogram ]
!43 = metadata !{i32 786473, metadata !"deeplib/main_backup.cpp", metadata !"/home/common/FPGA/deeplib", null} ; [ DW_TAG_file_type ]
!44 = metadata !{i32 786453, i32 0, metadata !"", i32 0, i32 0, i64 0, i64 0, i64 0, i32 0, null, metadata !45, i32 0, i32 0} ; [ DW_TAG_subroutine_type ]
!45 = metadata !{null, metadata !46, metadata !46}
!46 = metadata !{i32 786447, null, metadata !"", null, i32 0, i64 64, i64 64, i64 0, i32 0, metadata !47} ; [ DW_TAG_pointer_type ]
!47 = metadata !{i32 786454, null, metadata !"AXI_VAL", metadata !43, i32 4, i64 0, i64 0, i64 0, i32 0, metadata !48} ; [ DW_TAG_typedef ]
!48 = metadata !{i32 786434, null, metadata !"ap_axiu<32, 1, 1, 1>", metadata !49, i32 100, i64 96, i64 32, i32 0, i32 0, null, metadata !50, i32 0, null, metadata !1646} ; [ DW_TAG_class_type ]
!49 = metadata !{i32 786473, metadata !"/media/common/DATAPART1/vivado/Vivado/2017.4/common/technology/autopilot/ap_axi_sdata.h", metadata !"/home/common/FPGA/deeplib", null} ; [ DW_TAG_file_type ]
!50 = metadata !{metadata !51, metadata !764, metadata !1326, metadata !1327, metadata !1643, metadata !1644, metadata !1645}
!51 = metadata !{i32 786445, metadata !48, metadata !"data", metadata !49, i32 101, i64 32, i64 32, i64 0, i32 0, metadata !52} ; [ DW_TAG_member ]
!52 = metadata !{i32 786434, null, metadata !"ap_uint<32>", metadata !53, i32 183, i64 32, i64 32, i32 0, i32 0, null, metadata !54, i32 0, null, metadata !763} ; [ DW_TAG_class_type ]
!53 = metadata !{i32 786473, metadata !"/media/common/DATAPART1/vivado/Vivado/2017.4/common/technology/autopilot/ap_int.h", metadata !"/home/common/FPGA/deeplib", null} ; [ DW_TAG_file_type ]
!54 = metadata !{metadata !55, metadata !691, metadata !695, metadata !698, metadata !701, metadata !704, metadata !707, metadata !710, metadata !713, metadata !716, metadata !719, metadata !722, metadata !725, metadata !728, metadata !731, metadata !734, metadata !737, metadata !740, metadata !743, metadata !750, metadata !755, metadata !759, metadata !762}
!55 = metadata !{i32 786460, metadata !52, null, metadata !53, i32 0, i64 0, i64 0, i64 0, i32 0, metadata !56} ; [ DW_TAG_inheritance ]
!56 = metadata !{i32 786434, null, metadata !"ap_int_base<32, false, true>", metadata !57, i32 1453, i64 32, i64 32, i32 0, i32 0, null, metadata !58, i32 0, null, metadata !690} ; [ DW_TAG_class_type ]
!57 = metadata !{i32 786473, metadata !"/media/common/DATAPART1/vivado/Vivado/2017.4/common/technology/autopilot/ap_int_syn.h", metadata !"/home/common/FPGA/deeplib", null} ; [ DW_TAG_file_type ]
!58 = metadata !{metadata !59, metadata !76, metadata !80, metadata !88, metadata !94, metadata !97, metadata !101, metadata !105, metadata !109, metadata !113, metadata !116, metadata !120, metadata !124, metadata !128, metadata !133, metadata !138, metadata !143, metadata !147, metadata !151, metadata !157, metadata !160, metadata !164, metadata !167, metadata !170, metadata !171, metadata !175, metadata !178, metadata !181, metadata !184, metadata !187, metadata !190, metadata !193, metadata !196, metadata !199, metadata !202, metadata !205, metadata !208, metadata !218, metadata !221, metadata !224, metadata !227, metadata !230, metadata !233, metadata !236, metadata !239, metadata !242, metadata !245, metadata !248, metadata !251, metadata !254, metadata !255, metadata !259, metadata !262, metadata !263, metadata !264, metadata !265, metadata !266, metadata !267, metadata !270, metadata !271, metadata !274, metadata !275, metadata !276, metadata !277, metadata !278, metadata !279, metadata !282, metadata !283, metadata !284, metadata !287, metadata !288, metadata !291, metadata !292, metadata !593, metadata !655, metadata !656, metadata !659, metadata !660, metadata !664, metadata !665, metadata !666, metadata !667, metadata !670, metadata !671, metadata !672, metadata !673, metadata !674, metadata !675, metadata !676, metadata !677, metadata !678, metadata !679, metadata !680, metadata !681, metadata !684, metadata !687}
!59 = metadata !{i32 786460, metadata !56, null, metadata !57, i32 0, i64 0, i64 0, i64 0, i32 0, metadata !60} ; [ DW_TAG_inheritance ]
!60 = metadata !{i32 786434, null, metadata !"ssdm_int<32 + 1024 * 0, false>", metadata !61, i32 34, i64 32, i64 32, i32 0, i32 0, null, metadata !62, i32 0, null, metadata !71} ; [ DW_TAG_class_type ]
!61 = metadata !{i32 786473, metadata !"/media/common/DATAPART1/vivado/Vivado/2017.4/common/technology/autopilot/etc/autopilot_dt.def", metadata !"/home/common/FPGA/deeplib", null} ; [ DW_TAG_file_type ]
!62 = metadata !{metadata !63, metadata !65}
!63 = metadata !{i32 786445, metadata !60, metadata !"V", metadata !61, i32 34, i64 32, i64 32, i64 0, i32 0, metadata !64} ; [ DW_TAG_member ]
!64 = metadata !{i32 786468, null, metadata !"uint32", null, i32 0, i64 32, i64 32, i64 0, i32 0, i32 7} ; [ DW_TAG_base_type ]
!65 = metadata !{i32 786478, i32 0, metadata !60, metadata !"ssdm_int", metadata !"ssdm_int", metadata !"", metadata !61, i32 34, metadata !66, i1 false, i1 false, i32 0, i32 0, null, i32 256, i1 false, null, null, i32 0, metadata !69, i32 34} ; [ DW_TAG_subprogram ]
!66 = metadata !{i32 786453, i32 0, metadata !"", i32 0, i32 0, i64 0, i64 0, i64 0, i32 0, null, metadata !67, i32 0, i32 0} ; [ DW_TAG_subroutine_type ]
!67 = metadata !{null, metadata !68}
!68 = metadata !{i32 786447, i32 0, metadata !"", i32 0, i32 0, i64 64, i64 64, i64 0, i32 64, metadata !60} ; [ DW_TAG_pointer_type ]
!69 = metadata !{metadata !70}
!70 = metadata !{i32 786468}                      ; [ DW_TAG_base_type ]
!71 = metadata !{metadata !72, metadata !74}
!72 = metadata !{i32 786480, null, metadata !"_AP_N", metadata !73, i64 32, null, i32 0, i32 0} ; [ DW_TAG_template_value_parameter ]
!73 = metadata !{i32 786468, null, metadata !"int", null, i32 0, i64 32, i64 32, i64 0, i32 0, i32 5} ; [ DW_TAG_base_type ]
!74 = metadata !{i32 786480, null, metadata !"_AP_S", metadata !75, i64 0, null, i32 0, i32 0} ; [ DW_TAG_template_value_parameter ]
!75 = metadata !{i32 786468, null, metadata !"bool", null, i32 0, i64 8, i64 8, i64 0, i32 0, i32 2} ; [ DW_TAG_base_type ]
!76 = metadata !{i32 786478, i32 0, metadata !56, metadata !"ap_int_base", metadata !"ap_int_base", metadata !"", metadata !57, i32 1494, metadata !77, i1 false, i1 false, i32 0, i32 0, null, i32 256, i1 false, null, null, i32 0, metadata !69, i32 1494} ; [ DW_TAG_subprogram ]
!77 = metadata !{i32 786453, i32 0, metadata !"", i32 0, i32 0, i64 0, i64 0, i64 0, i32 0, null, metadata !78, i32 0, i32 0} ; [ DW_TAG_subroutine_type ]
!78 = metadata !{null, metadata !79}
!79 = metadata !{i32 786447, i32 0, metadata !"", i32 0, i32 0, i64 64, i64 64, i64 0, i32 64, metadata !56} ; [ DW_TAG_pointer_type ]
!80 = metadata !{i32 786478, i32 0, metadata !56, metadata !"ap_int_base<32, false>", metadata !"ap_int_base<32, false>", metadata !"", metadata !57, i32 1506, metadata !81, i1 false, i1 false, i32 0, i32 0, null, i32 256, i1 false, null, metadata !85, i32 0, metadata !69, i32 1506} ; [ DW_TAG_subprogram ]
!81 = metadata !{i32 786453, i32 0, metadata !"", i32 0, i32 0, i64 0, i64 0, i64 0, i32 0, null, metadata !82, i32 0, i32 0} ; [ DW_TAG_subroutine_type ]
!82 = metadata !{null, metadata !79, metadata !83}
!83 = metadata !{i32 786448, null, null, null, i32 0, i64 0, i64 0, i64 0, i32 0, metadata !84} ; [ DW_TAG_reference_type ]
!84 = metadata !{i32 786470, null, metadata !"", null, i32 0, i64 0, i64 0, i64 0, i32 0, metadata !56} ; [ DW_TAG_const_type ]
!85 = metadata !{metadata !86, metadata !87}
!86 = metadata !{i32 786480, null, metadata !"_AP_W2", metadata !73, i64 32, null, i32 0, i32 0} ; [ DW_TAG_template_value_parameter ]
!87 = metadata !{i32 786480, null, metadata !"_AP_S2", metadata !75, i64 0, null, i32 0, i32 0} ; [ DW_TAG_template_value_parameter ]
!88 = metadata !{i32 786478, i32 0, metadata !56, metadata !"ap_int_base<32, false>", metadata !"ap_int_base<32, false>", metadata !"", metadata !57, i32 1509, metadata !89, i1 false, i1 false, i32 0, i32 0, null, i32 256, i1 false, null, metadata !85, i32 0, metadata !69, i32 1509} ; [ DW_TAG_subprogram ]
!89 = metadata !{i32 786453, i32 0, metadata !"", i32 0, i32 0, i64 0, i64 0, i64 0, i32 0, null, metadata !90, i32 0, i32 0} ; [ DW_TAG_subroutine_type ]
!90 = metadata !{null, metadata !79, metadata !91}
!91 = metadata !{i32 786448, null, null, null, i32 0, i64 0, i64 0, i64 0, i32 0, metadata !92} ; [ DW_TAG_reference_type ]
!92 = metadata !{i32 786470, null, metadata !"", null, i32 0, i64 0, i64 0, i64 0, i32 0, metadata !93} ; [ DW_TAG_const_type ]
!93 = metadata !{i32 786485, null, metadata !"", null, i32 0, i64 0, i64 0, i64 0, i32 0, metadata !56} ; [ DW_TAG_volatile_type ]
!94 = metadata !{i32 786478, i32 0, metadata !56, metadata !"ap_int_base", metadata !"ap_int_base", metadata !"", metadata !57, i32 1516, metadata !95, i1 false, i1 false, i32 0, i32 0, null, i32 384, i1 false, null, null, i32 0, metadata !69, i32 1516} ; [ DW_TAG_subprogram ]
!95 = metadata !{i32 786453, i32 0, metadata !"", i32 0, i32 0, i64 0, i64 0, i64 0, i32 0, null, metadata !96, i32 0, i32 0} ; [ DW_TAG_subroutine_type ]
!96 = metadata !{null, metadata !79, metadata !75}
!97 = metadata !{i32 786478, i32 0, metadata !56, metadata !"ap_int_base", metadata !"ap_int_base", metadata !"", metadata !57, i32 1517, metadata !98, i1 false, i1 false, i32 0, i32 0, null, i32 384, i1 false, null, null, i32 0, metadata !69, i32 1517} ; [ DW_TAG_subprogram ]
!98 = metadata !{i32 786453, i32 0, metadata !"", i32 0, i32 0, i64 0, i64 0, i64 0, i32 0, null, metadata !99, i32 0, i32 0} ; [ DW_TAG_subroutine_type ]
!99 = metadata !{null, metadata !79, metadata !100}
!100 = metadata !{i32 786468, null, metadata !"signed char", null, i32 0, i64 8, i64 8, i64 0, i32 0, i32 6} ; [ DW_TAG_base_type ]
!101 = metadata !{i32 786478, i32 0, metadata !56, metadata !"ap_int_base", metadata !"ap_int_base", metadata !"", metadata !57, i32 1518, metadata !102, i1 false, i1 false, i32 0, i32 0, null, i32 384, i1 false, null, null, i32 0, metadata !69, i32 1518} ; [ DW_TAG_subprogram ]
!102 = metadata !{i32 786453, i32 0, metadata !"", i32 0, i32 0, i64 0, i64 0, i64 0, i32 0, null, metadata !103, i32 0, i32 0} ; [ DW_TAG_subroutine_type ]
!103 = metadata !{null, metadata !79, metadata !104}
!104 = metadata !{i32 786468, null, metadata !"unsigned char", null, i32 0, i64 8, i64 8, i64 0, i32 0, i32 8} ; [ DW_TAG_base_type ]
!105 = metadata !{i32 786478, i32 0, metadata !56, metadata !"ap_int_base", metadata !"ap_int_base", metadata !"", metadata !57, i32 1519, metadata !106, i1 false, i1 false, i32 0, i32 0, null, i32 384, i1 false, null, null, i32 0, metadata !69, i32 1519} ; [ DW_TAG_subprogram ]
!106 = metadata !{i32 786453, i32 0, metadata !"", i32 0, i32 0, i64 0, i64 0, i64 0, i32 0, null, metadata !107, i32 0, i32 0} ; [ DW_TAG_subroutine_type ]
!107 = metadata !{null, metadata !79, metadata !108}
!108 = metadata !{i32 786468, null, metadata !"short", null, i32 0, i64 16, i64 16, i64 0, i32 0, i32 5} ; [ DW_TAG_base_type ]
!109 = metadata !{i32 786478, i32 0, metadata !56, metadata !"ap_int_base", metadata !"ap_int_base", metadata !"", metadata !57, i32 1520, metadata !110, i1 false, i1 false, i32 0, i32 0, null, i32 384, i1 false, null, null, i32 0, metadata !69, i32 1520} ; [ DW_TAG_subprogram ]
!110 = metadata !{i32 786453, i32 0, metadata !"", i32 0, i32 0, i64 0, i64 0, i64 0, i32 0, null, metadata !111, i32 0, i32 0} ; [ DW_TAG_subroutine_type ]
!111 = metadata !{null, metadata !79, metadata !112}
!112 = metadata !{i32 786468, null, metadata !"unsigned short", null, i32 0, i64 16, i64 16, i64 0, i32 0, i32 7} ; [ DW_TAG_base_type ]
!113 = metadata !{i32 786478, i32 0, metadata !56, metadata !"ap_int_base", metadata !"ap_int_base", metadata !"", metadata !57, i32 1521, metadata !114, i1 false, i1 false, i32 0, i32 0, null, i32 384, i1 false, null, null, i32 0, metadata !69, i32 1521} ; [ DW_TAG_subprogram ]
!114 = metadata !{i32 786453, i32 0, metadata !"", i32 0, i32 0, i64 0, i64 0, i64 0, i32 0, null, metadata !115, i32 0, i32 0} ; [ DW_TAG_subroutine_type ]
!115 = metadata !{null, metadata !79, metadata !73}
!116 = metadata !{i32 786478, i32 0, metadata !56, metadata !"ap_int_base", metadata !"ap_int_base", metadata !"", metadata !57, i32 1522, metadata !117, i1 false, i1 false, i32 0, i32 0, null, i32 384, i1 false, null, null, i32 0, metadata !69, i32 1522} ; [ DW_TAG_subprogram ]
!117 = metadata !{i32 786453, i32 0, metadata !"", i32 0, i32 0, i64 0, i64 0, i64 0, i32 0, null, metadata !118, i32 0, i32 0} ; [ DW_TAG_subroutine_type ]
!118 = metadata !{null, metadata !79, metadata !119}
!119 = metadata !{i32 786468, null, metadata !"unsigned int", null, i32 0, i64 32, i64 32, i64 0, i32 0, i32 7} ; [ DW_TAG_base_type ]
!120 = metadata !{i32 786478, i32 0, metadata !56, metadata !"ap_int_base", metadata !"ap_int_base", metadata !"", metadata !57, i32 1523, metadata !121, i1 false, i1 false, i32 0, i32 0, null, i32 384, i1 false, null, null, i32 0, metadata !69, i32 1523} ; [ DW_TAG_subprogram ]
!121 = metadata !{i32 786453, i32 0, metadata !"", i32 0, i32 0, i64 0, i64 0, i64 0, i32 0, null, metadata !122, i32 0, i32 0} ; [ DW_TAG_subroutine_type ]
!122 = metadata !{null, metadata !79, metadata !123}
!123 = metadata !{i32 786468, null, metadata !"long int", null, i32 0, i64 64, i64 64, i64 0, i32 0, i32 5} ; [ DW_TAG_base_type ]
!124 = metadata !{i32 786478, i32 0, metadata !56, metadata !"ap_int_base", metadata !"ap_int_base", metadata !"", metadata !57, i32 1524, metadata !125, i1 false, i1 false, i32 0, i32 0, null, i32 384, i1 false, null, null, i32 0, metadata !69, i32 1524} ; [ DW_TAG_subprogram ]
!125 = metadata !{i32 786453, i32 0, metadata !"", i32 0, i32 0, i64 0, i64 0, i64 0, i32 0, null, metadata !126, i32 0, i32 0} ; [ DW_TAG_subroutine_type ]
!126 = metadata !{null, metadata !79, metadata !127}
!127 = metadata !{i32 786468, null, metadata !"long unsigned int", null, i32 0, i64 64, i64 64, i64 0, i32 0, i32 7} ; [ DW_TAG_base_type ]
!128 = metadata !{i32 786478, i32 0, metadata !56, metadata !"ap_int_base", metadata !"ap_int_base", metadata !"", metadata !57, i32 1525, metadata !129, i1 false, i1 false, i32 0, i32 0, null, i32 384, i1 false, null, null, i32 0, metadata !69, i32 1525} ; [ DW_TAG_subprogram ]
!129 = metadata !{i32 786453, i32 0, metadata !"", i32 0, i32 0, i64 0, i64 0, i64 0, i32 0, null, metadata !130, i32 0, i32 0} ; [ DW_TAG_subroutine_type ]
!130 = metadata !{null, metadata !79, metadata !131}
!131 = metadata !{i32 786454, null, metadata !"ap_slong", metadata !57, i32 112, i64 0, i64 0, i64 0, i32 0, metadata !132} ; [ DW_TAG_typedef ]
!132 = metadata !{i32 786468, null, metadata !"long long int", null, i32 0, i64 64, i64 64, i64 0, i32 0, i32 5} ; [ DW_TAG_base_type ]
!133 = metadata !{i32 786478, i32 0, metadata !56, metadata !"ap_int_base", metadata !"ap_int_base", metadata !"", metadata !57, i32 1526, metadata !134, i1 false, i1 false, i32 0, i32 0, null, i32 384, i1 false, null, null, i32 0, metadata !69, i32 1526} ; [ DW_TAG_subprogram ]
!134 = metadata !{i32 786453, i32 0, metadata !"", i32 0, i32 0, i64 0, i64 0, i64 0, i32 0, null, metadata !135, i32 0, i32 0} ; [ DW_TAG_subroutine_type ]
!135 = metadata !{null, metadata !79, metadata !136}
!136 = metadata !{i32 786454, null, metadata !"ap_ulong", metadata !57, i32 111, i64 0, i64 0, i64 0, i32 0, metadata !137} ; [ DW_TAG_typedef ]
!137 = metadata !{i32 786468, null, metadata !"long long unsigned int", null, i32 0, i64 64, i64 64, i64 0, i32 0, i32 7} ; [ DW_TAG_base_type ]
!138 = metadata !{i32 786478, i32 0, metadata !56, metadata !"ap_int_base", metadata !"ap_int_base", metadata !"", metadata !57, i32 1527, metadata !139, i1 false, i1 false, i32 0, i32 0, null, i32 384, i1 false, null, null, i32 0, metadata !69, i32 1527} ; [ DW_TAG_subprogram ]
!139 = metadata !{i32 786453, i32 0, metadata !"", i32 0, i32 0, i64 0, i64 0, i64 0, i32 0, null, metadata !140, i32 0, i32 0} ; [ DW_TAG_subroutine_type ]
!140 = metadata !{null, metadata !79, metadata !141}
!141 = metadata !{i32 786454, null, metadata !"half", metadata !57, i32 54, i64 0, i64 0, i64 0, i32 0, metadata !142} ; [ DW_TAG_typedef ]
!142 = metadata !{i32 786468, null, metadata !"half", null, i32 0, i64 16, i64 16, i64 0, i32 0, i32 4} ; [ DW_TAG_base_type ]
!143 = metadata !{i32 786478, i32 0, metadata !56, metadata !"ap_int_base", metadata !"ap_int_base", metadata !"", metadata !57, i32 1528, metadata !144, i1 false, i1 false, i32 0, i32 0, null, i32 384, i1 false, null, null, i32 0, metadata !69, i32 1528} ; [ DW_TAG_subprogram ]
!144 = metadata !{i32 786453, i32 0, metadata !"", i32 0, i32 0, i64 0, i64 0, i64 0, i32 0, null, metadata !145, i32 0, i32 0} ; [ DW_TAG_subroutine_type ]
!145 = metadata !{null, metadata !79, metadata !146}
!146 = metadata !{i32 786468, null, metadata !"float", null, i32 0, i64 32, i64 32, i64 0, i32 0, i32 4} ; [ DW_TAG_base_type ]
!147 = metadata !{i32 786478, i32 0, metadata !56, metadata !"ap_int_base", metadata !"ap_int_base", metadata !"", metadata !57, i32 1529, metadata !148, i1 false, i1 false, i32 0, i32 0, null, i32 384, i1 false, null, null, i32 0, metadata !69, i32 1529} ; [ DW_TAG_subprogram ]
!148 = metadata !{i32 786453, i32 0, metadata !"", i32 0, i32 0, i64 0, i64 0, i64 0, i32 0, null, metadata !149, i32 0, i32 0} ; [ DW_TAG_subroutine_type ]
!149 = metadata !{null, metadata !79, metadata !150}
!150 = metadata !{i32 786468, null, metadata !"double", null, i32 0, i64 64, i64 64, i64 0, i32 0, i32 4} ; [ DW_TAG_base_type ]
!151 = metadata !{i32 786478, i32 0, metadata !56, metadata !"ap_int_base", metadata !"ap_int_base", metadata !"", metadata !57, i32 1556, metadata !152, i1 false, i1 false, i32 0, i32 0, null, i32 256, i1 false, null, null, i32 0, metadata !69, i32 1556} ; [ DW_TAG_subprogram ]
!152 = metadata !{i32 786453, i32 0, metadata !"", i32 0, i32 0, i64 0, i64 0, i64 0, i32 0, null, metadata !153, i32 0, i32 0} ; [ DW_TAG_subroutine_type ]
!153 = metadata !{null, metadata !79, metadata !154}
!154 = metadata !{i32 786447, null, metadata !"", null, i32 0, i64 64, i64 64, i64 0, i32 0, metadata !155} ; [ DW_TAG_pointer_type ]
!155 = metadata !{i32 786470, null, metadata !"", null, i32 0, i64 0, i64 0, i64 0, i32 0, metadata !156} ; [ DW_TAG_const_type ]
!156 = metadata !{i32 786468, null, metadata !"char", null, i32 0, i64 8, i64 8, i64 0, i32 0, i32 6} ; [ DW_TAG_base_type ]
!157 = metadata !{i32 786478, i32 0, metadata !56, metadata !"ap_int_base", metadata !"ap_int_base", metadata !"", metadata !57, i32 1563, metadata !158, i1 false, i1 false, i32 0, i32 0, null, i32 256, i1 false, null, null, i32 0, metadata !69, i32 1563} ; [ DW_TAG_subprogram ]
!158 = metadata !{i32 786453, i32 0, metadata !"", i32 0, i32 0, i64 0, i64 0, i64 0, i32 0, null, metadata !159, i32 0, i32 0} ; [ DW_TAG_subroutine_type ]
!159 = metadata !{null, metadata !79, metadata !154, metadata !100}
!160 = metadata !{i32 786478, i32 0, metadata !56, metadata !"read", metadata !"read", metadata !"_ZNV11ap_int_baseILi32ELb0ELb1EE4readEv", metadata !57, i32 1584, metadata !161, i1 false, i1 false, i32 0, i32 0, null, i32 256, i1 false, null, null, i32 0, metadata !69, i32 1584} ; [ DW_TAG_subprogram ]
!161 = metadata !{i32 786453, i32 0, metadata !"", i32 0, i32 0, i64 0, i64 0, i64 0, i32 0, null, metadata !162, i32 0, i32 0} ; [ DW_TAG_subroutine_type ]
!162 = metadata !{metadata !56, metadata !163}
!163 = metadata !{i32 786447, i32 0, metadata !"", i32 0, i32 0, i64 64, i64 64, i64 0, i32 64, metadata !93} ; [ DW_TAG_pointer_type ]
!164 = metadata !{i32 786478, i32 0, metadata !56, metadata !"write", metadata !"write", metadata !"_ZNV11ap_int_baseILi32ELb0ELb1EE5writeERKS0_", metadata !57, i32 1590, metadata !165, i1 false, i1 false, i32 0, i32 0, null, i32 256, i1 false, null, null, i32 0, metadata !69, i32 1590} ; [ DW_TAG_subprogram ]
!165 = metadata !{i32 786453, i32 0, metadata !"", i32 0, i32 0, i64 0, i64 0, i64 0, i32 0, null, metadata !166, i32 0, i32 0} ; [ DW_TAG_subroutine_type ]
!166 = metadata !{null, metadata !163, metadata !83}
!167 = metadata !{i32 786478, i32 0, metadata !56, metadata !"operator=", metadata !"operator=", metadata !"_ZNV11ap_int_baseILi32ELb0ELb1EEaSERVKS0_", metadata !57, i32 1602, metadata !168, i1 false, i1 false, i32 0, i32 0, null, i32 256, i1 false, null, null, i32 0, metadata !69, i32 1602} ; [ DW_TAG_subprogram ]
!168 = metadata !{i32 786453, i32 0, metadata !"", i32 0, i32 0, i64 0, i64 0, i64 0, i32 0, null, metadata !169, i32 0, i32 0} ; [ DW_TAG_subroutine_type ]
!169 = metadata !{null, metadata !163, metadata !91}
!170 = metadata !{i32 786478, i32 0, metadata !56, metadata !"operator=", metadata !"operator=", metadata !"_ZNV11ap_int_baseILi32ELb0ELb1EEaSERKS0_", metadata !57, i32 1611, metadata !165, i1 false, i1 false, i32 0, i32 0, null, i32 256, i1 false, null, null, i32 0, metadata !69, i32 1611} ; [ DW_TAG_subprogram ]
!171 = metadata !{i32 786478, i32 0, metadata !56, metadata !"operator=", metadata !"operator=", metadata !"_ZN11ap_int_baseILi32ELb0ELb1EEaSERVKS0_", metadata !57, i32 1634, metadata !172, i1 false, i1 false, i32 0, i32 0, null, i32 256, i1 false, null, null, i32 0, metadata !69, i32 1634} ; [ DW_TAG_subprogram ]
!172 = metadata !{i32 786453, i32 0, metadata !"", i32 0, i32 0, i64 0, i64 0, i64 0, i32 0, null, metadata !173, i32 0, i32 0} ; [ DW_TAG_subroutine_type ]
!173 = metadata !{metadata !174, metadata !79, metadata !91}
!174 = metadata !{i32 786448, null, null, null, i32 0, i64 0, i64 0, i64 0, i32 0, metadata !56} ; [ DW_TAG_reference_type ]
!175 = metadata !{i32 786478, i32 0, metadata !56, metadata !"operator=", metadata !"operator=", metadata !"_ZN11ap_int_baseILi32ELb0ELb1EEaSERKS0_", metadata !57, i32 1639, metadata !176, i1 false, i1 false, i32 0, i32 0, null, i32 256, i1 false, null, null, i32 0, metadata !69, i32 1639} ; [ DW_TAG_subprogram ]
!176 = metadata !{i32 786453, i32 0, metadata !"", i32 0, i32 0, i64 0, i64 0, i64 0, i32 0, null, metadata !177, i32 0, i32 0} ; [ DW_TAG_subroutine_type ]
!177 = metadata !{metadata !174, metadata !79, metadata !83}
!178 = metadata !{i32 786478, i32 0, metadata !56, metadata !"operator=", metadata !"operator=", metadata !"_ZN11ap_int_baseILi32ELb0ELb1EEaSEPKc", metadata !57, i32 1643, metadata !179, i1 false, i1 false, i32 0, i32 0, null, i32 256, i1 false, null, null, i32 0, metadata !69, i32 1643} ; [ DW_TAG_subprogram ]
!179 = metadata !{i32 786453, i32 0, metadata !"", i32 0, i32 0, i64 0, i64 0, i64 0, i32 0, null, metadata !180, i32 0, i32 0} ; [ DW_TAG_subroutine_type ]
!180 = metadata !{metadata !174, metadata !79, metadata !154}
!181 = metadata !{i32 786478, i32 0, metadata !56, metadata !"set", metadata !"set", metadata !"_ZN11ap_int_baseILi32ELb0ELb1EE3setEPKca", metadata !57, i32 1651, metadata !182, i1 false, i1 false, i32 0, i32 0, null, i32 256, i1 false, null, null, i32 0, metadata !69, i32 1651} ; [ DW_TAG_subprogram ]
!182 = metadata !{i32 786453, i32 0, metadata !"", i32 0, i32 0, i64 0, i64 0, i64 0, i32 0, null, metadata !183, i32 0, i32 0} ; [ DW_TAG_subroutine_type ]
!183 = metadata !{metadata !174, metadata !79, metadata !154, metadata !100}
!184 = metadata !{i32 786478, i32 0, metadata !56, metadata !"operator=", metadata !"operator=", metadata !"_ZN11ap_int_baseILi32ELb0ELb1EEaSEa", metadata !57, i32 1665, metadata !185, i1 false, i1 false, i32 0, i32 0, null, i32 256, i1 false, null, null, i32 0, metadata !69, i32 1665} ; [ DW_TAG_subprogram ]
!185 = metadata !{i32 786453, i32 0, metadata !"", i32 0, i32 0, i64 0, i64 0, i64 0, i32 0, null, metadata !186, i32 0, i32 0} ; [ DW_TAG_subroutine_type ]
!186 = metadata !{metadata !174, metadata !79, metadata !100}
!187 = metadata !{i32 786478, i32 0, metadata !56, metadata !"operator=", metadata !"operator=", metadata !"_ZN11ap_int_baseILi32ELb0ELb1EEaSEh", metadata !57, i32 1666, metadata !188, i1 false, i1 false, i32 0, i32 0, null, i32 256, i1 false, null, null, i32 0, metadata !69, i32 1666} ; [ DW_TAG_subprogram ]
!188 = metadata !{i32 786453, i32 0, metadata !"", i32 0, i32 0, i64 0, i64 0, i64 0, i32 0, null, metadata !189, i32 0, i32 0} ; [ DW_TAG_subroutine_type ]
!189 = metadata !{metadata !174, metadata !79, metadata !104}
!190 = metadata !{i32 786478, i32 0, metadata !56, metadata !"operator=", metadata !"operator=", metadata !"_ZN11ap_int_baseILi32ELb0ELb1EEaSEs", metadata !57, i32 1667, metadata !191, i1 false, i1 false, i32 0, i32 0, null, i32 256, i1 false, null, null, i32 0, metadata !69, i32 1667} ; [ DW_TAG_subprogram ]
!191 = metadata !{i32 786453, i32 0, metadata !"", i32 0, i32 0, i64 0, i64 0, i64 0, i32 0, null, metadata !192, i32 0, i32 0} ; [ DW_TAG_subroutine_type ]
!192 = metadata !{metadata !174, metadata !79, metadata !108}
!193 = metadata !{i32 786478, i32 0, metadata !56, metadata !"operator=", metadata !"operator=", metadata !"_ZN11ap_int_baseILi32ELb0ELb1EEaSEt", metadata !57, i32 1668, metadata !194, i1 false, i1 false, i32 0, i32 0, null, i32 256, i1 false, null, null, i32 0, metadata !69, i32 1668} ; [ DW_TAG_subprogram ]
!194 = metadata !{i32 786453, i32 0, metadata !"", i32 0, i32 0, i64 0, i64 0, i64 0, i32 0, null, metadata !195, i32 0, i32 0} ; [ DW_TAG_subroutine_type ]
!195 = metadata !{metadata !174, metadata !79, metadata !112}
!196 = metadata !{i32 786478, i32 0, metadata !56, metadata !"operator=", metadata !"operator=", metadata !"_ZN11ap_int_baseILi32ELb0ELb1EEaSEi", metadata !57, i32 1669, metadata !197, i1 false, i1 false, i32 0, i32 0, null, i32 256, i1 false, null, null, i32 0, metadata !69, i32 1669} ; [ DW_TAG_subprogram ]
!197 = metadata !{i32 786453, i32 0, metadata !"", i32 0, i32 0, i64 0, i64 0, i64 0, i32 0, null, metadata !198, i32 0, i32 0} ; [ DW_TAG_subroutine_type ]
!198 = metadata !{metadata !174, metadata !79, metadata !73}
!199 = metadata !{i32 786478, i32 0, metadata !56, metadata !"operator=", metadata !"operator=", metadata !"_ZN11ap_int_baseILi32ELb0ELb1EEaSEj", metadata !57, i32 1670, metadata !200, i1 false, i1 false, i32 0, i32 0, null, i32 256, i1 false, null, null, i32 0, metadata !69, i32 1670} ; [ DW_TAG_subprogram ]
!200 = metadata !{i32 786453, i32 0, metadata !"", i32 0, i32 0, i64 0, i64 0, i64 0, i32 0, null, metadata !201, i32 0, i32 0} ; [ DW_TAG_subroutine_type ]
!201 = metadata !{metadata !174, metadata !79, metadata !119}
!202 = metadata !{i32 786478, i32 0, metadata !56, metadata !"operator=", metadata !"operator=", metadata !"_ZN11ap_int_baseILi32ELb0ELb1EEaSEx", metadata !57, i32 1671, metadata !203, i1 false, i1 false, i32 0, i32 0, null, i32 256, i1 false, null, null, i32 0, metadata !69, i32 1671} ; [ DW_TAG_subprogram ]
!203 = metadata !{i32 786453, i32 0, metadata !"", i32 0, i32 0, i64 0, i64 0, i64 0, i32 0, null, metadata !204, i32 0, i32 0} ; [ DW_TAG_subroutine_type ]
!204 = metadata !{metadata !174, metadata !79, metadata !131}
!205 = metadata !{i32 786478, i32 0, metadata !56, metadata !"operator=", metadata !"operator=", metadata !"_ZN11ap_int_baseILi32ELb0ELb1EEaSEy", metadata !57, i32 1672, metadata !206, i1 false, i1 false, i32 0, i32 0, null, i32 256, i1 false, null, null, i32 0, metadata !69, i32 1672} ; [ DW_TAG_subprogram ]
!206 = metadata !{i32 786453, i32 0, metadata !"", i32 0, i32 0, i64 0, i64 0, i64 0, i32 0, null, metadata !207, i32 0, i32 0} ; [ DW_TAG_subroutine_type ]
!207 = metadata !{metadata !174, metadata !79, metadata !136}
!208 = metadata !{i32 786478, i32 0, metadata !56, metadata !"operator unsigned int", metadata !"operator unsigned int", metadata !"_ZNK11ap_int_baseILi32ELb0ELb1EEcvjEv", metadata !57, i32 1710, metadata !209, i1 false, i1 false, i32 0, i32 0, null, i32 256, i1 false, null, null, i32 0, metadata !69, i32 1710} ; [ DW_TAG_subprogram ]
!209 = metadata !{i32 786453, i32 0, metadata !"", i32 0, i32 0, i64 0, i64 0, i64 0, i32 0, null, metadata !210, i32 0, i32 0} ; [ DW_TAG_subroutine_type ]
!210 = metadata !{metadata !211, metadata !217}
!211 = metadata !{i32 786454, metadata !56, metadata !"RetType", metadata !57, i32 1458, i64 0, i64 0, i64 0, i32 0, metadata !212} ; [ DW_TAG_typedef ]
!212 = metadata !{i32 786454, metadata !213, metadata !"Type", metadata !57, i32 1444, i64 0, i64 0, i64 0, i32 0, metadata !119} ; [ DW_TAG_typedef ]
!213 = metadata !{i32 786434, null, metadata !"retval<4, false>", metadata !57, i32 1443, i64 8, i64 8, i32 0, i32 0, null, metadata !214, i32 0, null, metadata !215} ; [ DW_TAG_class_type ]
!214 = metadata !{i32 0}
!215 = metadata !{metadata !216, metadata !74}
!216 = metadata !{i32 786480, null, metadata !"_AP_N", metadata !73, i64 4, null, i32 0, i32 0} ; [ DW_TAG_template_value_parameter ]
!217 = metadata !{i32 786447, i32 0, metadata !"", i32 0, i32 0, i64 64, i64 64, i64 0, i32 64, metadata !84} ; [ DW_TAG_pointer_type ]
!218 = metadata !{i32 786478, i32 0, metadata !56, metadata !"to_bool", metadata !"to_bool", metadata !"_ZNK11ap_int_baseILi32ELb0ELb1EE7to_boolEv", metadata !57, i32 1716, metadata !219, i1 false, i1 false, i32 0, i32 0, null, i32 256, i1 false, null, null, i32 0, metadata !69, i32 1716} ; [ DW_TAG_subprogram ]
!219 = metadata !{i32 786453, i32 0, metadata !"", i32 0, i32 0, i64 0, i64 0, i64 0, i32 0, null, metadata !220, i32 0, i32 0} ; [ DW_TAG_subroutine_type ]
!220 = metadata !{metadata !75, metadata !217}
!221 = metadata !{i32 786478, i32 0, metadata !56, metadata !"to_uchar", metadata !"to_uchar", metadata !"_ZNK11ap_int_baseILi32ELb0ELb1EE8to_ucharEv", metadata !57, i32 1717, metadata !222, i1 false, i1 false, i32 0, i32 0, null, i32 256, i1 false, null, null, i32 0, metadata !69, i32 1717} ; [ DW_TAG_subprogram ]
!222 = metadata !{i32 786453, i32 0, metadata !"", i32 0, i32 0, i64 0, i64 0, i64 0, i32 0, null, metadata !223, i32 0, i32 0} ; [ DW_TAG_subroutine_type ]
!223 = metadata !{metadata !104, metadata !217}
!224 = metadata !{i32 786478, i32 0, metadata !56, metadata !"to_char", metadata !"to_char", metadata !"_ZNK11ap_int_baseILi32ELb0ELb1EE7to_charEv", metadata !57, i32 1718, metadata !225, i1 false, i1 false, i32 0, i32 0, null, i32 256, i1 false, null, null, i32 0, metadata !69, i32 1718} ; [ DW_TAG_subprogram ]
!225 = metadata !{i32 786453, i32 0, metadata !"", i32 0, i32 0, i64 0, i64 0, i64 0, i32 0, null, metadata !226, i32 0, i32 0} ; [ DW_TAG_subroutine_type ]
!226 = metadata !{metadata !100, metadata !217}
!227 = metadata !{i32 786478, i32 0, metadata !56, metadata !"to_ushort", metadata !"to_ushort", metadata !"_ZNK11ap_int_baseILi32ELb0ELb1EE9to_ushortEv", metadata !57, i32 1719, metadata !228, i1 false, i1 false, i32 0, i32 0, null, i32 256, i1 false, null, null, i32 0, metadata !69, i32 1719} ; [ DW_TAG_subprogram ]
!228 = metadata !{i32 786453, i32 0, metadata !"", i32 0, i32 0, i64 0, i64 0, i64 0, i32 0, null, metadata !229, i32 0, i32 0} ; [ DW_TAG_subroutine_type ]
!229 = metadata !{metadata !112, metadata !217}
!230 = metadata !{i32 786478, i32 0, metadata !56, metadata !"to_short", metadata !"to_short", metadata !"_ZNK11ap_int_baseILi32ELb0ELb1EE8to_shortEv", metadata !57, i32 1720, metadata !231, i1 false, i1 false, i32 0, i32 0, null, i32 256, i1 false, null, null, i32 0, metadata !69, i32 1720} ; [ DW_TAG_subprogram ]
!231 = metadata !{i32 786453, i32 0, metadata !"", i32 0, i32 0, i64 0, i64 0, i64 0, i32 0, null, metadata !232, i32 0, i32 0} ; [ DW_TAG_subroutine_type ]
!232 = metadata !{metadata !108, metadata !217}
!233 = metadata !{i32 786478, i32 0, metadata !56, metadata !"to_int", metadata !"to_int", metadata !"_ZNK11ap_int_baseILi32ELb0ELb1EE6to_intEv", metadata !57, i32 1721, metadata !234, i1 false, i1 false, i32 0, i32 0, null, i32 256, i1 false, null, null, i32 0, metadata !69, i32 1721} ; [ DW_TAG_subprogram ]
!234 = metadata !{i32 786453, i32 0, metadata !"", i32 0, i32 0, i64 0, i64 0, i64 0, i32 0, null, metadata !235, i32 0, i32 0} ; [ DW_TAG_subroutine_type ]
!235 = metadata !{metadata !73, metadata !217}
!236 = metadata !{i32 786478, i32 0, metadata !56, metadata !"to_uint", metadata !"to_uint", metadata !"_ZNK11ap_int_baseILi32ELb0ELb1EE7to_uintEv", metadata !57, i32 1722, metadata !237, i1 false, i1 false, i32 0, i32 0, null, i32 256, i1 false, null, null, i32 0, metadata !69, i32 1722} ; [ DW_TAG_subprogram ]
!237 = metadata !{i32 786453, i32 0, metadata !"", i32 0, i32 0, i64 0, i64 0, i64 0, i32 0, null, metadata !238, i32 0, i32 0} ; [ DW_TAG_subroutine_type ]
!238 = metadata !{metadata !119, metadata !217}
!239 = metadata !{i32 786478, i32 0, metadata !56, metadata !"to_long", metadata !"to_long", metadata !"_ZNK11ap_int_baseILi32ELb0ELb1EE7to_longEv", metadata !57, i32 1723, metadata !240, i1 false, i1 false, i32 0, i32 0, null, i32 256, i1 false, null, null, i32 0, metadata !69, i32 1723} ; [ DW_TAG_subprogram ]
!240 = metadata !{i32 786453, i32 0, metadata !"", i32 0, i32 0, i64 0, i64 0, i64 0, i32 0, null, metadata !241, i32 0, i32 0} ; [ DW_TAG_subroutine_type ]
!241 = metadata !{metadata !123, metadata !217}
!242 = metadata !{i32 786478, i32 0, metadata !56, metadata !"to_ulong", metadata !"to_ulong", metadata !"_ZNK11ap_int_baseILi32ELb0ELb1EE8to_ulongEv", metadata !57, i32 1724, metadata !243, i1 false, i1 false, i32 0, i32 0, null, i32 256, i1 false, null, null, i32 0, metadata !69, i32 1724} ; [ DW_TAG_subprogram ]
!243 = metadata !{i32 786453, i32 0, metadata !"", i32 0, i32 0, i64 0, i64 0, i64 0, i32 0, null, metadata !244, i32 0, i32 0} ; [ DW_TAG_subroutine_type ]
!244 = metadata !{metadata !127, metadata !217}
!245 = metadata !{i32 786478, i32 0, metadata !56, metadata !"to_int64", metadata !"to_int64", metadata !"_ZNK11ap_int_baseILi32ELb0ELb1EE8to_int64Ev", metadata !57, i32 1725, metadata !246, i1 false, i1 false, i32 0, i32 0, null, i32 256, i1 false, null, null, i32 0, metadata !69, i32 1725} ; [ DW_TAG_subprogram ]
!246 = metadata !{i32 786453, i32 0, metadata !"", i32 0, i32 0, i64 0, i64 0, i64 0, i32 0, null, metadata !247, i32 0, i32 0} ; [ DW_TAG_subroutine_type ]
!247 = metadata !{metadata !131, metadata !217}
!248 = metadata !{i32 786478, i32 0, metadata !56, metadata !"to_uint64", metadata !"to_uint64", metadata !"_ZNK11ap_int_baseILi32ELb0ELb1EE9to_uint64Ev", metadata !57, i32 1726, metadata !249, i1 false, i1 false, i32 0, i32 0, null, i32 256, i1 false, null, null, i32 0, metadata !69, i32 1726} ; [ DW_TAG_subprogram ]
!249 = metadata !{i32 786453, i32 0, metadata !"", i32 0, i32 0, i64 0, i64 0, i64 0, i32 0, null, metadata !250, i32 0, i32 0} ; [ DW_TAG_subroutine_type ]
!250 = metadata !{metadata !136, metadata !217}
!251 = metadata !{i32 786478, i32 0, metadata !56, metadata !"to_double", metadata !"to_double", metadata !"_ZNK11ap_int_baseILi32ELb0ELb1EE9to_doubleEv", metadata !57, i32 1727, metadata !252, i1 false, i1 false, i32 0, i32 0, null, i32 256, i1 false, null, null, i32 0, metadata !69, i32 1727} ; [ DW_TAG_subprogram ]
!252 = metadata !{i32 786453, i32 0, metadata !"", i32 0, i32 0, i64 0, i64 0, i64 0, i32 0, null, metadata !253, i32 0, i32 0} ; [ DW_TAG_subroutine_type ]
!253 = metadata !{metadata !150, metadata !217}
!254 = metadata !{i32 786478, i32 0, metadata !56, metadata !"length", metadata !"length", metadata !"_ZNK11ap_int_baseILi32ELb0ELb1EE6lengthEv", metadata !57, i32 1741, metadata !234, i1 false, i1 false, i32 0, i32 0, null, i32 256, i1 false, null, null, i32 0, metadata !69, i32 1741} ; [ DW_TAG_subprogram ]
!255 = metadata !{i32 786478, i32 0, metadata !56, metadata !"length", metadata !"length", metadata !"_ZNVK11ap_int_baseILi32ELb0ELb1EE6lengthEv", metadata !57, i32 1742, metadata !256, i1 false, i1 false, i32 0, i32 0, null, i32 256, i1 false, null, null, i32 0, metadata !69, i32 1742} ; [ DW_TAG_subprogram ]
!256 = metadata !{i32 786453, i32 0, metadata !"", i32 0, i32 0, i64 0, i64 0, i64 0, i32 0, null, metadata !257, i32 0, i32 0} ; [ DW_TAG_subroutine_type ]
!257 = metadata !{metadata !73, metadata !258}
!258 = metadata !{i32 786447, i32 0, metadata !"", i32 0, i32 0, i64 64, i64 64, i64 0, i32 64, metadata !92} ; [ DW_TAG_pointer_type ]
!259 = metadata !{i32 786478, i32 0, metadata !56, metadata !"reverse", metadata !"reverse", metadata !"_ZN11ap_int_baseILi32ELb0ELb1EE7reverseEv", metadata !57, i32 1747, metadata !260, i1 false, i1 false, i32 0, i32 0, null, i32 256, i1 false, null, null, i32 0, metadata !69, i32 1747} ; [ DW_TAG_subprogram ]
!260 = metadata !{i32 786453, i32 0, metadata !"", i32 0, i32 0, i64 0, i64 0, i64 0, i32 0, null, metadata !261, i32 0, i32 0} ; [ DW_TAG_subroutine_type ]
!261 = metadata !{metadata !174, metadata !79}
!262 = metadata !{i32 786478, i32 0, metadata !56, metadata !"iszero", metadata !"iszero", metadata !"_ZNK11ap_int_baseILi32ELb0ELb1EE6iszeroEv", metadata !57, i32 1753, metadata !219, i1 false, i1 false, i32 0, i32 0, null, i32 256, i1 false, null, null, i32 0, metadata !69, i32 1753} ; [ DW_TAG_subprogram ]
!263 = metadata !{i32 786478, i32 0, metadata !56, metadata !"is_zero", metadata !"is_zero", metadata !"_ZNK11ap_int_baseILi32ELb0ELb1EE7is_zeroEv", metadata !57, i32 1758, metadata !219, i1 false, i1 false, i32 0, i32 0, null, i32 256, i1 false, null, null, i32 0, metadata !69, i32 1758} ; [ DW_TAG_subprogram ]
!264 = metadata !{i32 786478, i32 0, metadata !56, metadata !"sign", metadata !"sign", metadata !"_ZNK11ap_int_baseILi32ELb0ELb1EE4signEv", metadata !57, i32 1763, metadata !219, i1 false, i1 false, i32 0, i32 0, null, i32 256, i1 false, null, null, i32 0, metadata !69, i32 1763} ; [ DW_TAG_subprogram ]
!265 = metadata !{i32 786478, i32 0, metadata !56, metadata !"clear", metadata !"clear", metadata !"_ZN11ap_int_baseILi32ELb0ELb1EE5clearEi", metadata !57, i32 1771, metadata !114, i1 false, i1 false, i32 0, i32 0, null, i32 256, i1 false, null, null, i32 0, metadata !69, i32 1771} ; [ DW_TAG_subprogram ]
!266 = metadata !{i32 786478, i32 0, metadata !56, metadata !"invert", metadata !"invert", metadata !"_ZN11ap_int_baseILi32ELb0ELb1EE6invertEi", metadata !57, i32 1777, metadata !114, i1 false, i1 false, i32 0, i32 0, null, i32 256, i1 false, null, null, i32 0, metadata !69, i32 1777} ; [ DW_TAG_subprogram ]
!267 = metadata !{i32 786478, i32 0, metadata !56, metadata !"test", metadata !"test", metadata !"_ZNK11ap_int_baseILi32ELb0ELb1EE4testEi", metadata !57, i32 1785, metadata !268, i1 false, i1 false, i32 0, i32 0, null, i32 256, i1 false, null, null, i32 0, metadata !69, i32 1785} ; [ DW_TAG_subprogram ]
!268 = metadata !{i32 786453, i32 0, metadata !"", i32 0, i32 0, i64 0, i64 0, i64 0, i32 0, null, metadata !269, i32 0, i32 0} ; [ DW_TAG_subroutine_type ]
!269 = metadata !{metadata !75, metadata !217, metadata !73}
!270 = metadata !{i32 786478, i32 0, metadata !56, metadata !"set", metadata !"set", metadata !"_ZN11ap_int_baseILi32ELb0ELb1EE3setEi", metadata !57, i32 1791, metadata !114, i1 false, i1 false, i32 0, i32 0, null, i32 256, i1 false, null, null, i32 0, metadata !69, i32 1791} ; [ DW_TAG_subprogram ]
!271 = metadata !{i32 786478, i32 0, metadata !56, metadata !"set", metadata !"set", metadata !"_ZN11ap_int_baseILi32ELb0ELb1EE3setEib", metadata !57, i32 1797, metadata !272, i1 false, i1 false, i32 0, i32 0, null, i32 256, i1 false, null, null, i32 0, metadata !69, i32 1797} ; [ DW_TAG_subprogram ]
!272 = metadata !{i32 786453, i32 0, metadata !"", i32 0, i32 0, i64 0, i64 0, i64 0, i32 0, null, metadata !273, i32 0, i32 0} ; [ DW_TAG_subroutine_type ]
!273 = metadata !{null, metadata !79, metadata !73, metadata !75}
!274 = metadata !{i32 786478, i32 0, metadata !56, metadata !"lrotate", metadata !"lrotate", metadata !"_ZN11ap_int_baseILi32ELb0ELb1EE7lrotateEi", metadata !57, i32 1804, metadata !114, i1 false, i1 false, i32 0, i32 0, null, i32 256, i1 false, null, null, i32 0, metadata !69, i32 1804} ; [ DW_TAG_subprogram ]
!275 = metadata !{i32 786478, i32 0, metadata !56, metadata !"rrotate", metadata !"rrotate", metadata !"_ZN11ap_int_baseILi32ELb0ELb1EE7rrotateEi", metadata !57, i32 1813, metadata !114, i1 false, i1 false, i32 0, i32 0, null, i32 256, i1 false, null, null, i32 0, metadata !69, i32 1813} ; [ DW_TAG_subprogram ]
!276 = metadata !{i32 786478, i32 0, metadata !56, metadata !"set_bit", metadata !"set_bit", metadata !"_ZN11ap_int_baseILi32ELb0ELb1EE7set_bitEib", metadata !57, i32 1821, metadata !272, i1 false, i1 false, i32 0, i32 0, null, i32 256, i1 false, null, null, i32 0, metadata !69, i32 1821} ; [ DW_TAG_subprogram ]
!277 = metadata !{i32 786478, i32 0, metadata !56, metadata !"get_bit", metadata !"get_bit", metadata !"_ZNK11ap_int_baseILi32ELb0ELb1EE7get_bitEi", metadata !57, i32 1826, metadata !268, i1 false, i1 false, i32 0, i32 0, null, i32 256, i1 false, null, null, i32 0, metadata !69, i32 1826} ; [ DW_TAG_subprogram ]
!278 = metadata !{i32 786478, i32 0, metadata !56, metadata !"b_not", metadata !"b_not", metadata !"_ZN11ap_int_baseILi32ELb0ELb1EE5b_notEv", metadata !57, i32 1831, metadata !77, i1 false, i1 false, i32 0, i32 0, null, i32 256, i1 false, null, null, i32 0, metadata !69, i32 1831} ; [ DW_TAG_subprogram ]
!279 = metadata !{i32 786478, i32 0, metadata !56, metadata !"countLeadingZeros", metadata !"countLeadingZeros", metadata !"_ZN11ap_int_baseILi32ELb0ELb1EE17countLeadingZerosEv", metadata !57, i32 1838, metadata !280, i1 false, i1 false, i32 0, i32 0, null, i32 256, i1 false, null, null, i32 0, metadata !69, i32 1838} ; [ DW_TAG_subprogram ]
!280 = metadata !{i32 786453, i32 0, metadata !"", i32 0, i32 0, i64 0, i64 0, i64 0, i32 0, null, metadata !281, i32 0, i32 0} ; [ DW_TAG_subroutine_type ]
!281 = metadata !{metadata !73, metadata !79}
!282 = metadata !{i32 786478, i32 0, metadata !56, metadata !"operator++", metadata !"operator++", metadata !"_ZN11ap_int_baseILi32ELb0ELb1EEppEv", metadata !57, i32 1895, metadata !260, i1 false, i1 false, i32 0, i32 0, null, i32 256, i1 false, null, null, i32 0, metadata !69, i32 1895} ; [ DW_TAG_subprogram ]
!283 = metadata !{i32 786478, i32 0, metadata !56, metadata !"operator--", metadata !"operator--", metadata !"_ZN11ap_int_baseILi32ELb0ELb1EEmmEv", metadata !57, i32 1899, metadata !260, i1 false, i1 false, i32 0, i32 0, null, i32 256, i1 false, null, null, i32 0, metadata !69, i32 1899} ; [ DW_TAG_subprogram ]
!284 = metadata !{i32 786478, i32 0, metadata !56, metadata !"operator++", metadata !"operator++", metadata !"_ZN11ap_int_baseILi32ELb0ELb1EEppEi", metadata !57, i32 1907, metadata !285, i1 false, i1 false, i32 0, i32 0, null, i32 256, i1 false, null, null, i32 0, metadata !69, i32 1907} ; [ DW_TAG_subprogram ]
!285 = metadata !{i32 786453, i32 0, metadata !"", i32 0, i32 0, i64 0, i64 0, i64 0, i32 0, null, metadata !286, i32 0, i32 0} ; [ DW_TAG_subroutine_type ]
!286 = metadata !{metadata !84, metadata !79, metadata !73}
!287 = metadata !{i32 786478, i32 0, metadata !56, metadata !"operator--", metadata !"operator--", metadata !"_ZN11ap_int_baseILi32ELb0ELb1EEmmEi", metadata !57, i32 1912, metadata !285, i1 false, i1 false, i32 0, i32 0, null, i32 256, i1 false, null, null, i32 0, metadata !69, i32 1912} ; [ DW_TAG_subprogram ]
!288 = metadata !{i32 786478, i32 0, metadata !56, metadata !"operator+", metadata !"operator+", metadata !"_ZNK11ap_int_baseILi32ELb0ELb1EEpsEv", metadata !57, i32 1921, metadata !289, i1 false, i1 false, i32 0, i32 0, null, i32 256, i1 false, null, null, i32 0, metadata !69, i32 1921} ; [ DW_TAG_subprogram ]
!289 = metadata !{i32 786453, i32 0, metadata !"", i32 0, i32 0, i64 0, i64 0, i64 0, i32 0, null, metadata !290, i32 0, i32 0} ; [ DW_TAG_subroutine_type ]
!290 = metadata !{metadata !56, metadata !217}
!291 = metadata !{i32 786478, i32 0, metadata !56, metadata !"operator!", metadata !"operator!", metadata !"_ZNK11ap_int_baseILi32ELb0ELb1EEntEv", metadata !57, i32 1927, metadata !219, i1 false, i1 false, i32 0, i32 0, null, i32 256, i1 false, null, null, i32 0, metadata !69, i32 1927} ; [ DW_TAG_subprogram ]
!292 = metadata !{i32 786478, i32 0, metadata !56, metadata !"operator-", metadata !"operator-", metadata !"_ZNK11ap_int_baseILi32ELb0ELb1EEngEv", metadata !57, i32 1932, metadata !293, i1 false, i1 false, i32 0, i32 0, null, i32 256, i1 false, null, null, i32 0, metadata !69, i32 1932} ; [ DW_TAG_subprogram ]
!293 = metadata !{i32 786453, i32 0, metadata !"", i32 0, i32 0, i64 0, i64 0, i64 0, i32 0, null, metadata !294, i32 0, i32 0} ; [ DW_TAG_subroutine_type ]
!294 = metadata !{metadata !295, metadata !217}
!295 = metadata !{i32 786434, null, metadata !"ap_int_base<33, true, true>", metadata !57, i32 1453, i64 64, i64 64, i32 0, i32 0, null, metadata !296, i32 0, null, metadata !591} ; [ DW_TAG_class_type ]
!296 = metadata !{metadata !297, metadata !309, metadata !313, metadata !321, metadata !327, metadata !330, metadata !333, metadata !336, metadata !339, metadata !342, metadata !345, metadata !348, metadata !351, metadata !354, metadata !357, metadata !360, metadata !363, metadata !366, metadata !369, metadata !372, metadata !375, metadata !379, metadata !382, metadata !385, metadata !386, metadata !390, metadata !393, metadata !396, metadata !399, metadata !402, metadata !405, metadata !408, metadata !411, metadata !414, metadata !417, metadata !420, metadata !423, metadata !432, metadata !435, metadata !438, metadata !441, metadata !444, metadata !447, metadata !450, metadata !453, metadata !456, metadata !459, metadata !462, metadata !465, metadata !468, metadata !469, metadata !473, metadata !476, metadata !477, metadata !478, metadata !479, metadata !480, metadata !481, metadata !484, metadata !485, metadata !488, metadata !489, metadata !490, metadata !491, metadata !492, metadata !493, metadata !496, metadata !497, metadata !498, metadata !501, metadata !502, metadata !505, metadata !506, metadata !510, metadata !514, metadata !515, metadata !518, metadata !519, metadata !558, metadata !559, metadata !560, metadata !561, metadata !564, metadata !565, metadata !566, metadata !567, metadata !568, metadata !569, metadata !570, metadata !571, metadata !572, metadata !573, metadata !574, metadata !575, metadata !585, metadata !588}
!297 = metadata !{i32 786460, metadata !295, null, metadata !57, i32 0, i64 0, i64 0, i64 0, i32 0, metadata !298} ; [ DW_TAG_inheritance ]
!298 = metadata !{i32 786434, null, metadata !"ssdm_int<33 + 1024 * 0, true>", metadata !61, i32 35, i64 64, i64 64, i32 0, i32 0, null, metadata !299, i32 0, null, metadata !306} ; [ DW_TAG_class_type ]
!299 = metadata !{metadata !300, metadata !302}
!300 = metadata !{i32 786445, metadata !298, metadata !"V", metadata !61, i32 35, i64 33, i64 64, i64 0, i32 0, metadata !301} ; [ DW_TAG_member ]
!301 = metadata !{i32 786468, null, metadata !"int33", null, i32 0, i64 33, i64 64, i64 0, i32 0, i32 5} ; [ DW_TAG_base_type ]
!302 = metadata !{i32 786478, i32 0, metadata !298, metadata !"ssdm_int", metadata !"ssdm_int", metadata !"", metadata !61, i32 35, metadata !303, i1 false, i1 false, i32 0, i32 0, null, i32 256, i1 false, null, null, i32 0, metadata !69, i32 35} ; [ DW_TAG_subprogram ]
!303 = metadata !{i32 786453, i32 0, metadata !"", i32 0, i32 0, i64 0, i64 0, i64 0, i32 0, null, metadata !304, i32 0, i32 0} ; [ DW_TAG_subroutine_type ]
!304 = metadata !{null, metadata !305}
!305 = metadata !{i32 786447, i32 0, metadata !"", i32 0, i32 0, i64 64, i64 64, i64 0, i32 64, metadata !298} ; [ DW_TAG_pointer_type ]
!306 = metadata !{metadata !307, metadata !308}
!307 = metadata !{i32 786480, null, metadata !"_AP_N", metadata !73, i64 33, null, i32 0, i32 0} ; [ DW_TAG_template_value_parameter ]
!308 = metadata !{i32 786480, null, metadata !"_AP_S", metadata !75, i64 1, null, i32 0, i32 0} ; [ DW_TAG_template_value_parameter ]
!309 = metadata !{i32 786478, i32 0, metadata !295, metadata !"ap_int_base", metadata !"ap_int_base", metadata !"", metadata !57, i32 1494, metadata !310, i1 false, i1 false, i32 0, i32 0, null, i32 256, i1 false, null, null, i32 0, metadata !69, i32 1494} ; [ DW_TAG_subprogram ]
!310 = metadata !{i32 786453, i32 0, metadata !"", i32 0, i32 0, i64 0, i64 0, i64 0, i32 0, null, metadata !311, i32 0, i32 0} ; [ DW_TAG_subroutine_type ]
!311 = metadata !{null, metadata !312}
!312 = metadata !{i32 786447, i32 0, metadata !"", i32 0, i32 0, i64 64, i64 64, i64 0, i32 64, metadata !295} ; [ DW_TAG_pointer_type ]
!313 = metadata !{i32 786478, i32 0, metadata !295, metadata !"ap_int_base<33, true>", metadata !"ap_int_base<33, true>", metadata !"", metadata !57, i32 1506, metadata !314, i1 false, i1 false, i32 0, i32 0, null, i32 256, i1 false, null, metadata !318, i32 0, metadata !69, i32 1506} ; [ DW_TAG_subprogram ]
!314 = metadata !{i32 786453, i32 0, metadata !"", i32 0, i32 0, i64 0, i64 0, i64 0, i32 0, null, metadata !315, i32 0, i32 0} ; [ DW_TAG_subroutine_type ]
!315 = metadata !{null, metadata !312, metadata !316}
!316 = metadata !{i32 786448, null, null, null, i32 0, i64 0, i64 0, i64 0, i32 0, metadata !317} ; [ DW_TAG_reference_type ]
!317 = metadata !{i32 786470, null, metadata !"", null, i32 0, i64 0, i64 0, i64 0, i32 0, metadata !295} ; [ DW_TAG_const_type ]
!318 = metadata !{metadata !319, metadata !320}
!319 = metadata !{i32 786480, null, metadata !"_AP_W2", metadata !73, i64 33, null, i32 0, i32 0} ; [ DW_TAG_template_value_parameter ]
!320 = metadata !{i32 786480, null, metadata !"_AP_S2", metadata !75, i64 1, null, i32 0, i32 0} ; [ DW_TAG_template_value_parameter ]
!321 = metadata !{i32 786478, i32 0, metadata !295, metadata !"ap_int_base<33, true>", metadata !"ap_int_base<33, true>", metadata !"", metadata !57, i32 1509, metadata !322, i1 false, i1 false, i32 0, i32 0, null, i32 256, i1 false, null, metadata !318, i32 0, metadata !69, i32 1509} ; [ DW_TAG_subprogram ]
!322 = metadata !{i32 786453, i32 0, metadata !"", i32 0, i32 0, i64 0, i64 0, i64 0, i32 0, null, metadata !323, i32 0, i32 0} ; [ DW_TAG_subroutine_type ]
!323 = metadata !{null, metadata !312, metadata !324}
!324 = metadata !{i32 786448, null, null, null, i32 0, i64 0, i64 0, i64 0, i32 0, metadata !325} ; [ DW_TAG_reference_type ]
!325 = metadata !{i32 786470, null, metadata !"", null, i32 0, i64 0, i64 0, i64 0, i32 0, metadata !326} ; [ DW_TAG_const_type ]
!326 = metadata !{i32 786485, null, metadata !"", null, i32 0, i64 0, i64 0, i64 0, i32 0, metadata !295} ; [ DW_TAG_volatile_type ]
!327 = metadata !{i32 786478, i32 0, metadata !295, metadata !"ap_int_base", metadata !"ap_int_base", metadata !"", metadata !57, i32 1516, metadata !328, i1 false, i1 false, i32 0, i32 0, null, i32 384, i1 false, null, null, i32 0, metadata !69, i32 1516} ; [ DW_TAG_subprogram ]
!328 = metadata !{i32 786453, i32 0, metadata !"", i32 0, i32 0, i64 0, i64 0, i64 0, i32 0, null, metadata !329, i32 0, i32 0} ; [ DW_TAG_subroutine_type ]
!329 = metadata !{null, metadata !312, metadata !75}
!330 = metadata !{i32 786478, i32 0, metadata !295, metadata !"ap_int_base", metadata !"ap_int_base", metadata !"", metadata !57, i32 1517, metadata !331, i1 false, i1 false, i32 0, i32 0, null, i32 384, i1 false, null, null, i32 0, metadata !69, i32 1517} ; [ DW_TAG_subprogram ]
!331 = metadata !{i32 786453, i32 0, metadata !"", i32 0, i32 0, i64 0, i64 0, i64 0, i32 0, null, metadata !332, i32 0, i32 0} ; [ DW_TAG_subroutine_type ]
!332 = metadata !{null, metadata !312, metadata !100}
!333 = metadata !{i32 786478, i32 0, metadata !295, metadata !"ap_int_base", metadata !"ap_int_base", metadata !"", metadata !57, i32 1518, metadata !334, i1 false, i1 false, i32 0, i32 0, null, i32 384, i1 false, null, null, i32 0, metadata !69, i32 1518} ; [ DW_TAG_subprogram ]
!334 = metadata !{i32 786453, i32 0, metadata !"", i32 0, i32 0, i64 0, i64 0, i64 0, i32 0, null, metadata !335, i32 0, i32 0} ; [ DW_TAG_subroutine_type ]
!335 = metadata !{null, metadata !312, metadata !104}
!336 = metadata !{i32 786478, i32 0, metadata !295, metadata !"ap_int_base", metadata !"ap_int_base", metadata !"", metadata !57, i32 1519, metadata !337, i1 false, i1 false, i32 0, i32 0, null, i32 384, i1 false, null, null, i32 0, metadata !69, i32 1519} ; [ DW_TAG_subprogram ]
!337 = metadata !{i32 786453, i32 0, metadata !"", i32 0, i32 0, i64 0, i64 0, i64 0, i32 0, null, metadata !338, i32 0, i32 0} ; [ DW_TAG_subroutine_type ]
!338 = metadata !{null, metadata !312, metadata !108}
!339 = metadata !{i32 786478, i32 0, metadata !295, metadata !"ap_int_base", metadata !"ap_int_base", metadata !"", metadata !57, i32 1520, metadata !340, i1 false, i1 false, i32 0, i32 0, null, i32 384, i1 false, null, null, i32 0, metadata !69, i32 1520} ; [ DW_TAG_subprogram ]
!340 = metadata !{i32 786453, i32 0, metadata !"", i32 0, i32 0, i64 0, i64 0, i64 0, i32 0, null, metadata !341, i32 0, i32 0} ; [ DW_TAG_subroutine_type ]
!341 = metadata !{null, metadata !312, metadata !112}
!342 = metadata !{i32 786478, i32 0, metadata !295, metadata !"ap_int_base", metadata !"ap_int_base", metadata !"", metadata !57, i32 1521, metadata !343, i1 false, i1 false, i32 0, i32 0, null, i32 384, i1 false, null, null, i32 0, metadata !69, i32 1521} ; [ DW_TAG_subprogram ]
!343 = metadata !{i32 786453, i32 0, metadata !"", i32 0, i32 0, i64 0, i64 0, i64 0, i32 0, null, metadata !344, i32 0, i32 0} ; [ DW_TAG_subroutine_type ]
!344 = metadata !{null, metadata !312, metadata !73}
!345 = metadata !{i32 786478, i32 0, metadata !295, metadata !"ap_int_base", metadata !"ap_int_base", metadata !"", metadata !57, i32 1522, metadata !346, i1 false, i1 false, i32 0, i32 0, null, i32 384, i1 false, null, null, i32 0, metadata !69, i32 1522} ; [ DW_TAG_subprogram ]
!346 = metadata !{i32 786453, i32 0, metadata !"", i32 0, i32 0, i64 0, i64 0, i64 0, i32 0, null, metadata !347, i32 0, i32 0} ; [ DW_TAG_subroutine_type ]
!347 = metadata !{null, metadata !312, metadata !119}
!348 = metadata !{i32 786478, i32 0, metadata !295, metadata !"ap_int_base", metadata !"ap_int_base", metadata !"", metadata !57, i32 1523, metadata !349, i1 false, i1 false, i32 0, i32 0, null, i32 384, i1 false, null, null, i32 0, metadata !69, i32 1523} ; [ DW_TAG_subprogram ]
!349 = metadata !{i32 786453, i32 0, metadata !"", i32 0, i32 0, i64 0, i64 0, i64 0, i32 0, null, metadata !350, i32 0, i32 0} ; [ DW_TAG_subroutine_type ]
!350 = metadata !{null, metadata !312, metadata !123}
!351 = metadata !{i32 786478, i32 0, metadata !295, metadata !"ap_int_base", metadata !"ap_int_base", metadata !"", metadata !57, i32 1524, metadata !352, i1 false, i1 false, i32 0, i32 0, null, i32 384, i1 false, null, null, i32 0, metadata !69, i32 1524} ; [ DW_TAG_subprogram ]
!352 = metadata !{i32 786453, i32 0, metadata !"", i32 0, i32 0, i64 0, i64 0, i64 0, i32 0, null, metadata !353, i32 0, i32 0} ; [ DW_TAG_subroutine_type ]
!353 = metadata !{null, metadata !312, metadata !127}
!354 = metadata !{i32 786478, i32 0, metadata !295, metadata !"ap_int_base", metadata !"ap_int_base", metadata !"", metadata !57, i32 1525, metadata !355, i1 false, i1 false, i32 0, i32 0, null, i32 384, i1 false, null, null, i32 0, metadata !69, i32 1525} ; [ DW_TAG_subprogram ]
!355 = metadata !{i32 786453, i32 0, metadata !"", i32 0, i32 0, i64 0, i64 0, i64 0, i32 0, null, metadata !356, i32 0, i32 0} ; [ DW_TAG_subroutine_type ]
!356 = metadata !{null, metadata !312, metadata !131}
!357 = metadata !{i32 786478, i32 0, metadata !295, metadata !"ap_int_base", metadata !"ap_int_base", metadata !"", metadata !57, i32 1526, metadata !358, i1 false, i1 false, i32 0, i32 0, null, i32 384, i1 false, null, null, i32 0, metadata !69, i32 1526} ; [ DW_TAG_subprogram ]
!358 = metadata !{i32 786453, i32 0, metadata !"", i32 0, i32 0, i64 0, i64 0, i64 0, i32 0, null, metadata !359, i32 0, i32 0} ; [ DW_TAG_subroutine_type ]
!359 = metadata !{null, metadata !312, metadata !136}
!360 = metadata !{i32 786478, i32 0, metadata !295, metadata !"ap_int_base", metadata !"ap_int_base", metadata !"", metadata !57, i32 1527, metadata !361, i1 false, i1 false, i32 0, i32 0, null, i32 384, i1 false, null, null, i32 0, metadata !69, i32 1527} ; [ DW_TAG_subprogram ]
!361 = metadata !{i32 786453, i32 0, metadata !"", i32 0, i32 0, i64 0, i64 0, i64 0, i32 0, null, metadata !362, i32 0, i32 0} ; [ DW_TAG_subroutine_type ]
!362 = metadata !{null, metadata !312, metadata !141}
!363 = metadata !{i32 786478, i32 0, metadata !295, metadata !"ap_int_base", metadata !"ap_int_base", metadata !"", metadata !57, i32 1528, metadata !364, i1 false, i1 false, i32 0, i32 0, null, i32 384, i1 false, null, null, i32 0, metadata !69, i32 1528} ; [ DW_TAG_subprogram ]
!364 = metadata !{i32 786453, i32 0, metadata !"", i32 0, i32 0, i64 0, i64 0, i64 0, i32 0, null, metadata !365, i32 0, i32 0} ; [ DW_TAG_subroutine_type ]
!365 = metadata !{null, metadata !312, metadata !146}
!366 = metadata !{i32 786478, i32 0, metadata !295, metadata !"ap_int_base", metadata !"ap_int_base", metadata !"", metadata !57, i32 1529, metadata !367, i1 false, i1 false, i32 0, i32 0, null, i32 384, i1 false, null, null, i32 0, metadata !69, i32 1529} ; [ DW_TAG_subprogram ]
!367 = metadata !{i32 786453, i32 0, metadata !"", i32 0, i32 0, i64 0, i64 0, i64 0, i32 0, null, metadata !368, i32 0, i32 0} ; [ DW_TAG_subroutine_type ]
!368 = metadata !{null, metadata !312, metadata !150}
!369 = metadata !{i32 786478, i32 0, metadata !295, metadata !"ap_int_base", metadata !"ap_int_base", metadata !"", metadata !57, i32 1556, metadata !370, i1 false, i1 false, i32 0, i32 0, null, i32 256, i1 false, null, null, i32 0, metadata !69, i32 1556} ; [ DW_TAG_subprogram ]
!370 = metadata !{i32 786453, i32 0, metadata !"", i32 0, i32 0, i64 0, i64 0, i64 0, i32 0, null, metadata !371, i32 0, i32 0} ; [ DW_TAG_subroutine_type ]
!371 = metadata !{null, metadata !312, metadata !154}
!372 = metadata !{i32 786478, i32 0, metadata !295, metadata !"ap_int_base", metadata !"ap_int_base", metadata !"", metadata !57, i32 1563, metadata !373, i1 false, i1 false, i32 0, i32 0, null, i32 256, i1 false, null, null, i32 0, metadata !69, i32 1563} ; [ DW_TAG_subprogram ]
!373 = metadata !{i32 786453, i32 0, metadata !"", i32 0, i32 0, i64 0, i64 0, i64 0, i32 0, null, metadata !374, i32 0, i32 0} ; [ DW_TAG_subroutine_type ]
!374 = metadata !{null, metadata !312, metadata !154, metadata !100}
!375 = metadata !{i32 786478, i32 0, metadata !295, metadata !"read", metadata !"read", metadata !"_ZNV11ap_int_baseILi33ELb1ELb1EE4readEv", metadata !57, i32 1584, metadata !376, i1 false, i1 false, i32 0, i32 0, null, i32 256, i1 false, null, null, i32 0, metadata !69, i32 1584} ; [ DW_TAG_subprogram ]
!376 = metadata !{i32 786453, i32 0, metadata !"", i32 0, i32 0, i64 0, i64 0, i64 0, i32 0, null, metadata !377, i32 0, i32 0} ; [ DW_TAG_subroutine_type ]
!377 = metadata !{metadata !295, metadata !378}
!378 = metadata !{i32 786447, i32 0, metadata !"", i32 0, i32 0, i64 64, i64 64, i64 0, i32 64, metadata !326} ; [ DW_TAG_pointer_type ]
!379 = metadata !{i32 786478, i32 0, metadata !295, metadata !"write", metadata !"write", metadata !"_ZNV11ap_int_baseILi33ELb1ELb1EE5writeERKS0_", metadata !57, i32 1590, metadata !380, i1 false, i1 false, i32 0, i32 0, null, i32 256, i1 false, null, null, i32 0, metadata !69, i32 1590} ; [ DW_TAG_subprogram ]
!380 = metadata !{i32 786453, i32 0, metadata !"", i32 0, i32 0, i64 0, i64 0, i64 0, i32 0, null, metadata !381, i32 0, i32 0} ; [ DW_TAG_subroutine_type ]
!381 = metadata !{null, metadata !378, metadata !316}
!382 = metadata !{i32 786478, i32 0, metadata !295, metadata !"operator=", metadata !"operator=", metadata !"_ZNV11ap_int_baseILi33ELb1ELb1EEaSERVKS0_", metadata !57, i32 1602, metadata !383, i1 false, i1 false, i32 0, i32 0, null, i32 256, i1 false, null, null, i32 0, metadata !69, i32 1602} ; [ DW_TAG_subprogram ]
!383 = metadata !{i32 786453, i32 0, metadata !"", i32 0, i32 0, i64 0, i64 0, i64 0, i32 0, null, metadata !384, i32 0, i32 0} ; [ DW_TAG_subroutine_type ]
!384 = metadata !{null, metadata !378, metadata !324}
!385 = metadata !{i32 786478, i32 0, metadata !295, metadata !"operator=", metadata !"operator=", metadata !"_ZNV11ap_int_baseILi33ELb1ELb1EEaSERKS0_", metadata !57, i32 1611, metadata !380, i1 false, i1 false, i32 0, i32 0, null, i32 256, i1 false, null, null, i32 0, metadata !69, i32 1611} ; [ DW_TAG_subprogram ]
!386 = metadata !{i32 786478, i32 0, metadata !295, metadata !"operator=", metadata !"operator=", metadata !"_ZN11ap_int_baseILi33ELb1ELb1EEaSERVKS0_", metadata !57, i32 1634, metadata !387, i1 false, i1 false, i32 0, i32 0, null, i32 256, i1 false, null, null, i32 0, metadata !69, i32 1634} ; [ DW_TAG_subprogram ]
!387 = metadata !{i32 786453, i32 0, metadata !"", i32 0, i32 0, i64 0, i64 0, i64 0, i32 0, null, metadata !388, i32 0, i32 0} ; [ DW_TAG_subroutine_type ]
!388 = metadata !{metadata !389, metadata !312, metadata !324}
!389 = metadata !{i32 786448, null, null, null, i32 0, i64 0, i64 0, i64 0, i32 0, metadata !295} ; [ DW_TAG_reference_type ]
!390 = metadata !{i32 786478, i32 0, metadata !295, metadata !"operator=", metadata !"operator=", metadata !"_ZN11ap_int_baseILi33ELb1ELb1EEaSERKS0_", metadata !57, i32 1639, metadata !391, i1 false, i1 false, i32 0, i32 0, null, i32 256, i1 false, null, null, i32 0, metadata !69, i32 1639} ; [ DW_TAG_subprogram ]
!391 = metadata !{i32 786453, i32 0, metadata !"", i32 0, i32 0, i64 0, i64 0, i64 0, i32 0, null, metadata !392, i32 0, i32 0} ; [ DW_TAG_subroutine_type ]
!392 = metadata !{metadata !389, metadata !312, metadata !316}
!393 = metadata !{i32 786478, i32 0, metadata !295, metadata !"operator=", metadata !"operator=", metadata !"_ZN11ap_int_baseILi33ELb1ELb1EEaSEPKc", metadata !57, i32 1643, metadata !394, i1 false, i1 false, i32 0, i32 0, null, i32 256, i1 false, null, null, i32 0, metadata !69, i32 1643} ; [ DW_TAG_subprogram ]
!394 = metadata !{i32 786453, i32 0, metadata !"", i32 0, i32 0, i64 0, i64 0, i64 0, i32 0, null, metadata !395, i32 0, i32 0} ; [ DW_TAG_subroutine_type ]
!395 = metadata !{metadata !389, metadata !312, metadata !154}
!396 = metadata !{i32 786478, i32 0, metadata !295, metadata !"set", metadata !"set", metadata !"_ZN11ap_int_baseILi33ELb1ELb1EE3setEPKca", metadata !57, i32 1651, metadata !397, i1 false, i1 false, i32 0, i32 0, null, i32 256, i1 false, null, null, i32 0, metadata !69, i32 1651} ; [ DW_TAG_subprogram ]
!397 = metadata !{i32 786453, i32 0, metadata !"", i32 0, i32 0, i64 0, i64 0, i64 0, i32 0, null, metadata !398, i32 0, i32 0} ; [ DW_TAG_subroutine_type ]
!398 = metadata !{metadata !389, metadata !312, metadata !154, metadata !100}
!399 = metadata !{i32 786478, i32 0, metadata !295, metadata !"operator=", metadata !"operator=", metadata !"_ZN11ap_int_baseILi33ELb1ELb1EEaSEa", metadata !57, i32 1665, metadata !400, i1 false, i1 false, i32 0, i32 0, null, i32 256, i1 false, null, null, i32 0, metadata !69, i32 1665} ; [ DW_TAG_subprogram ]
!400 = metadata !{i32 786453, i32 0, metadata !"", i32 0, i32 0, i64 0, i64 0, i64 0, i32 0, null, metadata !401, i32 0, i32 0} ; [ DW_TAG_subroutine_type ]
!401 = metadata !{metadata !389, metadata !312, metadata !100}
!402 = metadata !{i32 786478, i32 0, metadata !295, metadata !"operator=", metadata !"operator=", metadata !"_ZN11ap_int_baseILi33ELb1ELb1EEaSEh", metadata !57, i32 1666, metadata !403, i1 false, i1 false, i32 0, i32 0, null, i32 256, i1 false, null, null, i32 0, metadata !69, i32 1666} ; [ DW_TAG_subprogram ]
!403 = metadata !{i32 786453, i32 0, metadata !"", i32 0, i32 0, i64 0, i64 0, i64 0, i32 0, null, metadata !404, i32 0, i32 0} ; [ DW_TAG_subroutine_type ]
!404 = metadata !{metadata !389, metadata !312, metadata !104}
!405 = metadata !{i32 786478, i32 0, metadata !295, metadata !"operator=", metadata !"operator=", metadata !"_ZN11ap_int_baseILi33ELb1ELb1EEaSEs", metadata !57, i32 1667, metadata !406, i1 false, i1 false, i32 0, i32 0, null, i32 256, i1 false, null, null, i32 0, metadata !69, i32 1667} ; [ DW_TAG_subprogram ]
!406 = metadata !{i32 786453, i32 0, metadata !"", i32 0, i32 0, i64 0, i64 0, i64 0, i32 0, null, metadata !407, i32 0, i32 0} ; [ DW_TAG_subroutine_type ]
!407 = metadata !{metadata !389, metadata !312, metadata !108}
!408 = metadata !{i32 786478, i32 0, metadata !295, metadata !"operator=", metadata !"operator=", metadata !"_ZN11ap_int_baseILi33ELb1ELb1EEaSEt", metadata !57, i32 1668, metadata !409, i1 false, i1 false, i32 0, i32 0, null, i32 256, i1 false, null, null, i32 0, metadata !69, i32 1668} ; [ DW_TAG_subprogram ]
!409 = metadata !{i32 786453, i32 0, metadata !"", i32 0, i32 0, i64 0, i64 0, i64 0, i32 0, null, metadata !410, i32 0, i32 0} ; [ DW_TAG_subroutine_type ]
!410 = metadata !{metadata !389, metadata !312, metadata !112}
!411 = metadata !{i32 786478, i32 0, metadata !295, metadata !"operator=", metadata !"operator=", metadata !"_ZN11ap_int_baseILi33ELb1ELb1EEaSEi", metadata !57, i32 1669, metadata !412, i1 false, i1 false, i32 0, i32 0, null, i32 256, i1 false, null, null, i32 0, metadata !69, i32 1669} ; [ DW_TAG_subprogram ]
!412 = metadata !{i32 786453, i32 0, metadata !"", i32 0, i32 0, i64 0, i64 0, i64 0, i32 0, null, metadata !413, i32 0, i32 0} ; [ DW_TAG_subroutine_type ]
!413 = metadata !{metadata !389, metadata !312, metadata !73}
!414 = metadata !{i32 786478, i32 0, metadata !295, metadata !"operator=", metadata !"operator=", metadata !"_ZN11ap_int_baseILi33ELb1ELb1EEaSEj", metadata !57, i32 1670, metadata !415, i1 false, i1 false, i32 0, i32 0, null, i32 256, i1 false, null, null, i32 0, metadata !69, i32 1670} ; [ DW_TAG_subprogram ]
!415 = metadata !{i32 786453, i32 0, metadata !"", i32 0, i32 0, i64 0, i64 0, i64 0, i32 0, null, metadata !416, i32 0, i32 0} ; [ DW_TAG_subroutine_type ]
!416 = metadata !{metadata !389, metadata !312, metadata !119}
!417 = metadata !{i32 786478, i32 0, metadata !295, metadata !"operator=", metadata !"operator=", metadata !"_ZN11ap_int_baseILi33ELb1ELb1EEaSEx", metadata !57, i32 1671, metadata !418, i1 false, i1 false, i32 0, i32 0, null, i32 256, i1 false, null, null, i32 0, metadata !69, i32 1671} ; [ DW_TAG_subprogram ]
!418 = metadata !{i32 786453, i32 0, metadata !"", i32 0, i32 0, i64 0, i64 0, i64 0, i32 0, null, metadata !419, i32 0, i32 0} ; [ DW_TAG_subroutine_type ]
!419 = metadata !{metadata !389, metadata !312, metadata !131}
!420 = metadata !{i32 786478, i32 0, metadata !295, metadata !"operator=", metadata !"operator=", metadata !"_ZN11ap_int_baseILi33ELb1ELb1EEaSEy", metadata !57, i32 1672, metadata !421, i1 false, i1 false, i32 0, i32 0, null, i32 256, i1 false, null, null, i32 0, metadata !69, i32 1672} ; [ DW_TAG_subprogram ]
!421 = metadata !{i32 786453, i32 0, metadata !"", i32 0, i32 0, i64 0, i64 0, i64 0, i32 0, null, metadata !422, i32 0, i32 0} ; [ DW_TAG_subroutine_type ]
!422 = metadata !{metadata !389, metadata !312, metadata !136}
!423 = metadata !{i32 786478, i32 0, metadata !295, metadata !"operator long long", metadata !"operator long long", metadata !"_ZNK11ap_int_baseILi33ELb1ELb1EEcvxEv", metadata !57, i32 1710, metadata !424, i1 false, i1 false, i32 0, i32 0, null, i32 256, i1 false, null, null, i32 0, metadata !69, i32 1710} ; [ DW_TAG_subprogram ]
!424 = metadata !{i32 786453, i32 0, metadata !"", i32 0, i32 0, i64 0, i64 0, i64 0, i32 0, null, metadata !425, i32 0, i32 0} ; [ DW_TAG_subroutine_type ]
!425 = metadata !{metadata !426, metadata !431}
!426 = metadata !{i32 786454, metadata !295, metadata !"RetType", metadata !57, i32 1458, i64 0, i64 0, i64 0, i32 0, metadata !427} ; [ DW_TAG_typedef ]
!427 = metadata !{i32 786454, metadata !428, metadata !"Type", metadata !57, i32 1415, i64 0, i64 0, i64 0, i32 0, metadata !131} ; [ DW_TAG_typedef ]
!428 = metadata !{i32 786434, null, metadata !"retval<5, true>", metadata !57, i32 1414, i64 8, i64 8, i32 0, i32 0, null, metadata !214, i32 0, null, metadata !429} ; [ DW_TAG_class_type ]
!429 = metadata !{metadata !430, metadata !308}
!430 = metadata !{i32 786480, null, metadata !"_AP_N", metadata !73, i64 5, null, i32 0, i32 0} ; [ DW_TAG_template_value_parameter ]
!431 = metadata !{i32 786447, i32 0, metadata !"", i32 0, i32 0, i64 64, i64 64, i64 0, i32 64, metadata !317} ; [ DW_TAG_pointer_type ]
!432 = metadata !{i32 786478, i32 0, metadata !295, metadata !"to_bool", metadata !"to_bool", metadata !"_ZNK11ap_int_baseILi33ELb1ELb1EE7to_boolEv", metadata !57, i32 1716, metadata !433, i1 false, i1 false, i32 0, i32 0, null, i32 256, i1 false, null, null, i32 0, metadata !69, i32 1716} ; [ DW_TAG_subprogram ]
!433 = metadata !{i32 786453, i32 0, metadata !"", i32 0, i32 0, i64 0, i64 0, i64 0, i32 0, null, metadata !434, i32 0, i32 0} ; [ DW_TAG_subroutine_type ]
!434 = metadata !{metadata !75, metadata !431}
!435 = metadata !{i32 786478, i32 0, metadata !295, metadata !"to_uchar", metadata !"to_uchar", metadata !"_ZNK11ap_int_baseILi33ELb1ELb1EE8to_ucharEv", metadata !57, i32 1717, metadata !436, i1 false, i1 false, i32 0, i32 0, null, i32 256, i1 false, null, null, i32 0, metadata !69, i32 1717} ; [ DW_TAG_subprogram ]
!436 = metadata !{i32 786453, i32 0, metadata !"", i32 0, i32 0, i64 0, i64 0, i64 0, i32 0, null, metadata !437, i32 0, i32 0} ; [ DW_TAG_subroutine_type ]
!437 = metadata !{metadata !104, metadata !431}
!438 = metadata !{i32 786478, i32 0, metadata !295, metadata !"to_char", metadata !"to_char", metadata !"_ZNK11ap_int_baseILi33ELb1ELb1EE7to_charEv", metadata !57, i32 1718, metadata !439, i1 false, i1 false, i32 0, i32 0, null, i32 256, i1 false, null, null, i32 0, metadata !69, i32 1718} ; [ DW_TAG_subprogram ]
!439 = metadata !{i32 786453, i32 0, metadata !"", i32 0, i32 0, i64 0, i64 0, i64 0, i32 0, null, metadata !440, i32 0, i32 0} ; [ DW_TAG_subroutine_type ]
!440 = metadata !{metadata !100, metadata !431}
!441 = metadata !{i32 786478, i32 0, metadata !295, metadata !"to_ushort", metadata !"to_ushort", metadata !"_ZNK11ap_int_baseILi33ELb1ELb1EE9to_ushortEv", metadata !57, i32 1719, metadata !442, i1 false, i1 false, i32 0, i32 0, null, i32 256, i1 false, null, null, i32 0, metadata !69, i32 1719} ; [ DW_TAG_subprogram ]
!442 = metadata !{i32 786453, i32 0, metadata !"", i32 0, i32 0, i64 0, i64 0, i64 0, i32 0, null, metadata !443, i32 0, i32 0} ; [ DW_TAG_subroutine_type ]
!443 = metadata !{metadata !112, metadata !431}
!444 = metadata !{i32 786478, i32 0, metadata !295, metadata !"to_short", metadata !"to_short", metadata !"_ZNK11ap_int_baseILi33ELb1ELb1EE8to_shortEv", metadata !57, i32 1720, metadata !445, i1 false, i1 false, i32 0, i32 0, null, i32 256, i1 false, null, null, i32 0, metadata !69, i32 1720} ; [ DW_TAG_subprogram ]
!445 = metadata !{i32 786453, i32 0, metadata !"", i32 0, i32 0, i64 0, i64 0, i64 0, i32 0, null, metadata !446, i32 0, i32 0} ; [ DW_TAG_subroutine_type ]
!446 = metadata !{metadata !108, metadata !431}
!447 = metadata !{i32 786478, i32 0, metadata !295, metadata !"to_int", metadata !"to_int", metadata !"_ZNK11ap_int_baseILi33ELb1ELb1EE6to_intEv", metadata !57, i32 1721, metadata !448, i1 false, i1 false, i32 0, i32 0, null, i32 256, i1 false, null, null, i32 0, metadata !69, i32 1721} ; [ DW_TAG_subprogram ]
!448 = metadata !{i32 786453, i32 0, metadata !"", i32 0, i32 0, i64 0, i64 0, i64 0, i32 0, null, metadata !449, i32 0, i32 0} ; [ DW_TAG_subroutine_type ]
!449 = metadata !{metadata !73, metadata !431}
!450 = metadata !{i32 786478, i32 0, metadata !295, metadata !"to_uint", metadata !"to_uint", metadata !"_ZNK11ap_int_baseILi33ELb1ELb1EE7to_uintEv", metadata !57, i32 1722, metadata !451, i1 false, i1 false, i32 0, i32 0, null, i32 256, i1 false, null, null, i32 0, metadata !69, i32 1722} ; [ DW_TAG_subprogram ]
!451 = metadata !{i32 786453, i32 0, metadata !"", i32 0, i32 0, i64 0, i64 0, i64 0, i32 0, null, metadata !452, i32 0, i32 0} ; [ DW_TAG_subroutine_type ]
!452 = metadata !{metadata !119, metadata !431}
!453 = metadata !{i32 786478, i32 0, metadata !295, metadata !"to_long", metadata !"to_long", metadata !"_ZNK11ap_int_baseILi33ELb1ELb1EE7to_longEv", metadata !57, i32 1723, metadata !454, i1 false, i1 false, i32 0, i32 0, null, i32 256, i1 false, null, null, i32 0, metadata !69, i32 1723} ; [ DW_TAG_subprogram ]
!454 = metadata !{i32 786453, i32 0, metadata !"", i32 0, i32 0, i64 0, i64 0, i64 0, i32 0, null, metadata !455, i32 0, i32 0} ; [ DW_TAG_subroutine_type ]
!455 = metadata !{metadata !123, metadata !431}
!456 = metadata !{i32 786478, i32 0, metadata !295, metadata !"to_ulong", metadata !"to_ulong", metadata !"_ZNK11ap_int_baseILi33ELb1ELb1EE8to_ulongEv", metadata !57, i32 1724, metadata !457, i1 false, i1 false, i32 0, i32 0, null, i32 256, i1 false, null, null, i32 0, metadata !69, i32 1724} ; [ DW_TAG_subprogram ]
!457 = metadata !{i32 786453, i32 0, metadata !"", i32 0, i32 0, i64 0, i64 0, i64 0, i32 0, null, metadata !458, i32 0, i32 0} ; [ DW_TAG_subroutine_type ]
!458 = metadata !{metadata !127, metadata !431}
!459 = metadata !{i32 786478, i32 0, metadata !295, metadata !"to_int64", metadata !"to_int64", metadata !"_ZNK11ap_int_baseILi33ELb1ELb1EE8to_int64Ev", metadata !57, i32 1725, metadata !460, i1 false, i1 false, i32 0, i32 0, null, i32 256, i1 false, null, null, i32 0, metadata !69, i32 1725} ; [ DW_TAG_subprogram ]
!460 = metadata !{i32 786453, i32 0, metadata !"", i32 0, i32 0, i64 0, i64 0, i64 0, i32 0, null, metadata !461, i32 0, i32 0} ; [ DW_TAG_subroutine_type ]
!461 = metadata !{metadata !131, metadata !431}
!462 = metadata !{i32 786478, i32 0, metadata !295, metadata !"to_uint64", metadata !"to_uint64", metadata !"_ZNK11ap_int_baseILi33ELb1ELb1EE9to_uint64Ev", metadata !57, i32 1726, metadata !463, i1 false, i1 false, i32 0, i32 0, null, i32 256, i1 false, null, null, i32 0, metadata !69, i32 1726} ; [ DW_TAG_subprogram ]
!463 = metadata !{i32 786453, i32 0, metadata !"", i32 0, i32 0, i64 0, i64 0, i64 0, i32 0, null, metadata !464, i32 0, i32 0} ; [ DW_TAG_subroutine_type ]
!464 = metadata !{metadata !136, metadata !431}
!465 = metadata !{i32 786478, i32 0, metadata !295, metadata !"to_double", metadata !"to_double", metadata !"_ZNK11ap_int_baseILi33ELb1ELb1EE9to_doubleEv", metadata !57, i32 1727, metadata !466, i1 false, i1 false, i32 0, i32 0, null, i32 256, i1 false, null, null, i32 0, metadata !69, i32 1727} ; [ DW_TAG_subprogram ]
!466 = metadata !{i32 786453, i32 0, metadata !"", i32 0, i32 0, i64 0, i64 0, i64 0, i32 0, null, metadata !467, i32 0, i32 0} ; [ DW_TAG_subroutine_type ]
!467 = metadata !{metadata !150, metadata !431}
!468 = metadata !{i32 786478, i32 0, metadata !295, metadata !"length", metadata !"length", metadata !"_ZNK11ap_int_baseILi33ELb1ELb1EE6lengthEv", metadata !57, i32 1741, metadata !448, i1 false, i1 false, i32 0, i32 0, null, i32 256, i1 false, null, null, i32 0, metadata !69, i32 1741} ; [ DW_TAG_subprogram ]
!469 = metadata !{i32 786478, i32 0, metadata !295, metadata !"length", metadata !"length", metadata !"_ZNVK11ap_int_baseILi33ELb1ELb1EE6lengthEv", metadata !57, i32 1742, metadata !470, i1 false, i1 false, i32 0, i32 0, null, i32 256, i1 false, null, null, i32 0, metadata !69, i32 1742} ; [ DW_TAG_subprogram ]
!470 = metadata !{i32 786453, i32 0, metadata !"", i32 0, i32 0, i64 0, i64 0, i64 0, i32 0, null, metadata !471, i32 0, i32 0} ; [ DW_TAG_subroutine_type ]
!471 = metadata !{metadata !73, metadata !472}
!472 = metadata !{i32 786447, i32 0, metadata !"", i32 0, i32 0, i64 64, i64 64, i64 0, i32 64, metadata !325} ; [ DW_TAG_pointer_type ]
!473 = metadata !{i32 786478, i32 0, metadata !295, metadata !"reverse", metadata !"reverse", metadata !"_ZN11ap_int_baseILi33ELb1ELb1EE7reverseEv", metadata !57, i32 1747, metadata !474, i1 false, i1 false, i32 0, i32 0, null, i32 256, i1 false, null, null, i32 0, metadata !69, i32 1747} ; [ DW_TAG_subprogram ]
!474 = metadata !{i32 786453, i32 0, metadata !"", i32 0, i32 0, i64 0, i64 0, i64 0, i32 0, null, metadata !475, i32 0, i32 0} ; [ DW_TAG_subroutine_type ]
!475 = metadata !{metadata !389, metadata !312}
!476 = metadata !{i32 786478, i32 0, metadata !295, metadata !"iszero", metadata !"iszero", metadata !"_ZNK11ap_int_baseILi33ELb1ELb1EE6iszeroEv", metadata !57, i32 1753, metadata !433, i1 false, i1 false, i32 0, i32 0, null, i32 256, i1 false, null, null, i32 0, metadata !69, i32 1753} ; [ DW_TAG_subprogram ]
!477 = metadata !{i32 786478, i32 0, metadata !295, metadata !"is_zero", metadata !"is_zero", metadata !"_ZNK11ap_int_baseILi33ELb1ELb1EE7is_zeroEv", metadata !57, i32 1758, metadata !433, i1 false, i1 false, i32 0, i32 0, null, i32 256, i1 false, null, null, i32 0, metadata !69, i32 1758} ; [ DW_TAG_subprogram ]
!478 = metadata !{i32 786478, i32 0, metadata !295, metadata !"sign", metadata !"sign", metadata !"_ZNK11ap_int_baseILi33ELb1ELb1EE4signEv", metadata !57, i32 1763, metadata !433, i1 false, i1 false, i32 0, i32 0, null, i32 256, i1 false, null, null, i32 0, metadata !69, i32 1763} ; [ DW_TAG_subprogram ]
!479 = metadata !{i32 786478, i32 0, metadata !295, metadata !"clear", metadata !"clear", metadata !"_ZN11ap_int_baseILi33ELb1ELb1EE5clearEi", metadata !57, i32 1771, metadata !343, i1 false, i1 false, i32 0, i32 0, null, i32 256, i1 false, null, null, i32 0, metadata !69, i32 1771} ; [ DW_TAG_subprogram ]
!480 = metadata !{i32 786478, i32 0, metadata !295, metadata !"invert", metadata !"invert", metadata !"_ZN11ap_int_baseILi33ELb1ELb1EE6invertEi", metadata !57, i32 1777, metadata !343, i1 false, i1 false, i32 0, i32 0, null, i32 256, i1 false, null, null, i32 0, metadata !69, i32 1777} ; [ DW_TAG_subprogram ]
!481 = metadata !{i32 786478, i32 0, metadata !295, metadata !"test", metadata !"test", metadata !"_ZNK11ap_int_baseILi33ELb1ELb1EE4testEi", metadata !57, i32 1785, metadata !482, i1 false, i1 false, i32 0, i32 0, null, i32 256, i1 false, null, null, i32 0, metadata !69, i32 1785} ; [ DW_TAG_subprogram ]
!482 = metadata !{i32 786453, i32 0, metadata !"", i32 0, i32 0, i64 0, i64 0, i64 0, i32 0, null, metadata !483, i32 0, i32 0} ; [ DW_TAG_subroutine_type ]
!483 = metadata !{metadata !75, metadata !431, metadata !73}
!484 = metadata !{i32 786478, i32 0, metadata !295, metadata !"set", metadata !"set", metadata !"_ZN11ap_int_baseILi33ELb1ELb1EE3setEi", metadata !57, i32 1791, metadata !343, i1 false, i1 false, i32 0, i32 0, null, i32 256, i1 false, null, null, i32 0, metadata !69, i32 1791} ; [ DW_TAG_subprogram ]
!485 = metadata !{i32 786478, i32 0, metadata !295, metadata !"set", metadata !"set", metadata !"_ZN11ap_int_baseILi33ELb1ELb1EE3setEib", metadata !57, i32 1797, metadata !486, i1 false, i1 false, i32 0, i32 0, null, i32 256, i1 false, null, null, i32 0, metadata !69, i32 1797} ; [ DW_TAG_subprogram ]
!486 = metadata !{i32 786453, i32 0, metadata !"", i32 0, i32 0, i64 0, i64 0, i64 0, i32 0, null, metadata !487, i32 0, i32 0} ; [ DW_TAG_subroutine_type ]
!487 = metadata !{null, metadata !312, metadata !73, metadata !75}
!488 = metadata !{i32 786478, i32 0, metadata !295, metadata !"lrotate", metadata !"lrotate", metadata !"_ZN11ap_int_baseILi33ELb1ELb1EE7lrotateEi", metadata !57, i32 1804, metadata !343, i1 false, i1 false, i32 0, i32 0, null, i32 256, i1 false, null, null, i32 0, metadata !69, i32 1804} ; [ DW_TAG_subprogram ]
!489 = metadata !{i32 786478, i32 0, metadata !295, metadata !"rrotate", metadata !"rrotate", metadata !"_ZN11ap_int_baseILi33ELb1ELb1EE7rrotateEi", metadata !57, i32 1813, metadata !343, i1 false, i1 false, i32 0, i32 0, null, i32 256, i1 false, null, null, i32 0, metadata !69, i32 1813} ; [ DW_TAG_subprogram ]
!490 = metadata !{i32 786478, i32 0, metadata !295, metadata !"set_bit", metadata !"set_bit", metadata !"_ZN11ap_int_baseILi33ELb1ELb1EE7set_bitEib", metadata !57, i32 1821, metadata !486, i1 false, i1 false, i32 0, i32 0, null, i32 256, i1 false, null, null, i32 0, metadata !69, i32 1821} ; [ DW_TAG_subprogram ]
!491 = metadata !{i32 786478, i32 0, metadata !295, metadata !"get_bit", metadata !"get_bit", metadata !"_ZNK11ap_int_baseILi33ELb1ELb1EE7get_bitEi", metadata !57, i32 1826, metadata !482, i1 false, i1 false, i32 0, i32 0, null, i32 256, i1 false, null, null, i32 0, metadata !69, i32 1826} ; [ DW_TAG_subprogram ]
!492 = metadata !{i32 786478, i32 0, metadata !295, metadata !"b_not", metadata !"b_not", metadata !"_ZN11ap_int_baseILi33ELb1ELb1EE5b_notEv", metadata !57, i32 1831, metadata !310, i1 false, i1 false, i32 0, i32 0, null, i32 256, i1 false, null, null, i32 0, metadata !69, i32 1831} ; [ DW_TAG_subprogram ]
!493 = metadata !{i32 786478, i32 0, metadata !295, metadata !"countLeadingZeros", metadata !"countLeadingZeros", metadata !"_ZN11ap_int_baseILi33ELb1ELb1EE17countLeadingZerosEv", metadata !57, i32 1838, metadata !494, i1 false, i1 false, i32 0, i32 0, null, i32 256, i1 false, null, null, i32 0, metadata !69, i32 1838} ; [ DW_TAG_subprogram ]
!494 = metadata !{i32 786453, i32 0, metadata !"", i32 0, i32 0, i64 0, i64 0, i64 0, i32 0, null, metadata !495, i32 0, i32 0} ; [ DW_TAG_subroutine_type ]
!495 = metadata !{metadata !73, metadata !312}
!496 = metadata !{i32 786478, i32 0, metadata !295, metadata !"operator++", metadata !"operator++", metadata !"_ZN11ap_int_baseILi33ELb1ELb1EEppEv", metadata !57, i32 1895, metadata !474, i1 false, i1 false, i32 0, i32 0, null, i32 256, i1 false, null, null, i32 0, metadata !69, i32 1895} ; [ DW_TAG_subprogram ]
!497 = metadata !{i32 786478, i32 0, metadata !295, metadata !"operator--", metadata !"operator--", metadata !"_ZN11ap_int_baseILi33ELb1ELb1EEmmEv", metadata !57, i32 1899, metadata !474, i1 false, i1 false, i32 0, i32 0, null, i32 256, i1 false, null, null, i32 0, metadata !69, i32 1899} ; [ DW_TAG_subprogram ]
!498 = metadata !{i32 786478, i32 0, metadata !295, metadata !"operator++", metadata !"operator++", metadata !"_ZN11ap_int_baseILi33ELb1ELb1EEppEi", metadata !57, i32 1907, metadata !499, i1 false, i1 false, i32 0, i32 0, null, i32 256, i1 false, null, null, i32 0, metadata !69, i32 1907} ; [ DW_TAG_subprogram ]
!499 = metadata !{i32 786453, i32 0, metadata !"", i32 0, i32 0, i64 0, i64 0, i64 0, i32 0, null, metadata !500, i32 0, i32 0} ; [ DW_TAG_subroutine_type ]
!500 = metadata !{metadata !317, metadata !312, metadata !73}
!501 = metadata !{i32 786478, i32 0, metadata !295, metadata !"operator--", metadata !"operator--", metadata !"_ZN11ap_int_baseILi33ELb1ELb1EEmmEi", metadata !57, i32 1912, metadata !499, i1 false, i1 false, i32 0, i32 0, null, i32 256, i1 false, null, null, i32 0, metadata !69, i32 1912} ; [ DW_TAG_subprogram ]
!502 = metadata !{i32 786478, i32 0, metadata !295, metadata !"operator+", metadata !"operator+", metadata !"_ZNK11ap_int_baseILi33ELb1ELb1EEpsEv", metadata !57, i32 1921, metadata !503, i1 false, i1 false, i32 0, i32 0, null, i32 256, i1 false, null, null, i32 0, metadata !69, i32 1921} ; [ DW_TAG_subprogram ]
!503 = metadata !{i32 786453, i32 0, metadata !"", i32 0, i32 0, i64 0, i64 0, i64 0, i32 0, null, metadata !504, i32 0, i32 0} ; [ DW_TAG_subroutine_type ]
!504 = metadata !{metadata !295, metadata !431}
!505 = metadata !{i32 786478, i32 0, metadata !295, metadata !"operator!", metadata !"operator!", metadata !"_ZNK11ap_int_baseILi33ELb1ELb1EEntEv", metadata !57, i32 1927, metadata !433, i1 false, i1 false, i32 0, i32 0, null, i32 256, i1 false, null, null, i32 0, metadata !69, i32 1927} ; [ DW_TAG_subprogram ]
!506 = metadata !{i32 786478, i32 0, metadata !295, metadata !"operator-", metadata !"operator-", metadata !"_ZNK11ap_int_baseILi33ELb1ELb1EEngEv", metadata !57, i32 1932, metadata !507, i1 false, i1 false, i32 0, i32 0, null, i32 256, i1 false, null, null, i32 0, metadata !69, i32 1932} ; [ DW_TAG_subprogram ]
!507 = metadata !{i32 786453, i32 0, metadata !"", i32 0, i32 0, i64 0, i64 0, i64 0, i32 0, null, metadata !508, i32 0, i32 0} ; [ DW_TAG_subroutine_type ]
!508 = metadata !{metadata !509, metadata !431}
!509 = metadata !{i32 786434, null, metadata !"ap_int_base<34, true, true>", metadata !57, i32 651, i32 0, i32 0, i32 0, i32 4, null, null, i32 0} ; [ DW_TAG_class_type ]
!510 = metadata !{i32 786478, i32 0, metadata !295, metadata !"range", metadata !"range", metadata !"_ZN11ap_int_baseILi33ELb1ELb1EE5rangeEii", metadata !57, i32 2062, metadata !511, i1 false, i1 false, i32 0, i32 0, null, i32 256, i1 false, null, null, i32 0, metadata !69, i32 2062} ; [ DW_TAG_subprogram ]
!511 = metadata !{i32 786453, i32 0, metadata !"", i32 0, i32 0, i64 0, i64 0, i64 0, i32 0, null, metadata !512, i32 0, i32 0} ; [ DW_TAG_subroutine_type ]
!512 = metadata !{metadata !513, metadata !312, metadata !73, metadata !73}
!513 = metadata !{i32 786434, null, metadata !"ap_range_ref<33, true>", metadata !57, i32 925, i32 0, i32 0, i32 0, i32 4, null, null, i32 0} ; [ DW_TAG_class_type ]
!514 = metadata !{i32 786478, i32 0, metadata !295, metadata !"operator()", metadata !"operator()", metadata !"_ZN11ap_int_baseILi33ELb1ELb1EEclEii", metadata !57, i32 2068, metadata !511, i1 false, i1 false, i32 0, i32 0, null, i32 256, i1 false, null, null, i32 0, metadata !69, i32 2068} ; [ DW_TAG_subprogram ]
!515 = metadata !{i32 786478, i32 0, metadata !295, metadata !"range", metadata !"range", metadata !"_ZNK11ap_int_baseILi33ELb1ELb1EE5rangeEii", metadata !57, i32 2074, metadata !516, i1 false, i1 false, i32 0, i32 0, null, i32 256, i1 false, null, null, i32 0, metadata !69, i32 2074} ; [ DW_TAG_subprogram ]
!516 = metadata !{i32 786453, i32 0, metadata !"", i32 0, i32 0, i64 0, i64 0, i64 0, i32 0, null, metadata !517, i32 0, i32 0} ; [ DW_TAG_subroutine_type ]
!517 = metadata !{metadata !513, metadata !431, metadata !73, metadata !73}
!518 = metadata !{i32 786478, i32 0, metadata !295, metadata !"operator()", metadata !"operator()", metadata !"_ZNK11ap_int_baseILi33ELb1ELb1EEclEii", metadata !57, i32 2080, metadata !516, i1 false, i1 false, i32 0, i32 0, null, i32 256, i1 false, null, null, i32 0, metadata !69, i32 2080} ; [ DW_TAG_subprogram ]
!519 = metadata !{i32 786478, i32 0, metadata !295, metadata !"operator[]", metadata !"operator[]", metadata !"_ZN11ap_int_baseILi33ELb1ELb1EEixEi", metadata !57, i32 2099, metadata !520, i1 false, i1 false, i32 0, i32 0, null, i32 256, i1 false, null, null, i32 0, metadata !69, i32 2099} ; [ DW_TAG_subprogram ]
!520 = metadata !{i32 786453, i32 0, metadata !"", i32 0, i32 0, i64 0, i64 0, i64 0, i32 0, null, metadata !521, i32 0, i32 0} ; [ DW_TAG_subroutine_type ]
!521 = metadata !{metadata !522, metadata !312, metadata !73}
!522 = metadata !{i32 786434, null, metadata !"ap_bit_ref<33, true>", metadata !57, i32 1249, i64 128, i64 64, i32 0, i32 0, null, metadata !523, i32 0, null, metadata !556} ; [ DW_TAG_class_type ]
!523 = metadata !{metadata !524, metadata !525, metadata !526, metadata !532, metadata !536, metadata !540, metadata !541, metadata !545, metadata !548, metadata !549, metadata !552, metadata !553}
!524 = metadata !{i32 786445, metadata !522, metadata !"d_bv", metadata !57, i32 1250, i64 64, i64 64, i64 0, i32 0, metadata !389} ; [ DW_TAG_member ]
!525 = metadata !{i32 786445, metadata !522, metadata !"d_index", metadata !57, i32 1251, i64 32, i64 32, i64 64, i32 0, metadata !73} ; [ DW_TAG_member ]
!526 = metadata !{i32 786478, i32 0, metadata !522, metadata !"ap_bit_ref", metadata !"ap_bit_ref", metadata !"", metadata !57, i32 1254, metadata !527, i1 false, i1 false, i32 0, i32 0, null, i32 256, i1 false, null, null, i32 0, metadata !69, i32 1254} ; [ DW_TAG_subprogram ]
!527 = metadata !{i32 786453, i32 0, metadata !"", i32 0, i32 0, i64 0, i64 0, i64 0, i32 0, null, metadata !528, i32 0, i32 0} ; [ DW_TAG_subroutine_type ]
!528 = metadata !{null, metadata !529, metadata !530}
!529 = metadata !{i32 786447, i32 0, metadata !"", i32 0, i32 0, i64 64, i64 64, i64 0, i32 64, metadata !522} ; [ DW_TAG_pointer_type ]
!530 = metadata !{i32 786448, null, null, null, i32 0, i64 0, i64 0, i64 0, i32 0, metadata !531} ; [ DW_TAG_reference_type ]
!531 = metadata !{i32 786470, null, metadata !"", null, i32 0, i64 0, i64 0, i64 0, i32 0, metadata !522} ; [ DW_TAG_const_type ]
!532 = metadata !{i32 786478, i32 0, metadata !522, metadata !"ap_bit_ref", metadata !"ap_bit_ref", metadata !"", metadata !57, i32 1257, metadata !533, i1 false, i1 false, i32 0, i32 0, null, i32 256, i1 false, null, null, i32 0, metadata !69, i32 1257} ; [ DW_TAG_subprogram ]
!533 = metadata !{i32 786453, i32 0, metadata !"", i32 0, i32 0, i64 0, i64 0, i64 0, i32 0, null, metadata !534, i32 0, i32 0} ; [ DW_TAG_subroutine_type ]
!534 = metadata !{null, metadata !529, metadata !535, metadata !73}
!535 = metadata !{i32 786447, null, metadata !"", null, i32 0, i64 64, i64 64, i64 0, i32 0, metadata !295} ; [ DW_TAG_pointer_type ]
!536 = metadata !{i32 786478, i32 0, metadata !522, metadata !"operator _Bool", metadata !"operator _Bool", metadata !"_ZNK10ap_bit_refILi33ELb1EEcvbEv", metadata !57, i32 1259, metadata !537, i1 false, i1 false, i32 0, i32 0, null, i32 256, i1 false, null, null, i32 0, metadata !69, i32 1259} ; [ DW_TAG_subprogram ]
!537 = metadata !{i32 786453, i32 0, metadata !"", i32 0, i32 0, i64 0, i64 0, i64 0, i32 0, null, metadata !538, i32 0, i32 0} ; [ DW_TAG_subroutine_type ]
!538 = metadata !{metadata !75, metadata !539}
!539 = metadata !{i32 786447, i32 0, metadata !"", i32 0, i32 0, i64 64, i64 64, i64 0, i32 64, metadata !531} ; [ DW_TAG_pointer_type ]
!540 = metadata !{i32 786478, i32 0, metadata !522, metadata !"to_bool", metadata !"to_bool", metadata !"_ZNK10ap_bit_refILi33ELb1EE7to_boolEv", metadata !57, i32 1260, metadata !537, i1 false, i1 false, i32 0, i32 0, null, i32 256, i1 false, null, null, i32 0, metadata !69, i32 1260} ; [ DW_TAG_subprogram ]
!541 = metadata !{i32 786478, i32 0, metadata !522, metadata !"operator=", metadata !"operator=", metadata !"_ZN10ap_bit_refILi33ELb1EEaSEy", metadata !57, i32 1262, metadata !542, i1 false, i1 false, i32 0, i32 0, null, i32 256, i1 false, null, null, i32 0, metadata !69, i32 1262} ; [ DW_TAG_subprogram ]
!542 = metadata !{i32 786453, i32 0, metadata !"", i32 0, i32 0, i64 0, i64 0, i64 0, i32 0, null, metadata !543, i32 0, i32 0} ; [ DW_TAG_subroutine_type ]
!543 = metadata !{metadata !544, metadata !529, metadata !137}
!544 = metadata !{i32 786448, null, null, null, i32 0, i64 0, i64 0, i64 0, i32 0, metadata !522} ; [ DW_TAG_reference_type ]
!545 = metadata !{i32 786478, i32 0, metadata !522, metadata !"operator=", metadata !"operator=", metadata !"_ZN10ap_bit_refILi33ELb1EEaSERKS0_", metadata !57, i32 1282, metadata !546, i1 false, i1 false, i32 0, i32 0, null, i32 256, i1 false, null, null, i32 0, metadata !69, i32 1282} ; [ DW_TAG_subprogram ]
!546 = metadata !{i32 786453, i32 0, metadata !"", i32 0, i32 0, i64 0, i64 0, i64 0, i32 0, null, metadata !547, i32 0, i32 0} ; [ DW_TAG_subroutine_type ]
!547 = metadata !{metadata !544, metadata !529, metadata !530}
!548 = metadata !{i32 786478, i32 0, metadata !522, metadata !"get", metadata !"get", metadata !"_ZNK10ap_bit_refILi33ELb1EE3getEv", metadata !57, i32 1390, metadata !537, i1 false, i1 false, i32 0, i32 0, null, i32 256, i1 false, null, null, i32 0, metadata !69, i32 1390} ; [ DW_TAG_subprogram ]
!549 = metadata !{i32 786478, i32 0, metadata !522, metadata !"get", metadata !"get", metadata !"_ZN10ap_bit_refILi33ELb1EE3getEv", metadata !57, i32 1394, metadata !550, i1 false, i1 false, i32 0, i32 0, null, i32 256, i1 false, null, null, i32 0, metadata !69, i32 1394} ; [ DW_TAG_subprogram ]
!550 = metadata !{i32 786453, i32 0, metadata !"", i32 0, i32 0, i64 0, i64 0, i64 0, i32 0, null, metadata !551, i32 0, i32 0} ; [ DW_TAG_subroutine_type ]
!551 = metadata !{metadata !75, metadata !529}
!552 = metadata !{i32 786478, i32 0, metadata !522, metadata !"operator~", metadata !"operator~", metadata !"_ZNK10ap_bit_refILi33ELb1EEcoEv", metadata !57, i32 1403, metadata !537, i1 false, i1 false, i32 0, i32 0, null, i32 256, i1 false, null, null, i32 0, metadata !69, i32 1403} ; [ DW_TAG_subprogram ]
!553 = metadata !{i32 786478, i32 0, metadata !522, metadata !"length", metadata !"length", metadata !"_ZNK10ap_bit_refILi33ELb1EE6lengthEv", metadata !57, i32 1408, metadata !554, i1 false, i1 false, i32 0, i32 0, null, i32 256, i1 false, null, null, i32 0, metadata !69, i32 1408} ; [ DW_TAG_subprogram ]
!554 = metadata !{i32 786453, i32 0, metadata !"", i32 0, i32 0, i64 0, i64 0, i64 0, i32 0, null, metadata !555, i32 0, i32 0} ; [ DW_TAG_subroutine_type ]
!555 = metadata !{metadata !73, metadata !539}
!556 = metadata !{metadata !557, metadata !308}
!557 = metadata !{i32 786480, null, metadata !"_AP_W", metadata !73, i64 33, null, i32 0, i32 0} ; [ DW_TAG_template_value_parameter ]
!558 = metadata !{i32 786478, i32 0, metadata !295, metadata !"operator[]", metadata !"operator[]", metadata !"_ZNK11ap_int_baseILi33ELb1ELb1EEixEi", metadata !57, i32 2113, metadata !482, i1 false, i1 false, i32 0, i32 0, null, i32 256, i1 false, null, null, i32 0, metadata !69, i32 2113} ; [ DW_TAG_subprogram ]
!559 = metadata !{i32 786478, i32 0, metadata !295, metadata !"bit", metadata !"bit", metadata !"_ZN11ap_int_baseILi33ELb1ELb1EE3bitEi", metadata !57, i32 2127, metadata !520, i1 false, i1 false, i32 0, i32 0, null, i32 256, i1 false, null, null, i32 0, metadata !69, i32 2127} ; [ DW_TAG_subprogram ]
!560 = metadata !{i32 786478, i32 0, metadata !295, metadata !"bit", metadata !"bit", metadata !"_ZNK11ap_int_baseILi33ELb1ELb1EE3bitEi", metadata !57, i32 2141, metadata !482, i1 false, i1 false, i32 0, i32 0, null, i32 256, i1 false, null, null, i32 0, metadata !69, i32 2141} ; [ DW_TAG_subprogram ]
!561 = metadata !{i32 786478, i32 0, metadata !295, metadata !"and_reduce", metadata !"and_reduce", metadata !"_ZN11ap_int_baseILi33ELb1ELb1EE10and_reduceEv", metadata !57, i32 2321, metadata !562, i1 false, i1 false, i32 0, i32 0, null, i32 256, i1 false, null, null, i32 0, metadata !69, i32 2321} ; [ DW_TAG_subprogram ]
!562 = metadata !{i32 786453, i32 0, metadata !"", i32 0, i32 0, i64 0, i64 0, i64 0, i32 0, null, metadata !563, i32 0, i32 0} ; [ DW_TAG_subroutine_type ]
!563 = metadata !{metadata !75, metadata !312}
!564 = metadata !{i32 786478, i32 0, metadata !295, metadata !"nand_reduce", metadata !"nand_reduce", metadata !"_ZN11ap_int_baseILi33ELb1ELb1EE11nand_reduceEv", metadata !57, i32 2324, metadata !562, i1 false, i1 false, i32 0, i32 0, null, i32 256, i1 false, null, null, i32 0, metadata !69, i32 2324} ; [ DW_TAG_subprogram ]
!565 = metadata !{i32 786478, i32 0, metadata !295, metadata !"or_reduce", metadata !"or_reduce", metadata !"_ZN11ap_int_baseILi33ELb1ELb1EE9or_reduceEv", metadata !57, i32 2327, metadata !562, i1 false, i1 false, i32 0, i32 0, null, i32 256, i1 false, null, null, i32 0, metadata !69, i32 2327} ; [ DW_TAG_subprogram ]
!566 = metadata !{i32 786478, i32 0, metadata !295, metadata !"nor_reduce", metadata !"nor_reduce", metadata !"_ZN11ap_int_baseILi33ELb1ELb1EE10nor_reduceEv", metadata !57, i32 2330, metadata !562, i1 false, i1 false, i32 0, i32 0, null, i32 256, i1 false, null, null, i32 0, metadata !69, i32 2330} ; [ DW_TAG_subprogram ]
!567 = metadata !{i32 786478, i32 0, metadata !295, metadata !"xor_reduce", metadata !"xor_reduce", metadata !"_ZN11ap_int_baseILi33ELb1ELb1EE10xor_reduceEv", metadata !57, i32 2333, metadata !562, i1 false, i1 false, i32 0, i32 0, null, i32 256, i1 false, null, null, i32 0, metadata !69, i32 2333} ; [ DW_TAG_subprogram ]
!568 = metadata !{i32 786478, i32 0, metadata !295, metadata !"xnor_reduce", metadata !"xnor_reduce", metadata !"_ZN11ap_int_baseILi33ELb1ELb1EE11xnor_reduceEv", metadata !57, i32 2336, metadata !562, i1 false, i1 false, i32 0, i32 0, null, i32 256, i1 false, null, null, i32 0, metadata !69, i32 2336} ; [ DW_TAG_subprogram ]
!569 = metadata !{i32 786478, i32 0, metadata !295, metadata !"and_reduce", metadata !"and_reduce", metadata !"_ZNK11ap_int_baseILi33ELb1ELb1EE10and_reduceEv", metadata !57, i32 2340, metadata !433, i1 false, i1 false, i32 0, i32 0, null, i32 256, i1 false, null, null, i32 0, metadata !69, i32 2340} ; [ DW_TAG_subprogram ]
!570 = metadata !{i32 786478, i32 0, metadata !295, metadata !"nand_reduce", metadata !"nand_reduce", metadata !"_ZNK11ap_int_baseILi33ELb1ELb1EE11nand_reduceEv", metadata !57, i32 2343, metadata !433, i1 false, i1 false, i32 0, i32 0, null, i32 256, i1 false, null, null, i32 0, metadata !69, i32 2343} ; [ DW_TAG_subprogram ]
!571 = metadata !{i32 786478, i32 0, metadata !295, metadata !"or_reduce", metadata !"or_reduce", metadata !"_ZNK11ap_int_baseILi33ELb1ELb1EE9or_reduceEv", metadata !57, i32 2346, metadata !433, i1 false, i1 false, i32 0, i32 0, null, i32 256, i1 false, null, null, i32 0, metadata !69, i32 2346} ; [ DW_TAG_subprogram ]
!572 = metadata !{i32 786478, i32 0, metadata !295, metadata !"nor_reduce", metadata !"nor_reduce", metadata !"_ZNK11ap_int_baseILi33ELb1ELb1EE10nor_reduceEv", metadata !57, i32 2349, metadata !433, i1 false, i1 false, i32 0, i32 0, null, i32 256, i1 false, null, null, i32 0, metadata !69, i32 2349} ; [ DW_TAG_subprogram ]
!573 = metadata !{i32 786478, i32 0, metadata !295, metadata !"xor_reduce", metadata !"xor_reduce", metadata !"_ZNK11ap_int_baseILi33ELb1ELb1EE10xor_reduceEv", metadata !57, i32 2352, metadata !433, i1 false, i1 false, i32 0, i32 0, null, i32 256, i1 false, null, null, i32 0, metadata !69, i32 2352} ; [ DW_TAG_subprogram ]
!574 = metadata !{i32 786478, i32 0, metadata !295, metadata !"xnor_reduce", metadata !"xnor_reduce", metadata !"_ZNK11ap_int_baseILi33ELb1ELb1EE11xnor_reduceEv", metadata !57, i32 2355, metadata !433, i1 false, i1 false, i32 0, i32 0, null, i32 256, i1 false, null, null, i32 0, metadata !69, i32 2355} ; [ DW_TAG_subprogram ]
!575 = metadata !{i32 786478, i32 0, metadata !295, metadata !"to_string", metadata !"to_string", metadata !"_ZNK11ap_int_baseILi33ELb1ELb1EE9to_stringEPci8BaseModeb", metadata !57, i32 2362, metadata !576, i1 false, i1 false, i32 0, i32 0, null, i32 256, i1 false, null, null, i32 0, metadata !69, i32 2362} ; [ DW_TAG_subprogram ]
!576 = metadata !{i32 786453, i32 0, metadata !"", i32 0, i32 0, i64 0, i64 0, i64 0, i32 0, null, metadata !577, i32 0, i32 0} ; [ DW_TAG_subroutine_type ]
!577 = metadata !{null, metadata !431, metadata !578, metadata !73, metadata !579, metadata !75}
!578 = metadata !{i32 786447, null, metadata !"", null, i32 0, i64 64, i64 64, i64 0, i32 0, metadata !156} ; [ DW_TAG_pointer_type ]
!579 = metadata !{i32 786436, null, metadata !"BaseMode", metadata !57, i32 603, i64 5, i64 8, i32 0, i32 0, null, metadata !580, i32 0, i32 0} ; [ DW_TAG_enumeration_type ]
!580 = metadata !{metadata !581, metadata !582, metadata !583, metadata !584}
!581 = metadata !{i32 786472, metadata !"SC_BIN", i64 2} ; [ DW_TAG_enumerator ]
!582 = metadata !{i32 786472, metadata !"SC_OCT", i64 8} ; [ DW_TAG_enumerator ]
!583 = metadata !{i32 786472, metadata !"SC_DEC", i64 10} ; [ DW_TAG_enumerator ]
!584 = metadata !{i32 786472, metadata !"SC_HEX", i64 16} ; [ DW_TAG_enumerator ]
!585 = metadata !{i32 786478, i32 0, metadata !295, metadata !"to_string", metadata !"to_string", metadata !"_ZNK11ap_int_baseILi33ELb1ELb1EE9to_stringE8BaseModeb", metadata !57, i32 2389, metadata !586, i1 false, i1 false, i32 0, i32 0, null, i32 256, i1 false, null, null, i32 0, metadata !69, i32 2389} ; [ DW_TAG_subprogram ]
!586 = metadata !{i32 786453, i32 0, metadata !"", i32 0, i32 0, i64 0, i64 0, i64 0, i32 0, null, metadata !587, i32 0, i32 0} ; [ DW_TAG_subroutine_type ]
!587 = metadata !{metadata !578, metadata !431, metadata !579, metadata !75}
!588 = metadata !{i32 786478, i32 0, metadata !295, metadata !"to_string", metadata !"to_string", metadata !"_ZNK11ap_int_baseILi33ELb1ELb1EE9to_stringEab", metadata !57, i32 2393, metadata !589, i1 false, i1 false, i32 0, i32 0, null, i32 256, i1 false, null, null, i32 0, metadata !69, i32 2393} ; [ DW_TAG_subprogram ]
!589 = metadata !{i32 786453, i32 0, metadata !"", i32 0, i32 0, i64 0, i64 0, i64 0, i32 0, null, metadata !590, i32 0, i32 0} ; [ DW_TAG_subroutine_type ]
!590 = metadata !{metadata !578, metadata !431, metadata !100, metadata !75}
!591 = metadata !{metadata !557, metadata !308, metadata !592}
!592 = metadata !{i32 786480, null, metadata !"_AP_C", metadata !75, i64 1, null, i32 0, i32 0} ; [ DW_TAG_template_value_parameter ]
!593 = metadata !{i32 786478, i32 0, metadata !56, metadata !"range", metadata !"range", metadata !"_ZN11ap_int_baseILi32ELb0ELb1EE5rangeEii", metadata !57, i32 2062, metadata !594, i1 false, i1 false, i32 0, i32 0, null, i32 256, i1 false, null, null, i32 0, metadata !69, i32 2062} ; [ DW_TAG_subprogram ]
!594 = metadata !{i32 786453, i32 0, metadata !"", i32 0, i32 0, i64 0, i64 0, i64 0, i32 0, null, metadata !595, i32 0, i32 0} ; [ DW_TAG_subroutine_type ]
!595 = metadata !{metadata !596, metadata !79, metadata !73, metadata !73}
!596 = metadata !{i32 786434, null, metadata !"ap_range_ref<32, false>", metadata !57, i32 925, i64 128, i64 64, i32 0, i32 0, null, metadata !597, i32 0, null, metadata !653} ; [ DW_TAG_class_type ]
!597 = metadata !{metadata !598, metadata !599, metadata !600, metadata !601, metadata !607, metadata !611, metadata !615, metadata !618, metadata !622, metadata !625, metadata !629, metadata !632, metadata !633, metadata !636, metadata !639, metadata !642, metadata !645, metadata !648, metadata !651, metadata !652}
!598 = metadata !{i32 786445, metadata !596, metadata !"d_bv", metadata !57, i32 926, i64 64, i64 64, i64 0, i32 0, metadata !174} ; [ DW_TAG_member ]
!599 = metadata !{i32 786445, metadata !596, metadata !"l_index", metadata !57, i32 927, i64 32, i64 32, i64 64, i32 0, metadata !73} ; [ DW_TAG_member ]
!600 = metadata !{i32 786445, metadata !596, metadata !"h_index", metadata !57, i32 928, i64 32, i64 32, i64 96, i32 0, metadata !73} ; [ DW_TAG_member ]
!601 = metadata !{i32 786478, i32 0, metadata !596, metadata !"ap_range_ref", metadata !"ap_range_ref", metadata !"", metadata !57, i32 931, metadata !602, i1 false, i1 false, i32 0, i32 0, null, i32 256, i1 false, null, null, i32 0, metadata !69, i32 931} ; [ DW_TAG_subprogram ]
!602 = metadata !{i32 786453, i32 0, metadata !"", i32 0, i32 0, i64 0, i64 0, i64 0, i32 0, null, metadata !603, i32 0, i32 0} ; [ DW_TAG_subroutine_type ]
!603 = metadata !{null, metadata !604, metadata !605}
!604 = metadata !{i32 786447, i32 0, metadata !"", i32 0, i32 0, i64 64, i64 64, i64 0, i32 64, metadata !596} ; [ DW_TAG_pointer_type ]
!605 = metadata !{i32 786448, null, null, null, i32 0, i64 0, i64 0, i64 0, i32 0, metadata !606} ; [ DW_TAG_reference_type ]
!606 = metadata !{i32 786470, null, metadata !"", null, i32 0, i64 0, i64 0, i64 0, i32 0, metadata !596} ; [ DW_TAG_const_type ]
!607 = metadata !{i32 786478, i32 0, metadata !596, metadata !"ap_range_ref", metadata !"ap_range_ref", metadata !"", metadata !57, i32 934, metadata !608, i1 false, i1 false, i32 0, i32 0, null, i32 256, i1 false, null, null, i32 0, metadata !69, i32 934} ; [ DW_TAG_subprogram ]
!608 = metadata !{i32 786453, i32 0, metadata !"", i32 0, i32 0, i64 0, i64 0, i64 0, i32 0, null, metadata !609, i32 0, i32 0} ; [ DW_TAG_subroutine_type ]
!609 = metadata !{null, metadata !604, metadata !610, metadata !73, metadata !73}
!610 = metadata !{i32 786447, null, metadata !"", null, i32 0, i64 64, i64 64, i64 0, i32 0, metadata !56} ; [ DW_TAG_pointer_type ]
!611 = metadata !{i32 786478, i32 0, metadata !596, metadata !"operator ap_int_base", metadata !"operator ap_int_base", metadata !"_ZNK12ap_range_refILi32ELb0EEcv11ap_int_baseILi32ELb0ELb1EEEv", metadata !57, i32 939, metadata !612, i1 false, i1 false, i32 0, i32 0, null, i32 256, i1 false, null, null, i32 0, metadata !69, i32 939} ; [ DW_TAG_subprogram ]
!612 = metadata !{i32 786453, i32 0, metadata !"", i32 0, i32 0, i64 0, i64 0, i64 0, i32 0, null, metadata !613, i32 0, i32 0} ; [ DW_TAG_subroutine_type ]
!613 = metadata !{metadata !56, metadata !614}
!614 = metadata !{i32 786447, i32 0, metadata !"", i32 0, i32 0, i64 64, i64 64, i64 0, i32 64, metadata !606} ; [ DW_TAG_pointer_type ]
!615 = metadata !{i32 786478, i32 0, metadata !596, metadata !"operator unsigned long long", metadata !"operator unsigned long long", metadata !"_ZNK12ap_range_refILi32ELb0EEcvyEv", metadata !57, i32 945, metadata !616, i1 false, i1 false, i32 0, i32 0, null, i32 256, i1 false, null, null, i32 0, metadata !69, i32 945} ; [ DW_TAG_subprogram ]
!616 = metadata !{i32 786453, i32 0, metadata !"", i32 0, i32 0, i64 0, i64 0, i64 0, i32 0, null, metadata !617, i32 0, i32 0} ; [ DW_TAG_subroutine_type ]
!617 = metadata !{metadata !137, metadata !614}
!618 = metadata !{i32 786478, i32 0, metadata !596, metadata !"operator=", metadata !"operator=", metadata !"_ZN12ap_range_refILi32ELb0EEaSEy", metadata !57, i32 949, metadata !619, i1 false, i1 false, i32 0, i32 0, null, i32 256, i1 false, null, null, i32 0, metadata !69, i32 949} ; [ DW_TAG_subprogram ]
!619 = metadata !{i32 786453, i32 0, metadata !"", i32 0, i32 0, i64 0, i64 0, i64 0, i32 0, null, metadata !620, i32 0, i32 0} ; [ DW_TAG_subroutine_type ]
!620 = metadata !{metadata !621, metadata !604, metadata !137}
!621 = metadata !{i32 786448, null, null, null, i32 0, i64 0, i64 0, i64 0, i32 0, metadata !596} ; [ DW_TAG_reference_type ]
!622 = metadata !{i32 786478, i32 0, metadata !596, metadata !"operator=", metadata !"operator=", metadata !"_ZN12ap_range_refILi32ELb0EEaSERKS0_", metadata !57, i32 967, metadata !623, i1 false, i1 false, i32 0, i32 0, null, i32 256, i1 false, null, null, i32 0, metadata !69, i32 967} ; [ DW_TAG_subprogram ]
!623 = metadata !{i32 786453, i32 0, metadata !"", i32 0, i32 0, i64 0, i64 0, i64 0, i32 0, null, metadata !624, i32 0, i32 0} ; [ DW_TAG_subroutine_type ]
!624 = metadata !{metadata !621, metadata !604, metadata !605}
!625 = metadata !{i32 786478, i32 0, metadata !596, metadata !"operator,", metadata !"operator,", metadata !"_ZN12ap_range_refILi32ELb0EEcmER11ap_int_baseILi32ELb0ELb1EE", metadata !57, i32 1022, metadata !626, i1 false, i1 false, i32 0, i32 0, null, i32 256, i1 false, null, null, i32 0, metadata !69, i32 1022} ; [ DW_TAG_subprogram ]
!626 = metadata !{i32 786453, i32 0, metadata !"", i32 0, i32 0, i64 0, i64 0, i64 0, i32 0, null, metadata !627, i32 0, i32 0} ; [ DW_TAG_subroutine_type ]
!627 = metadata !{metadata !628, metadata !604, metadata !174}
!628 = metadata !{i32 786434, null, metadata !"ap_concat_ref<32, ap_range_ref<32, false>, 32, ap_int_base<32, false, true> >", metadata !57, i32 688, i32 0, i32 0, i32 0, i32 4, null, null, i32 0} ; [ DW_TAG_class_type ]
!629 = metadata !{i32 786478, i32 0, metadata !596, metadata !"length", metadata !"length", metadata !"_ZNK12ap_range_refILi32ELb0EE6lengthEv", metadata !57, i32 1187, metadata !630, i1 false, i1 false, i32 0, i32 0, null, i32 256, i1 false, null, null, i32 0, metadata !69, i32 1187} ; [ DW_TAG_subprogram ]
!630 = metadata !{i32 786453, i32 0, metadata !"", i32 0, i32 0, i64 0, i64 0, i64 0, i32 0, null, metadata !631, i32 0, i32 0} ; [ DW_TAG_subroutine_type ]
!631 = metadata !{metadata !73, metadata !614}
!632 = metadata !{i32 786478, i32 0, metadata !596, metadata !"to_int", metadata !"to_int", metadata !"_ZNK12ap_range_refILi32ELb0EE6to_intEv", metadata !57, i32 1191, metadata !630, i1 false, i1 false, i32 0, i32 0, null, i32 256, i1 false, null, null, i32 0, metadata !69, i32 1191} ; [ DW_TAG_subprogram ]
!633 = metadata !{i32 786478, i32 0, metadata !596, metadata !"to_uint", metadata !"to_uint", metadata !"_ZNK12ap_range_refILi32ELb0EE7to_uintEv", metadata !57, i32 1194, metadata !634, i1 false, i1 false, i32 0, i32 0, null, i32 256, i1 false, null, null, i32 0, metadata !69, i32 1194} ; [ DW_TAG_subprogram ]
!634 = metadata !{i32 786453, i32 0, metadata !"", i32 0, i32 0, i64 0, i64 0, i64 0, i32 0, null, metadata !635, i32 0, i32 0} ; [ DW_TAG_subroutine_type ]
!635 = metadata !{metadata !119, metadata !614}
!636 = metadata !{i32 786478, i32 0, metadata !596, metadata !"to_long", metadata !"to_long", metadata !"_ZNK12ap_range_refILi32ELb0EE7to_longEv", metadata !57, i32 1197, metadata !637, i1 false, i1 false, i32 0, i32 0, null, i32 256, i1 false, null, null, i32 0, metadata !69, i32 1197} ; [ DW_TAG_subprogram ]
!637 = metadata !{i32 786453, i32 0, metadata !"", i32 0, i32 0, i64 0, i64 0, i64 0, i32 0, null, metadata !638, i32 0, i32 0} ; [ DW_TAG_subroutine_type ]
!638 = metadata !{metadata !123, metadata !614}
!639 = metadata !{i32 786478, i32 0, metadata !596, metadata !"to_ulong", metadata !"to_ulong", metadata !"_ZNK12ap_range_refILi32ELb0EE8to_ulongEv", metadata !57, i32 1200, metadata !640, i1 false, i1 false, i32 0, i32 0, null, i32 256, i1 false, null, null, i32 0, metadata !69, i32 1200} ; [ DW_TAG_subprogram ]
!640 = metadata !{i32 786453, i32 0, metadata !"", i32 0, i32 0, i64 0, i64 0, i64 0, i32 0, null, metadata !641, i32 0, i32 0} ; [ DW_TAG_subroutine_type ]
!641 = metadata !{metadata !127, metadata !614}
!642 = metadata !{i32 786478, i32 0, metadata !596, metadata !"to_int64", metadata !"to_int64", metadata !"_ZNK12ap_range_refILi32ELb0EE8to_int64Ev", metadata !57, i32 1203, metadata !643, i1 false, i1 false, i32 0, i32 0, null, i32 256, i1 false, null, null, i32 0, metadata !69, i32 1203} ; [ DW_TAG_subprogram ]
!643 = metadata !{i32 786453, i32 0, metadata !"", i32 0, i32 0, i64 0, i64 0, i64 0, i32 0, null, metadata !644, i32 0, i32 0} ; [ DW_TAG_subroutine_type ]
!644 = metadata !{metadata !131, metadata !614}
!645 = metadata !{i32 786478, i32 0, metadata !596, metadata !"to_uint64", metadata !"to_uint64", metadata !"_ZNK12ap_range_refILi32ELb0EE9to_uint64Ev", metadata !57, i32 1206, metadata !646, i1 false, i1 false, i32 0, i32 0, null, i32 256, i1 false, null, null, i32 0, metadata !69, i32 1206} ; [ DW_TAG_subprogram ]
!646 = metadata !{i32 786453, i32 0, metadata !"", i32 0, i32 0, i64 0, i64 0, i64 0, i32 0, null, metadata !647, i32 0, i32 0} ; [ DW_TAG_subroutine_type ]
!647 = metadata !{metadata !136, metadata !614}
!648 = metadata !{i32 786478, i32 0, metadata !596, metadata !"and_reduce", metadata !"and_reduce", metadata !"_ZNK12ap_range_refILi32ELb0EE10and_reduceEv", metadata !57, i32 1209, metadata !649, i1 false, i1 false, i32 0, i32 0, null, i32 256, i1 false, null, null, i32 0, metadata !69, i32 1209} ; [ DW_TAG_subprogram ]
!649 = metadata !{i32 786453, i32 0, metadata !"", i32 0, i32 0, i64 0, i64 0, i64 0, i32 0, null, metadata !650, i32 0, i32 0} ; [ DW_TAG_subroutine_type ]
!650 = metadata !{metadata !75, metadata !614}
!651 = metadata !{i32 786478, i32 0, metadata !596, metadata !"or_reduce", metadata !"or_reduce", metadata !"_ZNK12ap_range_refILi32ELb0EE9or_reduceEv", metadata !57, i32 1220, metadata !649, i1 false, i1 false, i32 0, i32 0, null, i32 256, i1 false, null, null, i32 0, metadata !69, i32 1220} ; [ DW_TAG_subprogram ]
!652 = metadata !{i32 786478, i32 0, metadata !596, metadata !"xor_reduce", metadata !"xor_reduce", metadata !"_ZNK12ap_range_refILi32ELb0EE10xor_reduceEv", metadata !57, i32 1231, metadata !649, i1 false, i1 false, i32 0, i32 0, null, i32 256, i1 false, null, null, i32 0, metadata !69, i32 1231} ; [ DW_TAG_subprogram ]
!653 = metadata !{metadata !654, metadata !74}
!654 = metadata !{i32 786480, null, metadata !"_AP_W", metadata !73, i64 32, null, i32 0, i32 0} ; [ DW_TAG_template_value_parameter ]
!655 = metadata !{i32 786478, i32 0, metadata !56, metadata !"operator()", metadata !"operator()", metadata !"_ZN11ap_int_baseILi32ELb0ELb1EEclEii", metadata !57, i32 2068, metadata !594, i1 false, i1 false, i32 0, i32 0, null, i32 256, i1 false, null, null, i32 0, metadata !69, i32 2068} ; [ DW_TAG_subprogram ]
!656 = metadata !{i32 786478, i32 0, metadata !56, metadata !"range", metadata !"range", metadata !"_ZNK11ap_int_baseILi32ELb0ELb1EE5rangeEii", metadata !57, i32 2074, metadata !657, i1 false, i1 false, i32 0, i32 0, null, i32 256, i1 false, null, null, i32 0, metadata !69, i32 2074} ; [ DW_TAG_subprogram ]
!657 = metadata !{i32 786453, i32 0, metadata !"", i32 0, i32 0, i64 0, i64 0, i64 0, i32 0, null, metadata !658, i32 0, i32 0} ; [ DW_TAG_subroutine_type ]
!658 = metadata !{metadata !596, metadata !217, metadata !73, metadata !73}
!659 = metadata !{i32 786478, i32 0, metadata !56, metadata !"operator()", metadata !"operator()", metadata !"_ZNK11ap_int_baseILi32ELb0ELb1EEclEii", metadata !57, i32 2080, metadata !657, i1 false, i1 false, i32 0, i32 0, null, i32 256, i1 false, null, null, i32 0, metadata !69, i32 2080} ; [ DW_TAG_subprogram ]
!660 = metadata !{i32 786478, i32 0, metadata !56, metadata !"operator[]", metadata !"operator[]", metadata !"_ZN11ap_int_baseILi32ELb0ELb1EEixEi", metadata !57, i32 2099, metadata !661, i1 false, i1 false, i32 0, i32 0, null, i32 256, i1 false, null, null, i32 0, metadata !69, i32 2099} ; [ DW_TAG_subprogram ]
!661 = metadata !{i32 786453, i32 0, metadata !"", i32 0, i32 0, i64 0, i64 0, i64 0, i32 0, null, metadata !662, i32 0, i32 0} ; [ DW_TAG_subroutine_type ]
!662 = metadata !{metadata !663, metadata !79, metadata !73}
!663 = metadata !{i32 786434, null, metadata !"ap_bit_ref<32, false>", metadata !57, i32 1249, i32 0, i32 0, i32 0, i32 4, null, null, i32 0} ; [ DW_TAG_class_type ]
!664 = metadata !{i32 786478, i32 0, metadata !56, metadata !"operator[]", metadata !"operator[]", metadata !"_ZNK11ap_int_baseILi32ELb0ELb1EEixEi", metadata !57, i32 2113, metadata !268, i1 false, i1 false, i32 0, i32 0, null, i32 256, i1 false, null, null, i32 0, metadata !69, i32 2113} ; [ DW_TAG_subprogram ]
!665 = metadata !{i32 786478, i32 0, metadata !56, metadata !"bit", metadata !"bit", metadata !"_ZN11ap_int_baseILi32ELb0ELb1EE3bitEi", metadata !57, i32 2127, metadata !661, i1 false, i1 false, i32 0, i32 0, null, i32 256, i1 false, null, null, i32 0, metadata !69, i32 2127} ; [ DW_TAG_subprogram ]
!666 = metadata !{i32 786478, i32 0, metadata !56, metadata !"bit", metadata !"bit", metadata !"_ZNK11ap_int_baseILi32ELb0ELb1EE3bitEi", metadata !57, i32 2141, metadata !268, i1 false, i1 false, i32 0, i32 0, null, i32 256, i1 false, null, null, i32 0, metadata !69, i32 2141} ; [ DW_TAG_subprogram ]
!667 = metadata !{i32 786478, i32 0, metadata !56, metadata !"and_reduce", metadata !"and_reduce", metadata !"_ZN11ap_int_baseILi32ELb0ELb1EE10and_reduceEv", metadata !57, i32 2321, metadata !668, i1 false, i1 false, i32 0, i32 0, null, i32 256, i1 false, null, null, i32 0, metadata !69, i32 2321} ; [ DW_TAG_subprogram ]
!668 = metadata !{i32 786453, i32 0, metadata !"", i32 0, i32 0, i64 0, i64 0, i64 0, i32 0, null, metadata !669, i32 0, i32 0} ; [ DW_TAG_subroutine_type ]
!669 = metadata !{metadata !75, metadata !79}
!670 = metadata !{i32 786478, i32 0, metadata !56, metadata !"nand_reduce", metadata !"nand_reduce", metadata !"_ZN11ap_int_baseILi32ELb0ELb1EE11nand_reduceEv", metadata !57, i32 2324, metadata !668, i1 false, i1 false, i32 0, i32 0, null, i32 256, i1 false, null, null, i32 0, metadata !69, i32 2324} ; [ DW_TAG_subprogram ]
!671 = metadata !{i32 786478, i32 0, metadata !56, metadata !"or_reduce", metadata !"or_reduce", metadata !"_ZN11ap_int_baseILi32ELb0ELb1EE9or_reduceEv", metadata !57, i32 2327, metadata !668, i1 false, i1 false, i32 0, i32 0, null, i32 256, i1 false, null, null, i32 0, metadata !69, i32 2327} ; [ DW_TAG_subprogram ]
!672 = metadata !{i32 786478, i32 0, metadata !56, metadata !"nor_reduce", metadata !"nor_reduce", metadata !"_ZN11ap_int_baseILi32ELb0ELb1EE10nor_reduceEv", metadata !57, i32 2330, metadata !668, i1 false, i1 false, i32 0, i32 0, null, i32 256, i1 false, null, null, i32 0, metadata !69, i32 2330} ; [ DW_TAG_subprogram ]
!673 = metadata !{i32 786478, i32 0, metadata !56, metadata !"xor_reduce", metadata !"xor_reduce", metadata !"_ZN11ap_int_baseILi32ELb0ELb1EE10xor_reduceEv", metadata !57, i32 2333, metadata !668, i1 false, i1 false, i32 0, i32 0, null, i32 256, i1 false, null, null, i32 0, metadata !69, i32 2333} ; [ DW_TAG_subprogram ]
!674 = metadata !{i32 786478, i32 0, metadata !56, metadata !"xnor_reduce", metadata !"xnor_reduce", metadata !"_ZN11ap_int_baseILi32ELb0ELb1EE11xnor_reduceEv", metadata !57, i32 2336, metadata !668, i1 false, i1 false, i32 0, i32 0, null, i32 256, i1 false, null, null, i32 0, metadata !69, i32 2336} ; [ DW_TAG_subprogram ]
!675 = metadata !{i32 786478, i32 0, metadata !56, metadata !"and_reduce", metadata !"and_reduce", metadata !"_ZNK11ap_int_baseILi32ELb0ELb1EE10and_reduceEv", metadata !57, i32 2340, metadata !219, i1 false, i1 false, i32 0, i32 0, null, i32 256, i1 false, null, null, i32 0, metadata !69, i32 2340} ; [ DW_TAG_subprogram ]
!676 = metadata !{i32 786478, i32 0, metadata !56, metadata !"nand_reduce", metadata !"nand_reduce", metadata !"_ZNK11ap_int_baseILi32ELb0ELb1EE11nand_reduceEv", metadata !57, i32 2343, metadata !219, i1 false, i1 false, i32 0, i32 0, null, i32 256, i1 false, null, null, i32 0, metadata !69, i32 2343} ; [ DW_TAG_subprogram ]
!677 = metadata !{i32 786478, i32 0, metadata !56, metadata !"or_reduce", metadata !"or_reduce", metadata !"_ZNK11ap_int_baseILi32ELb0ELb1EE9or_reduceEv", metadata !57, i32 2346, metadata !219, i1 false, i1 false, i32 0, i32 0, null, i32 256, i1 false, null, null, i32 0, metadata !69, i32 2346} ; [ DW_TAG_subprogram ]
!678 = metadata !{i32 786478, i32 0, metadata !56, metadata !"nor_reduce", metadata !"nor_reduce", metadata !"_ZNK11ap_int_baseILi32ELb0ELb1EE10nor_reduceEv", metadata !57, i32 2349, metadata !219, i1 false, i1 false, i32 0, i32 0, null, i32 256, i1 false, null, null, i32 0, metadata !69, i32 2349} ; [ DW_TAG_subprogram ]
!679 = metadata !{i32 786478, i32 0, metadata !56, metadata !"xor_reduce", metadata !"xor_reduce", metadata !"_ZNK11ap_int_baseILi32ELb0ELb1EE10xor_reduceEv", metadata !57, i32 2352, metadata !219, i1 false, i1 false, i32 0, i32 0, null, i32 256, i1 false, null, null, i32 0, metadata !69, i32 2352} ; [ DW_TAG_subprogram ]
!680 = metadata !{i32 786478, i32 0, metadata !56, metadata !"xnor_reduce", metadata !"xnor_reduce", metadata !"_ZNK11ap_int_baseILi32ELb0ELb1EE11xnor_reduceEv", metadata !57, i32 2355, metadata !219, i1 false, i1 false, i32 0, i32 0, null, i32 256, i1 false, null, null, i32 0, metadata !69, i32 2355} ; [ DW_TAG_subprogram ]
!681 = metadata !{i32 786478, i32 0, metadata !56, metadata !"to_string", metadata !"to_string", metadata !"_ZNK11ap_int_baseILi32ELb0ELb1EE9to_stringEPci8BaseModeb", metadata !57, i32 2362, metadata !682, i1 false, i1 false, i32 0, i32 0, null, i32 256, i1 false, null, null, i32 0, metadata !69, i32 2362} ; [ DW_TAG_subprogram ]
!682 = metadata !{i32 786453, i32 0, metadata !"", i32 0, i32 0, i64 0, i64 0, i64 0, i32 0, null, metadata !683, i32 0, i32 0} ; [ DW_TAG_subroutine_type ]
!683 = metadata !{null, metadata !217, metadata !578, metadata !73, metadata !579, metadata !75}
!684 = metadata !{i32 786478, i32 0, metadata !56, metadata !"to_string", metadata !"to_string", metadata !"_ZNK11ap_int_baseILi32ELb0ELb1EE9to_stringE8BaseModeb", metadata !57, i32 2389, metadata !685, i1 false, i1 false, i32 0, i32 0, null, i32 256, i1 false, null, null, i32 0, metadata !69, i32 2389} ; [ DW_TAG_subprogram ]
!685 = metadata !{i32 786453, i32 0, metadata !"", i32 0, i32 0, i64 0, i64 0, i64 0, i32 0, null, metadata !686, i32 0, i32 0} ; [ DW_TAG_subroutine_type ]
!686 = metadata !{metadata !578, metadata !217, metadata !579, metadata !75}
!687 = metadata !{i32 786478, i32 0, metadata !56, metadata !"to_string", metadata !"to_string", metadata !"_ZNK11ap_int_baseILi32ELb0ELb1EE9to_stringEab", metadata !57, i32 2393, metadata !688, i1 false, i1 false, i32 0, i32 0, null, i32 256, i1 false, null, null, i32 0, metadata !69, i32 2393} ; [ DW_TAG_subprogram ]
!688 = metadata !{i32 786453, i32 0, metadata !"", i32 0, i32 0, i64 0, i64 0, i64 0, i32 0, null, metadata !689, i32 0, i32 0} ; [ DW_TAG_subroutine_type ]
!689 = metadata !{metadata !578, metadata !217, metadata !100, metadata !75}
!690 = metadata !{metadata !654, metadata !74, metadata !592}
!691 = metadata !{i32 786478, i32 0, metadata !52, metadata !"ap_uint", metadata !"ap_uint", metadata !"", metadata !53, i32 186, metadata !692, i1 false, i1 false, i32 0, i32 0, null, i32 256, i1 false, null, null, i32 0, metadata !69, i32 186} ; [ DW_TAG_subprogram ]
!692 = metadata !{i32 786453, i32 0, metadata !"", i32 0, i32 0, i64 0, i64 0, i64 0, i32 0, null, metadata !693, i32 0, i32 0} ; [ DW_TAG_subroutine_type ]
!693 = metadata !{null, metadata !694}
!694 = metadata !{i32 786447, i32 0, metadata !"", i32 0, i32 0, i64 64, i64 64, i64 0, i32 64, metadata !52} ; [ DW_TAG_pointer_type ]
!695 = metadata !{i32 786478, i32 0, metadata !52, metadata !"ap_uint", metadata !"ap_uint", metadata !"", metadata !53, i32 248, metadata !696, i1 false, i1 false, i32 0, i32 0, null, i32 256, i1 false, null, null, i32 0, metadata !69, i32 248} ; [ DW_TAG_subprogram ]
!696 = metadata !{i32 786453, i32 0, metadata !"", i32 0, i32 0, i64 0, i64 0, i64 0, i32 0, null, metadata !697, i32 0, i32 0} ; [ DW_TAG_subroutine_type ]
!697 = metadata !{null, metadata !694, metadata !75}
!698 = metadata !{i32 786478, i32 0, metadata !52, metadata !"ap_uint", metadata !"ap_uint", metadata !"", metadata !53, i32 249, metadata !699, i1 false, i1 false, i32 0, i32 0, null, i32 256, i1 false, null, null, i32 0, metadata !69, i32 249} ; [ DW_TAG_subprogram ]
!699 = metadata !{i32 786453, i32 0, metadata !"", i32 0, i32 0, i64 0, i64 0, i64 0, i32 0, null, metadata !700, i32 0, i32 0} ; [ DW_TAG_subroutine_type ]
!700 = metadata !{null, metadata !694, metadata !100}
!701 = metadata !{i32 786478, i32 0, metadata !52, metadata !"ap_uint", metadata !"ap_uint", metadata !"", metadata !53, i32 250, metadata !702, i1 false, i1 false, i32 0, i32 0, null, i32 256, i1 false, null, null, i32 0, metadata !69, i32 250} ; [ DW_TAG_subprogram ]
!702 = metadata !{i32 786453, i32 0, metadata !"", i32 0, i32 0, i64 0, i64 0, i64 0, i32 0, null, metadata !703, i32 0, i32 0} ; [ DW_TAG_subroutine_type ]
!703 = metadata !{null, metadata !694, metadata !104}
!704 = metadata !{i32 786478, i32 0, metadata !52, metadata !"ap_uint", metadata !"ap_uint", metadata !"", metadata !53, i32 251, metadata !705, i1 false, i1 false, i32 0, i32 0, null, i32 256, i1 false, null, null, i32 0, metadata !69, i32 251} ; [ DW_TAG_subprogram ]
!705 = metadata !{i32 786453, i32 0, metadata !"", i32 0, i32 0, i64 0, i64 0, i64 0, i32 0, null, metadata !706, i32 0, i32 0} ; [ DW_TAG_subroutine_type ]
!706 = metadata !{null, metadata !694, metadata !108}
!707 = metadata !{i32 786478, i32 0, metadata !52, metadata !"ap_uint", metadata !"ap_uint", metadata !"", metadata !53, i32 252, metadata !708, i1 false, i1 false, i32 0, i32 0, null, i32 256, i1 false, null, null, i32 0, metadata !69, i32 252} ; [ DW_TAG_subprogram ]
!708 = metadata !{i32 786453, i32 0, metadata !"", i32 0, i32 0, i64 0, i64 0, i64 0, i32 0, null, metadata !709, i32 0, i32 0} ; [ DW_TAG_subroutine_type ]
!709 = metadata !{null, metadata !694, metadata !112}
!710 = metadata !{i32 786478, i32 0, metadata !52, metadata !"ap_uint", metadata !"ap_uint", metadata !"", metadata !53, i32 253, metadata !711, i1 false, i1 false, i32 0, i32 0, null, i32 256, i1 false, null, null, i32 0, metadata !69, i32 253} ; [ DW_TAG_subprogram ]
!711 = metadata !{i32 786453, i32 0, metadata !"", i32 0, i32 0, i64 0, i64 0, i64 0, i32 0, null, metadata !712, i32 0, i32 0} ; [ DW_TAG_subroutine_type ]
!712 = metadata !{null, metadata !694, metadata !73}
!713 = metadata !{i32 786478, i32 0, metadata !52, metadata !"ap_uint", metadata !"ap_uint", metadata !"", metadata !53, i32 254, metadata !714, i1 false, i1 false, i32 0, i32 0, null, i32 256, i1 false, null, null, i32 0, metadata !69, i32 254} ; [ DW_TAG_subprogram ]
!714 = metadata !{i32 786453, i32 0, metadata !"", i32 0, i32 0, i64 0, i64 0, i64 0, i32 0, null, metadata !715, i32 0, i32 0} ; [ DW_TAG_subroutine_type ]
!715 = metadata !{null, metadata !694, metadata !119}
!716 = metadata !{i32 786478, i32 0, metadata !52, metadata !"ap_uint", metadata !"ap_uint", metadata !"", metadata !53, i32 255, metadata !717, i1 false, i1 false, i32 0, i32 0, null, i32 256, i1 false, null, null, i32 0, metadata !69, i32 255} ; [ DW_TAG_subprogram ]
!717 = metadata !{i32 786453, i32 0, metadata !"", i32 0, i32 0, i64 0, i64 0, i64 0, i32 0, null, metadata !718, i32 0, i32 0} ; [ DW_TAG_subroutine_type ]
!718 = metadata !{null, metadata !694, metadata !123}
!719 = metadata !{i32 786478, i32 0, metadata !52, metadata !"ap_uint", metadata !"ap_uint", metadata !"", metadata !53, i32 256, metadata !720, i1 false, i1 false, i32 0, i32 0, null, i32 256, i1 false, null, null, i32 0, metadata !69, i32 256} ; [ DW_TAG_subprogram ]
!720 = metadata !{i32 786453, i32 0, metadata !"", i32 0, i32 0, i64 0, i64 0, i64 0, i32 0, null, metadata !721, i32 0, i32 0} ; [ DW_TAG_subroutine_type ]
!721 = metadata !{null, metadata !694, metadata !127}
!722 = metadata !{i32 786478, i32 0, metadata !52, metadata !"ap_uint", metadata !"ap_uint", metadata !"", metadata !53, i32 257, metadata !723, i1 false, i1 false, i32 0, i32 0, null, i32 256, i1 false, null, null, i32 0, metadata !69, i32 257} ; [ DW_TAG_subprogram ]
!723 = metadata !{i32 786453, i32 0, metadata !"", i32 0, i32 0, i64 0, i64 0, i64 0, i32 0, null, metadata !724, i32 0, i32 0} ; [ DW_TAG_subroutine_type ]
!724 = metadata !{null, metadata !694, metadata !137}
!725 = metadata !{i32 786478, i32 0, metadata !52, metadata !"ap_uint", metadata !"ap_uint", metadata !"", metadata !53, i32 258, metadata !726, i1 false, i1 false, i32 0, i32 0, null, i32 256, i1 false, null, null, i32 0, metadata !69, i32 258} ; [ DW_TAG_subprogram ]
!726 = metadata !{i32 786453, i32 0, metadata !"", i32 0, i32 0, i64 0, i64 0, i64 0, i32 0, null, metadata !727, i32 0, i32 0} ; [ DW_TAG_subroutine_type ]
!727 = metadata !{null, metadata !694, metadata !132}
!728 = metadata !{i32 786478, i32 0, metadata !52, metadata !"ap_uint", metadata !"ap_uint", metadata !"", metadata !53, i32 259, metadata !729, i1 false, i1 false, i32 0, i32 0, null, i32 256, i1 false, null, null, i32 0, metadata !69, i32 259} ; [ DW_TAG_subprogram ]
!729 = metadata !{i32 786453, i32 0, metadata !"", i32 0, i32 0, i64 0, i64 0, i64 0, i32 0, null, metadata !730, i32 0, i32 0} ; [ DW_TAG_subroutine_type ]
!730 = metadata !{null, metadata !694, metadata !141}
!731 = metadata !{i32 786478, i32 0, metadata !52, metadata !"ap_uint", metadata !"ap_uint", metadata !"", metadata !53, i32 260, metadata !732, i1 false, i1 false, i32 0, i32 0, null, i32 256, i1 false, null, null, i32 0, metadata !69, i32 260} ; [ DW_TAG_subprogram ]
!732 = metadata !{i32 786453, i32 0, metadata !"", i32 0, i32 0, i64 0, i64 0, i64 0, i32 0, null, metadata !733, i32 0, i32 0} ; [ DW_TAG_subroutine_type ]
!733 = metadata !{null, metadata !694, metadata !146}
!734 = metadata !{i32 786478, i32 0, metadata !52, metadata !"ap_uint", metadata !"ap_uint", metadata !"", metadata !53, i32 261, metadata !735, i1 false, i1 false, i32 0, i32 0, null, i32 256, i1 false, null, null, i32 0, metadata !69, i32 261} ; [ DW_TAG_subprogram ]
!735 = metadata !{i32 786453, i32 0, metadata !"", i32 0, i32 0, i64 0, i64 0, i64 0, i32 0, null, metadata !736, i32 0, i32 0} ; [ DW_TAG_subroutine_type ]
!736 = metadata !{null, metadata !694, metadata !150}
!737 = metadata !{i32 786478, i32 0, metadata !52, metadata !"ap_uint", metadata !"ap_uint", metadata !"", metadata !53, i32 263, metadata !738, i1 false, i1 false, i32 0, i32 0, null, i32 256, i1 false, null, null, i32 0, metadata !69, i32 263} ; [ DW_TAG_subprogram ]
!738 = metadata !{i32 786453, i32 0, metadata !"", i32 0, i32 0, i64 0, i64 0, i64 0, i32 0, null, metadata !739, i32 0, i32 0} ; [ DW_TAG_subroutine_type ]
!739 = metadata !{null, metadata !694, metadata !154}
!740 = metadata !{i32 786478, i32 0, metadata !52, metadata !"ap_uint", metadata !"ap_uint", metadata !"", metadata !53, i32 264, metadata !741, i1 false, i1 false, i32 0, i32 0, null, i32 256, i1 false, null, null, i32 0, metadata !69, i32 264} ; [ DW_TAG_subprogram ]
!741 = metadata !{i32 786453, i32 0, metadata !"", i32 0, i32 0, i64 0, i64 0, i64 0, i32 0, null, metadata !742, i32 0, i32 0} ; [ DW_TAG_subroutine_type ]
!742 = metadata !{null, metadata !694, metadata !154, metadata !100}
!743 = metadata !{i32 786478, i32 0, metadata !52, metadata !"operator=", metadata !"operator=", metadata !"_ZNV7ap_uintILi32EEaSERKS0_", metadata !53, i32 267, metadata !744, i1 false, i1 false, i32 0, i32 0, null, i32 256, i1 false, null, null, i32 0, metadata !69, i32 267} ; [ DW_TAG_subprogram ]
!744 = metadata !{i32 786453, i32 0, metadata !"", i32 0, i32 0, i64 0, i64 0, i64 0, i32 0, null, metadata !745, i32 0, i32 0} ; [ DW_TAG_subroutine_type ]
!745 = metadata !{null, metadata !746, metadata !748}
!746 = metadata !{i32 786447, i32 0, metadata !"", i32 0, i32 0, i64 64, i64 64, i64 0, i32 64, metadata !747} ; [ DW_TAG_pointer_type ]
!747 = metadata !{i32 786485, null, metadata !"", null, i32 0, i64 0, i64 0, i64 0, i32 0, metadata !52} ; [ DW_TAG_volatile_type ]
!748 = metadata !{i32 786448, null, null, null, i32 0, i64 0, i64 0, i64 0, i32 0, metadata !749} ; [ DW_TAG_reference_type ]
!749 = metadata !{i32 786470, null, metadata !"", null, i32 0, i64 0, i64 0, i64 0, i32 0, metadata !52} ; [ DW_TAG_const_type ]
!750 = metadata !{i32 786478, i32 0, metadata !52, metadata !"operator=", metadata !"operator=", metadata !"_ZNV7ap_uintILi32EEaSERVKS0_", metadata !53, i32 271, metadata !751, i1 false, i1 false, i32 0, i32 0, null, i32 256, i1 false, null, null, i32 0, metadata !69, i32 271} ; [ DW_TAG_subprogram ]
!751 = metadata !{i32 786453, i32 0, metadata !"", i32 0, i32 0, i64 0, i64 0, i64 0, i32 0, null, metadata !752, i32 0, i32 0} ; [ DW_TAG_subroutine_type ]
!752 = metadata !{null, metadata !746, metadata !753}
!753 = metadata !{i32 786448, null, null, null, i32 0, i64 0, i64 0, i64 0, i32 0, metadata !754} ; [ DW_TAG_reference_type ]
!754 = metadata !{i32 786470, null, metadata !"", null, i32 0, i64 0, i64 0, i64 0, i32 0, metadata !747} ; [ DW_TAG_const_type ]
!755 = metadata !{i32 786478, i32 0, metadata !52, metadata !"operator=", metadata !"operator=", metadata !"_ZN7ap_uintILi32EEaSERVKS0_", metadata !53, i32 275, metadata !756, i1 false, i1 false, i32 0, i32 0, null, i32 256, i1 false, null, null, i32 0, metadata !69, i32 275} ; [ DW_TAG_subprogram ]
!756 = metadata !{i32 786453, i32 0, metadata !"", i32 0, i32 0, i64 0, i64 0, i64 0, i32 0, null, metadata !757, i32 0, i32 0} ; [ DW_TAG_subroutine_type ]
!757 = metadata !{metadata !758, metadata !694, metadata !753}
!758 = metadata !{i32 786448, null, null, null, i32 0, i64 0, i64 0, i64 0, i32 0, metadata !52} ; [ DW_TAG_reference_type ]
!759 = metadata !{i32 786478, i32 0, metadata !52, metadata !"operator=", metadata !"operator=", metadata !"_ZN7ap_uintILi32EEaSERKS0_", metadata !53, i32 280, metadata !760, i1 false, i1 false, i32 0, i32 0, null, i32 256, i1 false, null, null, i32 0, metadata !69, i32 280} ; [ DW_TAG_subprogram ]
!760 = metadata !{i32 786453, i32 0, metadata !"", i32 0, i32 0, i64 0, i64 0, i64 0, i32 0, null, metadata !761, i32 0, i32 0} ; [ DW_TAG_subroutine_type ]
!761 = metadata !{metadata !758, metadata !694, metadata !748}
!762 = metadata !{i32 786478, i32 0, metadata !52, metadata !"~ap_uint", metadata !"~ap_uint", metadata !"", metadata !53, i32 183, metadata !692, i1 false, i1 false, i32 0, i32 0, null, i32 320, i1 false, null, null, i32 0, metadata !69, i32 183} ; [ DW_TAG_subprogram ]
!763 = metadata !{metadata !654}
!764 = metadata !{i32 786445, metadata !48, metadata !"keep", metadata !49, i32 102, i64 8, i64 8, i64 32, i32 0, metadata !765} ; [ DW_TAG_member ]
!765 = metadata !{i32 786434, null, metadata !"ap_uint<4>", metadata !53, i32 183, i64 8, i64 8, i32 0, i32 0, null, metadata !766, i32 0, null, metadata !1325} ; [ DW_TAG_class_type ]
!766 = metadata !{metadata !767, metadata !1254, metadata !1258, metadata !1261, metadata !1264, metadata !1267, metadata !1270, metadata !1273, metadata !1276, metadata !1279, metadata !1282, metadata !1285, metadata !1288, metadata !1291, metadata !1294, metadata !1297, metadata !1300, metadata !1303, metadata !1306, metadata !1313, metadata !1318, metadata !1322}
!767 = metadata !{i32 786460, metadata !765, null, metadata !53, i32 0, i64 0, i64 0, i64 0, i32 0, metadata !768} ; [ DW_TAG_inheritance ]
!768 = metadata !{i32 786434, null, metadata !"ap_int_base<4, false, true>", metadata !57, i32 1453, i64 8, i64 8, i32 0, i32 0, null, metadata !769, i32 0, null, metadata !1252} ; [ DW_TAG_class_type ]
!769 = metadata !{metadata !770, metadata !779, metadata !783, metadata !786, metadata !789, metadata !792, metadata !795, metadata !798, metadata !801, metadata !804, metadata !807, metadata !810, metadata !813, metadata !816, metadata !819, metadata !822, metadata !825, metadata !828, metadata !831, metadata !836, metadata !841, metadata !846, metadata !847, metadata !851, metadata !854, metadata !857, metadata !860, metadata !863, metadata !866, metadata !869, metadata !872, metadata !875, metadata !878, metadata !881, metadata !884, metadata !893, metadata !896, metadata !899, metadata !902, metadata !905, metadata !908, metadata !911, metadata !914, metadata !917, metadata !920, metadata !923, metadata !926, metadata !929, metadata !930, metadata !934, metadata !937, metadata !938, metadata !939, metadata !940, metadata !941, metadata !942, metadata !945, metadata !946, metadata !949, metadata !950, metadata !951, metadata !952, metadata !953, metadata !954, metadata !957, metadata !958, metadata !959, metadata !962, metadata !963, metadata !966, metadata !967, metadata !1213, metadata !1217, metadata !1218, metadata !1221, metadata !1222, metadata !1226, metadata !1227, metadata !1228, metadata !1229, metadata !1232, metadata !1233, metadata !1234, metadata !1235, metadata !1236, metadata !1237, metadata !1238, metadata !1239, metadata !1240, metadata !1241, metadata !1242, metadata !1243, metadata !1246, metadata !1249}
!770 = metadata !{i32 786460, metadata !768, null, metadata !57, i32 0, i64 0, i64 0, i64 0, i32 0, metadata !771} ; [ DW_TAG_inheritance ]
!771 = metadata !{i32 786434, null, metadata !"ssdm_int<4 + 1024 * 0, false>", metadata !61, i32 6, i64 8, i64 8, i32 0, i32 0, null, metadata !772, i32 0, null, metadata !215} ; [ DW_TAG_class_type ]
!772 = metadata !{metadata !773, metadata !775}
!773 = metadata !{i32 786445, metadata !771, metadata !"V", metadata !61, i32 6, i64 4, i64 4, i64 0, i32 0, metadata !774} ; [ DW_TAG_member ]
!774 = metadata !{i32 786468, null, metadata !"uint4", null, i32 0, i64 4, i64 4, i64 0, i32 0, i32 7} ; [ DW_TAG_base_type ]
!775 = metadata !{i32 786478, i32 0, metadata !771, metadata !"ssdm_int", metadata !"ssdm_int", metadata !"", metadata !61, i32 6, metadata !776, i1 false, i1 false, i32 0, i32 0, null, i32 256, i1 false, null, null, i32 0, metadata !69, i32 6} ; [ DW_TAG_subprogram ]
!776 = metadata !{i32 786453, i32 0, metadata !"", i32 0, i32 0, i64 0, i64 0, i64 0, i32 0, null, metadata !777, i32 0, i32 0} ; [ DW_TAG_subroutine_type ]
!777 = metadata !{null, metadata !778}
!778 = metadata !{i32 786447, i32 0, metadata !"", i32 0, i32 0, i64 64, i64 64, i64 0, i32 64, metadata !771} ; [ DW_TAG_pointer_type ]
!779 = metadata !{i32 786478, i32 0, metadata !768, metadata !"ap_int_base", metadata !"ap_int_base", metadata !"", metadata !57, i32 1494, metadata !780, i1 false, i1 false, i32 0, i32 0, null, i32 256, i1 false, null, null, i32 0, metadata !69, i32 1494} ; [ DW_TAG_subprogram ]
!780 = metadata !{i32 786453, i32 0, metadata !"", i32 0, i32 0, i64 0, i64 0, i64 0, i32 0, null, metadata !781, i32 0, i32 0} ; [ DW_TAG_subroutine_type ]
!781 = metadata !{null, metadata !782}
!782 = metadata !{i32 786447, i32 0, metadata !"", i32 0, i32 0, i64 64, i64 64, i64 0, i32 64, metadata !768} ; [ DW_TAG_pointer_type ]
!783 = metadata !{i32 786478, i32 0, metadata !768, metadata !"ap_int_base", metadata !"ap_int_base", metadata !"", metadata !57, i32 1516, metadata !784, i1 false, i1 false, i32 0, i32 0, null, i32 384, i1 false, null, null, i32 0, metadata !69, i32 1516} ; [ DW_TAG_subprogram ]
!784 = metadata !{i32 786453, i32 0, metadata !"", i32 0, i32 0, i64 0, i64 0, i64 0, i32 0, null, metadata !785, i32 0, i32 0} ; [ DW_TAG_subroutine_type ]
!785 = metadata !{null, metadata !782, metadata !75}
!786 = metadata !{i32 786478, i32 0, metadata !768, metadata !"ap_int_base", metadata !"ap_int_base", metadata !"", metadata !57, i32 1517, metadata !787, i1 false, i1 false, i32 0, i32 0, null, i32 384, i1 false, null, null, i32 0, metadata !69, i32 1517} ; [ DW_TAG_subprogram ]
!787 = metadata !{i32 786453, i32 0, metadata !"", i32 0, i32 0, i64 0, i64 0, i64 0, i32 0, null, metadata !788, i32 0, i32 0} ; [ DW_TAG_subroutine_type ]
!788 = metadata !{null, metadata !782, metadata !100}
!789 = metadata !{i32 786478, i32 0, metadata !768, metadata !"ap_int_base", metadata !"ap_int_base", metadata !"", metadata !57, i32 1518, metadata !790, i1 false, i1 false, i32 0, i32 0, null, i32 384, i1 false, null, null, i32 0, metadata !69, i32 1518} ; [ DW_TAG_subprogram ]
!790 = metadata !{i32 786453, i32 0, metadata !"", i32 0, i32 0, i64 0, i64 0, i64 0, i32 0, null, metadata !791, i32 0, i32 0} ; [ DW_TAG_subroutine_type ]
!791 = metadata !{null, metadata !782, metadata !104}
!792 = metadata !{i32 786478, i32 0, metadata !768, metadata !"ap_int_base", metadata !"ap_int_base", metadata !"", metadata !57, i32 1519, metadata !793, i1 false, i1 false, i32 0, i32 0, null, i32 384, i1 false, null, null, i32 0, metadata !69, i32 1519} ; [ DW_TAG_subprogram ]
!793 = metadata !{i32 786453, i32 0, metadata !"", i32 0, i32 0, i64 0, i64 0, i64 0, i32 0, null, metadata !794, i32 0, i32 0} ; [ DW_TAG_subroutine_type ]
!794 = metadata !{null, metadata !782, metadata !108}
!795 = metadata !{i32 786478, i32 0, metadata !768, metadata !"ap_int_base", metadata !"ap_int_base", metadata !"", metadata !57, i32 1520, metadata !796, i1 false, i1 false, i32 0, i32 0, null, i32 384, i1 false, null, null, i32 0, metadata !69, i32 1520} ; [ DW_TAG_subprogram ]
!796 = metadata !{i32 786453, i32 0, metadata !"", i32 0, i32 0, i64 0, i64 0, i64 0, i32 0, null, metadata !797, i32 0, i32 0} ; [ DW_TAG_subroutine_type ]
!797 = metadata !{null, metadata !782, metadata !112}
!798 = metadata !{i32 786478, i32 0, metadata !768, metadata !"ap_int_base", metadata !"ap_int_base", metadata !"", metadata !57, i32 1521, metadata !799, i1 false, i1 false, i32 0, i32 0, null, i32 384, i1 false, null, null, i32 0, metadata !69, i32 1521} ; [ DW_TAG_subprogram ]
!799 = metadata !{i32 786453, i32 0, metadata !"", i32 0, i32 0, i64 0, i64 0, i64 0, i32 0, null, metadata !800, i32 0, i32 0} ; [ DW_TAG_subroutine_type ]
!800 = metadata !{null, metadata !782, metadata !73}
!801 = metadata !{i32 786478, i32 0, metadata !768, metadata !"ap_int_base", metadata !"ap_int_base", metadata !"", metadata !57, i32 1522, metadata !802, i1 false, i1 false, i32 0, i32 0, null, i32 384, i1 false, null, null, i32 0, metadata !69, i32 1522} ; [ DW_TAG_subprogram ]
!802 = metadata !{i32 786453, i32 0, metadata !"", i32 0, i32 0, i64 0, i64 0, i64 0, i32 0, null, metadata !803, i32 0, i32 0} ; [ DW_TAG_subroutine_type ]
!803 = metadata !{null, metadata !782, metadata !119}
!804 = metadata !{i32 786478, i32 0, metadata !768, metadata !"ap_int_base", metadata !"ap_int_base", metadata !"", metadata !57, i32 1523, metadata !805, i1 false, i1 false, i32 0, i32 0, null, i32 384, i1 false, null, null, i32 0, metadata !69, i32 1523} ; [ DW_TAG_subprogram ]
!805 = metadata !{i32 786453, i32 0, metadata !"", i32 0, i32 0, i64 0, i64 0, i64 0, i32 0, null, metadata !806, i32 0, i32 0} ; [ DW_TAG_subroutine_type ]
!806 = metadata !{null, metadata !782, metadata !123}
!807 = metadata !{i32 786478, i32 0, metadata !768, metadata !"ap_int_base", metadata !"ap_int_base", metadata !"", metadata !57, i32 1524, metadata !808, i1 false, i1 false, i32 0, i32 0, null, i32 384, i1 false, null, null, i32 0, metadata !69, i32 1524} ; [ DW_TAG_subprogram ]
!808 = metadata !{i32 786453, i32 0, metadata !"", i32 0, i32 0, i64 0, i64 0, i64 0, i32 0, null, metadata !809, i32 0, i32 0} ; [ DW_TAG_subroutine_type ]
!809 = metadata !{null, metadata !782, metadata !127}
!810 = metadata !{i32 786478, i32 0, metadata !768, metadata !"ap_int_base", metadata !"ap_int_base", metadata !"", metadata !57, i32 1525, metadata !811, i1 false, i1 false, i32 0, i32 0, null, i32 384, i1 false, null, null, i32 0, metadata !69, i32 1525} ; [ DW_TAG_subprogram ]
!811 = metadata !{i32 786453, i32 0, metadata !"", i32 0, i32 0, i64 0, i64 0, i64 0, i32 0, null, metadata !812, i32 0, i32 0} ; [ DW_TAG_subroutine_type ]
!812 = metadata !{null, metadata !782, metadata !131}
!813 = metadata !{i32 786478, i32 0, metadata !768, metadata !"ap_int_base", metadata !"ap_int_base", metadata !"", metadata !57, i32 1526, metadata !814, i1 false, i1 false, i32 0, i32 0, null, i32 384, i1 false, null, null, i32 0, metadata !69, i32 1526} ; [ DW_TAG_subprogram ]
!814 = metadata !{i32 786453, i32 0, metadata !"", i32 0, i32 0, i64 0, i64 0, i64 0, i32 0, null, metadata !815, i32 0, i32 0} ; [ DW_TAG_subroutine_type ]
!815 = metadata !{null, metadata !782, metadata !136}
!816 = metadata !{i32 786478, i32 0, metadata !768, metadata !"ap_int_base", metadata !"ap_int_base", metadata !"", metadata !57, i32 1527, metadata !817, i1 false, i1 false, i32 0, i32 0, null, i32 384, i1 false, null, null, i32 0, metadata !69, i32 1527} ; [ DW_TAG_subprogram ]
!817 = metadata !{i32 786453, i32 0, metadata !"", i32 0, i32 0, i64 0, i64 0, i64 0, i32 0, null, metadata !818, i32 0, i32 0} ; [ DW_TAG_subroutine_type ]
!818 = metadata !{null, metadata !782, metadata !141}
!819 = metadata !{i32 786478, i32 0, metadata !768, metadata !"ap_int_base", metadata !"ap_int_base", metadata !"", metadata !57, i32 1528, metadata !820, i1 false, i1 false, i32 0, i32 0, null, i32 384, i1 false, null, null, i32 0, metadata !69, i32 1528} ; [ DW_TAG_subprogram ]
!820 = metadata !{i32 786453, i32 0, metadata !"", i32 0, i32 0, i64 0, i64 0, i64 0, i32 0, null, metadata !821, i32 0, i32 0} ; [ DW_TAG_subroutine_type ]
!821 = metadata !{null, metadata !782, metadata !146}
!822 = metadata !{i32 786478, i32 0, metadata !768, metadata !"ap_int_base", metadata !"ap_int_base", metadata !"", metadata !57, i32 1529, metadata !823, i1 false, i1 false, i32 0, i32 0, null, i32 384, i1 false, null, null, i32 0, metadata !69, i32 1529} ; [ DW_TAG_subprogram ]
!823 = metadata !{i32 786453, i32 0, metadata !"", i32 0, i32 0, i64 0, i64 0, i64 0, i32 0, null, metadata !824, i32 0, i32 0} ; [ DW_TAG_subroutine_type ]
!824 = metadata !{null, metadata !782, metadata !150}
!825 = metadata !{i32 786478, i32 0, metadata !768, metadata !"ap_int_base", metadata !"ap_int_base", metadata !"", metadata !57, i32 1556, metadata !826, i1 false, i1 false, i32 0, i32 0, null, i32 256, i1 false, null, null, i32 0, metadata !69, i32 1556} ; [ DW_TAG_subprogram ]
!826 = metadata !{i32 786453, i32 0, metadata !"", i32 0, i32 0, i64 0, i64 0, i64 0, i32 0, null, metadata !827, i32 0, i32 0} ; [ DW_TAG_subroutine_type ]
!827 = metadata !{null, metadata !782, metadata !154}
!828 = metadata !{i32 786478, i32 0, metadata !768, metadata !"ap_int_base", metadata !"ap_int_base", metadata !"", metadata !57, i32 1563, metadata !829, i1 false, i1 false, i32 0, i32 0, null, i32 256, i1 false, null, null, i32 0, metadata !69, i32 1563} ; [ DW_TAG_subprogram ]
!829 = metadata !{i32 786453, i32 0, metadata !"", i32 0, i32 0, i64 0, i64 0, i64 0, i32 0, null, metadata !830, i32 0, i32 0} ; [ DW_TAG_subroutine_type ]
!830 = metadata !{null, metadata !782, metadata !154, metadata !100}
!831 = metadata !{i32 786478, i32 0, metadata !768, metadata !"read", metadata !"read", metadata !"_ZNV11ap_int_baseILi4ELb0ELb1EE4readEv", metadata !57, i32 1584, metadata !832, i1 false, i1 false, i32 0, i32 0, null, i32 256, i1 false, null, null, i32 0, metadata !69, i32 1584} ; [ DW_TAG_subprogram ]
!832 = metadata !{i32 786453, i32 0, metadata !"", i32 0, i32 0, i64 0, i64 0, i64 0, i32 0, null, metadata !833, i32 0, i32 0} ; [ DW_TAG_subroutine_type ]
!833 = metadata !{metadata !768, metadata !834}
!834 = metadata !{i32 786447, i32 0, metadata !"", i32 0, i32 0, i64 64, i64 64, i64 0, i32 64, metadata !835} ; [ DW_TAG_pointer_type ]
!835 = metadata !{i32 786485, null, metadata !"", null, i32 0, i64 0, i64 0, i64 0, i32 0, metadata !768} ; [ DW_TAG_volatile_type ]
!836 = metadata !{i32 786478, i32 0, metadata !768, metadata !"write", metadata !"write", metadata !"_ZNV11ap_int_baseILi4ELb0ELb1EE5writeERKS0_", metadata !57, i32 1590, metadata !837, i1 false, i1 false, i32 0, i32 0, null, i32 256, i1 false, null, null, i32 0, metadata !69, i32 1590} ; [ DW_TAG_subprogram ]
!837 = metadata !{i32 786453, i32 0, metadata !"", i32 0, i32 0, i64 0, i64 0, i64 0, i32 0, null, metadata !838, i32 0, i32 0} ; [ DW_TAG_subroutine_type ]
!838 = metadata !{null, metadata !834, metadata !839}
!839 = metadata !{i32 786448, null, null, null, i32 0, i64 0, i64 0, i64 0, i32 0, metadata !840} ; [ DW_TAG_reference_type ]
!840 = metadata !{i32 786470, null, metadata !"", null, i32 0, i64 0, i64 0, i64 0, i32 0, metadata !768} ; [ DW_TAG_const_type ]
!841 = metadata !{i32 786478, i32 0, metadata !768, metadata !"operator=", metadata !"operator=", metadata !"_ZNV11ap_int_baseILi4ELb0ELb1EEaSERVKS0_", metadata !57, i32 1602, metadata !842, i1 false, i1 false, i32 0, i32 0, null, i32 256, i1 false, null, null, i32 0, metadata !69, i32 1602} ; [ DW_TAG_subprogram ]
!842 = metadata !{i32 786453, i32 0, metadata !"", i32 0, i32 0, i64 0, i64 0, i64 0, i32 0, null, metadata !843, i32 0, i32 0} ; [ DW_TAG_subroutine_type ]
!843 = metadata !{null, metadata !834, metadata !844}
!844 = metadata !{i32 786448, null, null, null, i32 0, i64 0, i64 0, i64 0, i32 0, metadata !845} ; [ DW_TAG_reference_type ]
!845 = metadata !{i32 786470, null, metadata !"", null, i32 0, i64 0, i64 0, i64 0, i32 0, metadata !835} ; [ DW_TAG_const_type ]
!846 = metadata !{i32 786478, i32 0, metadata !768, metadata !"operator=", metadata !"operator=", metadata !"_ZNV11ap_int_baseILi4ELb0ELb1EEaSERKS0_", metadata !57, i32 1611, metadata !837, i1 false, i1 false, i32 0, i32 0, null, i32 256, i1 false, null, null, i32 0, metadata !69, i32 1611} ; [ DW_TAG_subprogram ]
!847 = metadata !{i32 786478, i32 0, metadata !768, metadata !"operator=", metadata !"operator=", metadata !"_ZN11ap_int_baseILi4ELb0ELb1EEaSERVKS0_", metadata !57, i32 1634, metadata !848, i1 false, i1 false, i32 0, i32 0, null, i32 256, i1 false, null, null, i32 0, metadata !69, i32 1634} ; [ DW_TAG_subprogram ]
!848 = metadata !{i32 786453, i32 0, metadata !"", i32 0, i32 0, i64 0, i64 0, i64 0, i32 0, null, metadata !849, i32 0, i32 0} ; [ DW_TAG_subroutine_type ]
!849 = metadata !{metadata !850, metadata !782, metadata !844}
!850 = metadata !{i32 786448, null, null, null, i32 0, i64 0, i64 0, i64 0, i32 0, metadata !768} ; [ DW_TAG_reference_type ]
!851 = metadata !{i32 786478, i32 0, metadata !768, metadata !"operator=", metadata !"operator=", metadata !"_ZN11ap_int_baseILi4ELb0ELb1EEaSERKS0_", metadata !57, i32 1639, metadata !852, i1 false, i1 false, i32 0, i32 0, null, i32 256, i1 false, null, null, i32 0, metadata !69, i32 1639} ; [ DW_TAG_subprogram ]
!852 = metadata !{i32 786453, i32 0, metadata !"", i32 0, i32 0, i64 0, i64 0, i64 0, i32 0, null, metadata !853, i32 0, i32 0} ; [ DW_TAG_subroutine_type ]
!853 = metadata !{metadata !850, metadata !782, metadata !839}
!854 = metadata !{i32 786478, i32 0, metadata !768, metadata !"operator=", metadata !"operator=", metadata !"_ZN11ap_int_baseILi4ELb0ELb1EEaSEPKc", metadata !57, i32 1643, metadata !855, i1 false, i1 false, i32 0, i32 0, null, i32 256, i1 false, null, null, i32 0, metadata !69, i32 1643} ; [ DW_TAG_subprogram ]
!855 = metadata !{i32 786453, i32 0, metadata !"", i32 0, i32 0, i64 0, i64 0, i64 0, i32 0, null, metadata !856, i32 0, i32 0} ; [ DW_TAG_subroutine_type ]
!856 = metadata !{metadata !850, metadata !782, metadata !154}
!857 = metadata !{i32 786478, i32 0, metadata !768, metadata !"set", metadata !"set", metadata !"_ZN11ap_int_baseILi4ELb0ELb1EE3setEPKca", metadata !57, i32 1651, metadata !858, i1 false, i1 false, i32 0, i32 0, null, i32 256, i1 false, null, null, i32 0, metadata !69, i32 1651} ; [ DW_TAG_subprogram ]
!858 = metadata !{i32 786453, i32 0, metadata !"", i32 0, i32 0, i64 0, i64 0, i64 0, i32 0, null, metadata !859, i32 0, i32 0} ; [ DW_TAG_subroutine_type ]
!859 = metadata !{metadata !850, metadata !782, metadata !154, metadata !100}
!860 = metadata !{i32 786478, i32 0, metadata !768, metadata !"operator=", metadata !"operator=", metadata !"_ZN11ap_int_baseILi4ELb0ELb1EEaSEa", metadata !57, i32 1665, metadata !861, i1 false, i1 false, i32 0, i32 0, null, i32 256, i1 false, null, null, i32 0, metadata !69, i32 1665} ; [ DW_TAG_subprogram ]
!861 = metadata !{i32 786453, i32 0, metadata !"", i32 0, i32 0, i64 0, i64 0, i64 0, i32 0, null, metadata !862, i32 0, i32 0} ; [ DW_TAG_subroutine_type ]
!862 = metadata !{metadata !850, metadata !782, metadata !100}
!863 = metadata !{i32 786478, i32 0, metadata !768, metadata !"operator=", metadata !"operator=", metadata !"_ZN11ap_int_baseILi4ELb0ELb1EEaSEh", metadata !57, i32 1666, metadata !864, i1 false, i1 false, i32 0, i32 0, null, i32 256, i1 false, null, null, i32 0, metadata !69, i32 1666} ; [ DW_TAG_subprogram ]
!864 = metadata !{i32 786453, i32 0, metadata !"", i32 0, i32 0, i64 0, i64 0, i64 0, i32 0, null, metadata !865, i32 0, i32 0} ; [ DW_TAG_subroutine_type ]
!865 = metadata !{metadata !850, metadata !782, metadata !104}
!866 = metadata !{i32 786478, i32 0, metadata !768, metadata !"operator=", metadata !"operator=", metadata !"_ZN11ap_int_baseILi4ELb0ELb1EEaSEs", metadata !57, i32 1667, metadata !867, i1 false, i1 false, i32 0, i32 0, null, i32 256, i1 false, null, null, i32 0, metadata !69, i32 1667} ; [ DW_TAG_subprogram ]
!867 = metadata !{i32 786453, i32 0, metadata !"", i32 0, i32 0, i64 0, i64 0, i64 0, i32 0, null, metadata !868, i32 0, i32 0} ; [ DW_TAG_subroutine_type ]
!868 = metadata !{metadata !850, metadata !782, metadata !108}
!869 = metadata !{i32 786478, i32 0, metadata !768, metadata !"operator=", metadata !"operator=", metadata !"_ZN11ap_int_baseILi4ELb0ELb1EEaSEt", metadata !57, i32 1668, metadata !870, i1 false, i1 false, i32 0, i32 0, null, i32 256, i1 false, null, null, i32 0, metadata !69, i32 1668} ; [ DW_TAG_subprogram ]
!870 = metadata !{i32 786453, i32 0, metadata !"", i32 0, i32 0, i64 0, i64 0, i64 0, i32 0, null, metadata !871, i32 0, i32 0} ; [ DW_TAG_subroutine_type ]
!871 = metadata !{metadata !850, metadata !782, metadata !112}
!872 = metadata !{i32 786478, i32 0, metadata !768, metadata !"operator=", metadata !"operator=", metadata !"_ZN11ap_int_baseILi4ELb0ELb1EEaSEi", metadata !57, i32 1669, metadata !873, i1 false, i1 false, i32 0, i32 0, null, i32 256, i1 false, null, null, i32 0, metadata !69, i32 1669} ; [ DW_TAG_subprogram ]
!873 = metadata !{i32 786453, i32 0, metadata !"", i32 0, i32 0, i64 0, i64 0, i64 0, i32 0, null, metadata !874, i32 0, i32 0} ; [ DW_TAG_subroutine_type ]
!874 = metadata !{metadata !850, metadata !782, metadata !73}
!875 = metadata !{i32 786478, i32 0, metadata !768, metadata !"operator=", metadata !"operator=", metadata !"_ZN11ap_int_baseILi4ELb0ELb1EEaSEj", metadata !57, i32 1670, metadata !876, i1 false, i1 false, i32 0, i32 0, null, i32 256, i1 false, null, null, i32 0, metadata !69, i32 1670} ; [ DW_TAG_subprogram ]
!876 = metadata !{i32 786453, i32 0, metadata !"", i32 0, i32 0, i64 0, i64 0, i64 0, i32 0, null, metadata !877, i32 0, i32 0} ; [ DW_TAG_subroutine_type ]
!877 = metadata !{metadata !850, metadata !782, metadata !119}
!878 = metadata !{i32 786478, i32 0, metadata !768, metadata !"operator=", metadata !"operator=", metadata !"_ZN11ap_int_baseILi4ELb0ELb1EEaSEx", metadata !57, i32 1671, metadata !879, i1 false, i1 false, i32 0, i32 0, null, i32 256, i1 false, null, null, i32 0, metadata !69, i32 1671} ; [ DW_TAG_subprogram ]
!879 = metadata !{i32 786453, i32 0, metadata !"", i32 0, i32 0, i64 0, i64 0, i64 0, i32 0, null, metadata !880, i32 0, i32 0} ; [ DW_TAG_subroutine_type ]
!880 = metadata !{metadata !850, metadata !782, metadata !131}
!881 = metadata !{i32 786478, i32 0, metadata !768, metadata !"operator=", metadata !"operator=", metadata !"_ZN11ap_int_baseILi4ELb0ELb1EEaSEy", metadata !57, i32 1672, metadata !882, i1 false, i1 false, i32 0, i32 0, null, i32 256, i1 false, null, null, i32 0, metadata !69, i32 1672} ; [ DW_TAG_subprogram ]
!882 = metadata !{i32 786453, i32 0, metadata !"", i32 0, i32 0, i64 0, i64 0, i64 0, i32 0, null, metadata !883, i32 0, i32 0} ; [ DW_TAG_subroutine_type ]
!883 = metadata !{metadata !850, metadata !782, metadata !136}
!884 = metadata !{i32 786478, i32 0, metadata !768, metadata !"operator unsigned char", metadata !"operator unsigned char", metadata !"_ZNK11ap_int_baseILi4ELb0ELb1EEcvhEv", metadata !57, i32 1710, metadata !885, i1 false, i1 false, i32 0, i32 0, null, i32 256, i1 false, null, null, i32 0, metadata !69, i32 1710} ; [ DW_TAG_subprogram ]
!885 = metadata !{i32 786453, i32 0, metadata !"", i32 0, i32 0, i64 0, i64 0, i64 0, i32 0, null, metadata !886, i32 0, i32 0} ; [ DW_TAG_subroutine_type ]
!886 = metadata !{metadata !887, metadata !892}
!887 = metadata !{i32 786454, metadata !768, metadata !"RetType", metadata !57, i32 1458, i64 0, i64 0, i64 0, i32 0, metadata !888} ; [ DW_TAG_typedef ]
!888 = metadata !{i32 786454, metadata !889, metadata !"Type", metadata !57, i32 1426, i64 0, i64 0, i64 0, i32 0, metadata !104} ; [ DW_TAG_typedef ]
!889 = metadata !{i32 786434, null, metadata !"retval<1, false>", metadata !57, i32 1425, i64 8, i64 8, i32 0, i32 0, null, metadata !214, i32 0, null, metadata !890} ; [ DW_TAG_class_type ]
!890 = metadata !{metadata !891, metadata !74}
!891 = metadata !{i32 786480, null, metadata !"_AP_N", metadata !73, i64 1, null, i32 0, i32 0} ; [ DW_TAG_template_value_parameter ]
!892 = metadata !{i32 786447, i32 0, metadata !"", i32 0, i32 0, i64 64, i64 64, i64 0, i32 64, metadata !840} ; [ DW_TAG_pointer_type ]
!893 = metadata !{i32 786478, i32 0, metadata !768, metadata !"to_bool", metadata !"to_bool", metadata !"_ZNK11ap_int_baseILi4ELb0ELb1EE7to_boolEv", metadata !57, i32 1716, metadata !894, i1 false, i1 false, i32 0, i32 0, null, i32 256, i1 false, null, null, i32 0, metadata !69, i32 1716} ; [ DW_TAG_subprogram ]
!894 = metadata !{i32 786453, i32 0, metadata !"", i32 0, i32 0, i64 0, i64 0, i64 0, i32 0, null, metadata !895, i32 0, i32 0} ; [ DW_TAG_subroutine_type ]
!895 = metadata !{metadata !75, metadata !892}
!896 = metadata !{i32 786478, i32 0, metadata !768, metadata !"to_uchar", metadata !"to_uchar", metadata !"_ZNK11ap_int_baseILi4ELb0ELb1EE8to_ucharEv", metadata !57, i32 1717, metadata !897, i1 false, i1 false, i32 0, i32 0, null, i32 256, i1 false, null, null, i32 0, metadata !69, i32 1717} ; [ DW_TAG_subprogram ]
!897 = metadata !{i32 786453, i32 0, metadata !"", i32 0, i32 0, i64 0, i64 0, i64 0, i32 0, null, metadata !898, i32 0, i32 0} ; [ DW_TAG_subroutine_type ]
!898 = metadata !{metadata !104, metadata !892}
!899 = metadata !{i32 786478, i32 0, metadata !768, metadata !"to_char", metadata !"to_char", metadata !"_ZNK11ap_int_baseILi4ELb0ELb1EE7to_charEv", metadata !57, i32 1718, metadata !900, i1 false, i1 false, i32 0, i32 0, null, i32 256, i1 false, null, null, i32 0, metadata !69, i32 1718} ; [ DW_TAG_subprogram ]
!900 = metadata !{i32 786453, i32 0, metadata !"", i32 0, i32 0, i64 0, i64 0, i64 0, i32 0, null, metadata !901, i32 0, i32 0} ; [ DW_TAG_subroutine_type ]
!901 = metadata !{metadata !100, metadata !892}
!902 = metadata !{i32 786478, i32 0, metadata !768, metadata !"to_ushort", metadata !"to_ushort", metadata !"_ZNK11ap_int_baseILi4ELb0ELb1EE9to_ushortEv", metadata !57, i32 1719, metadata !903, i1 false, i1 false, i32 0, i32 0, null, i32 256, i1 false, null, null, i32 0, metadata !69, i32 1719} ; [ DW_TAG_subprogram ]
!903 = metadata !{i32 786453, i32 0, metadata !"", i32 0, i32 0, i64 0, i64 0, i64 0, i32 0, null, metadata !904, i32 0, i32 0} ; [ DW_TAG_subroutine_type ]
!904 = metadata !{metadata !112, metadata !892}
!905 = metadata !{i32 786478, i32 0, metadata !768, metadata !"to_short", metadata !"to_short", metadata !"_ZNK11ap_int_baseILi4ELb0ELb1EE8to_shortEv", metadata !57, i32 1720, metadata !906, i1 false, i1 false, i32 0, i32 0, null, i32 256, i1 false, null, null, i32 0, metadata !69, i32 1720} ; [ DW_TAG_subprogram ]
!906 = metadata !{i32 786453, i32 0, metadata !"", i32 0, i32 0, i64 0, i64 0, i64 0, i32 0, null, metadata !907, i32 0, i32 0} ; [ DW_TAG_subroutine_type ]
!907 = metadata !{metadata !108, metadata !892}
!908 = metadata !{i32 786478, i32 0, metadata !768, metadata !"to_int", metadata !"to_int", metadata !"_ZNK11ap_int_baseILi4ELb0ELb1EE6to_intEv", metadata !57, i32 1721, metadata !909, i1 false, i1 false, i32 0, i32 0, null, i32 256, i1 false, null, null, i32 0, metadata !69, i32 1721} ; [ DW_TAG_subprogram ]
!909 = metadata !{i32 786453, i32 0, metadata !"", i32 0, i32 0, i64 0, i64 0, i64 0, i32 0, null, metadata !910, i32 0, i32 0} ; [ DW_TAG_subroutine_type ]
!910 = metadata !{metadata !73, metadata !892}
!911 = metadata !{i32 786478, i32 0, metadata !768, metadata !"to_uint", metadata !"to_uint", metadata !"_ZNK11ap_int_baseILi4ELb0ELb1EE7to_uintEv", metadata !57, i32 1722, metadata !912, i1 false, i1 false, i32 0, i32 0, null, i32 256, i1 false, null, null, i32 0, metadata !69, i32 1722} ; [ DW_TAG_subprogram ]
!912 = metadata !{i32 786453, i32 0, metadata !"", i32 0, i32 0, i64 0, i64 0, i64 0, i32 0, null, metadata !913, i32 0, i32 0} ; [ DW_TAG_subroutine_type ]
!913 = metadata !{metadata !119, metadata !892}
!914 = metadata !{i32 786478, i32 0, metadata !768, metadata !"to_long", metadata !"to_long", metadata !"_ZNK11ap_int_baseILi4ELb0ELb1EE7to_longEv", metadata !57, i32 1723, metadata !915, i1 false, i1 false, i32 0, i32 0, null, i32 256, i1 false, null, null, i32 0, metadata !69, i32 1723} ; [ DW_TAG_subprogram ]
!915 = metadata !{i32 786453, i32 0, metadata !"", i32 0, i32 0, i64 0, i64 0, i64 0, i32 0, null, metadata !916, i32 0, i32 0} ; [ DW_TAG_subroutine_type ]
!916 = metadata !{metadata !123, metadata !892}
!917 = metadata !{i32 786478, i32 0, metadata !768, metadata !"to_ulong", metadata !"to_ulong", metadata !"_ZNK11ap_int_baseILi4ELb0ELb1EE8to_ulongEv", metadata !57, i32 1724, metadata !918, i1 false, i1 false, i32 0, i32 0, null, i32 256, i1 false, null, null, i32 0, metadata !69, i32 1724} ; [ DW_TAG_subprogram ]
!918 = metadata !{i32 786453, i32 0, metadata !"", i32 0, i32 0, i64 0, i64 0, i64 0, i32 0, null, metadata !919, i32 0, i32 0} ; [ DW_TAG_subroutine_type ]
!919 = metadata !{metadata !127, metadata !892}
!920 = metadata !{i32 786478, i32 0, metadata !768, metadata !"to_int64", metadata !"to_int64", metadata !"_ZNK11ap_int_baseILi4ELb0ELb1EE8to_int64Ev", metadata !57, i32 1725, metadata !921, i1 false, i1 false, i32 0, i32 0, null, i32 256, i1 false, null, null, i32 0, metadata !69, i32 1725} ; [ DW_TAG_subprogram ]
!921 = metadata !{i32 786453, i32 0, metadata !"", i32 0, i32 0, i64 0, i64 0, i64 0, i32 0, null, metadata !922, i32 0, i32 0} ; [ DW_TAG_subroutine_type ]
!922 = metadata !{metadata !131, metadata !892}
!923 = metadata !{i32 786478, i32 0, metadata !768, metadata !"to_uint64", metadata !"to_uint64", metadata !"_ZNK11ap_int_baseILi4ELb0ELb1EE9to_uint64Ev", metadata !57, i32 1726, metadata !924, i1 false, i1 false, i32 0, i32 0, null, i32 256, i1 false, null, null, i32 0, metadata !69, i32 1726} ; [ DW_TAG_subprogram ]
!924 = metadata !{i32 786453, i32 0, metadata !"", i32 0, i32 0, i64 0, i64 0, i64 0, i32 0, null, metadata !925, i32 0, i32 0} ; [ DW_TAG_subroutine_type ]
!925 = metadata !{metadata !136, metadata !892}
!926 = metadata !{i32 786478, i32 0, metadata !768, metadata !"to_double", metadata !"to_double", metadata !"_ZNK11ap_int_baseILi4ELb0ELb1EE9to_doubleEv", metadata !57, i32 1727, metadata !927, i1 false, i1 false, i32 0, i32 0, null, i32 256, i1 false, null, null, i32 0, metadata !69, i32 1727} ; [ DW_TAG_subprogram ]
!927 = metadata !{i32 786453, i32 0, metadata !"", i32 0, i32 0, i64 0, i64 0, i64 0, i32 0, null, metadata !928, i32 0, i32 0} ; [ DW_TAG_subroutine_type ]
!928 = metadata !{metadata !150, metadata !892}
!929 = metadata !{i32 786478, i32 0, metadata !768, metadata !"length", metadata !"length", metadata !"_ZNK11ap_int_baseILi4ELb0ELb1EE6lengthEv", metadata !57, i32 1741, metadata !909, i1 false, i1 false, i32 0, i32 0, null, i32 256, i1 false, null, null, i32 0, metadata !69, i32 1741} ; [ DW_TAG_subprogram ]
!930 = metadata !{i32 786478, i32 0, metadata !768, metadata !"length", metadata !"length", metadata !"_ZNVK11ap_int_baseILi4ELb0ELb1EE6lengthEv", metadata !57, i32 1742, metadata !931, i1 false, i1 false, i32 0, i32 0, null, i32 256, i1 false, null, null, i32 0, metadata !69, i32 1742} ; [ DW_TAG_subprogram ]
!931 = metadata !{i32 786453, i32 0, metadata !"", i32 0, i32 0, i64 0, i64 0, i64 0, i32 0, null, metadata !932, i32 0, i32 0} ; [ DW_TAG_subroutine_type ]
!932 = metadata !{metadata !73, metadata !933}
!933 = metadata !{i32 786447, i32 0, metadata !"", i32 0, i32 0, i64 64, i64 64, i64 0, i32 64, metadata !845} ; [ DW_TAG_pointer_type ]
!934 = metadata !{i32 786478, i32 0, metadata !768, metadata !"reverse", metadata !"reverse", metadata !"_ZN11ap_int_baseILi4ELb0ELb1EE7reverseEv", metadata !57, i32 1747, metadata !935, i1 false, i1 false, i32 0, i32 0, null, i32 256, i1 false, null, null, i32 0, metadata !69, i32 1747} ; [ DW_TAG_subprogram ]
!935 = metadata !{i32 786453, i32 0, metadata !"", i32 0, i32 0, i64 0, i64 0, i64 0, i32 0, null, metadata !936, i32 0, i32 0} ; [ DW_TAG_subroutine_type ]
!936 = metadata !{metadata !850, metadata !782}
!937 = metadata !{i32 786478, i32 0, metadata !768, metadata !"iszero", metadata !"iszero", metadata !"_ZNK11ap_int_baseILi4ELb0ELb1EE6iszeroEv", metadata !57, i32 1753, metadata !894, i1 false, i1 false, i32 0, i32 0, null, i32 256, i1 false, null, null, i32 0, metadata !69, i32 1753} ; [ DW_TAG_subprogram ]
!938 = metadata !{i32 786478, i32 0, metadata !768, metadata !"is_zero", metadata !"is_zero", metadata !"_ZNK11ap_int_baseILi4ELb0ELb1EE7is_zeroEv", metadata !57, i32 1758, metadata !894, i1 false, i1 false, i32 0, i32 0, null, i32 256, i1 false, null, null, i32 0, metadata !69, i32 1758} ; [ DW_TAG_subprogram ]
!939 = metadata !{i32 786478, i32 0, metadata !768, metadata !"sign", metadata !"sign", metadata !"_ZNK11ap_int_baseILi4ELb0ELb1EE4signEv", metadata !57, i32 1763, metadata !894, i1 false, i1 false, i32 0, i32 0, null, i32 256, i1 false, null, null, i32 0, metadata !69, i32 1763} ; [ DW_TAG_subprogram ]
!940 = metadata !{i32 786478, i32 0, metadata !768, metadata !"clear", metadata !"clear", metadata !"_ZN11ap_int_baseILi4ELb0ELb1EE5clearEi", metadata !57, i32 1771, metadata !799, i1 false, i1 false, i32 0, i32 0, null, i32 256, i1 false, null, null, i32 0, metadata !69, i32 1771} ; [ DW_TAG_subprogram ]
!941 = metadata !{i32 786478, i32 0, metadata !768, metadata !"invert", metadata !"invert", metadata !"_ZN11ap_int_baseILi4ELb0ELb1EE6invertEi", metadata !57, i32 1777, metadata !799, i1 false, i1 false, i32 0, i32 0, null, i32 256, i1 false, null, null, i32 0, metadata !69, i32 1777} ; [ DW_TAG_subprogram ]
!942 = metadata !{i32 786478, i32 0, metadata !768, metadata !"test", metadata !"test", metadata !"_ZNK11ap_int_baseILi4ELb0ELb1EE4testEi", metadata !57, i32 1785, metadata !943, i1 false, i1 false, i32 0, i32 0, null, i32 256, i1 false, null, null, i32 0, metadata !69, i32 1785} ; [ DW_TAG_subprogram ]
!943 = metadata !{i32 786453, i32 0, metadata !"", i32 0, i32 0, i64 0, i64 0, i64 0, i32 0, null, metadata !944, i32 0, i32 0} ; [ DW_TAG_subroutine_type ]
!944 = metadata !{metadata !75, metadata !892, metadata !73}
!945 = metadata !{i32 786478, i32 0, metadata !768, metadata !"set", metadata !"set", metadata !"_ZN11ap_int_baseILi4ELb0ELb1EE3setEi", metadata !57, i32 1791, metadata !799, i1 false, i1 false, i32 0, i32 0, null, i32 256, i1 false, null, null, i32 0, metadata !69, i32 1791} ; [ DW_TAG_subprogram ]
!946 = metadata !{i32 786478, i32 0, metadata !768, metadata !"set", metadata !"set", metadata !"_ZN11ap_int_baseILi4ELb0ELb1EE3setEib", metadata !57, i32 1797, metadata !947, i1 false, i1 false, i32 0, i32 0, null, i32 256, i1 false, null, null, i32 0, metadata !69, i32 1797} ; [ DW_TAG_subprogram ]
!947 = metadata !{i32 786453, i32 0, metadata !"", i32 0, i32 0, i64 0, i64 0, i64 0, i32 0, null, metadata !948, i32 0, i32 0} ; [ DW_TAG_subroutine_type ]
!948 = metadata !{null, metadata !782, metadata !73, metadata !75}
!949 = metadata !{i32 786478, i32 0, metadata !768, metadata !"lrotate", metadata !"lrotate", metadata !"_ZN11ap_int_baseILi4ELb0ELb1EE7lrotateEi", metadata !57, i32 1804, metadata !799, i1 false, i1 false, i32 0, i32 0, null, i32 256, i1 false, null, null, i32 0, metadata !69, i32 1804} ; [ DW_TAG_subprogram ]
!950 = metadata !{i32 786478, i32 0, metadata !768, metadata !"rrotate", metadata !"rrotate", metadata !"_ZN11ap_int_baseILi4ELb0ELb1EE7rrotateEi", metadata !57, i32 1813, metadata !799, i1 false, i1 false, i32 0, i32 0, null, i32 256, i1 false, null, null, i32 0, metadata !69, i32 1813} ; [ DW_TAG_subprogram ]
!951 = metadata !{i32 786478, i32 0, metadata !768, metadata !"set_bit", metadata !"set_bit", metadata !"_ZN11ap_int_baseILi4ELb0ELb1EE7set_bitEib", metadata !57, i32 1821, metadata !947, i1 false, i1 false, i32 0, i32 0, null, i32 256, i1 false, null, null, i32 0, metadata !69, i32 1821} ; [ DW_TAG_subprogram ]
!952 = metadata !{i32 786478, i32 0, metadata !768, metadata !"get_bit", metadata !"get_bit", metadata !"_ZNK11ap_int_baseILi4ELb0ELb1EE7get_bitEi", metadata !57, i32 1826, metadata !943, i1 false, i1 false, i32 0, i32 0, null, i32 256, i1 false, null, null, i32 0, metadata !69, i32 1826} ; [ DW_TAG_subprogram ]
!953 = metadata !{i32 786478, i32 0, metadata !768, metadata !"b_not", metadata !"b_not", metadata !"_ZN11ap_int_baseILi4ELb0ELb1EE5b_notEv", metadata !57, i32 1831, metadata !780, i1 false, i1 false, i32 0, i32 0, null, i32 256, i1 false, null, null, i32 0, metadata !69, i32 1831} ; [ DW_TAG_subprogram ]
!954 = metadata !{i32 786478, i32 0, metadata !768, metadata !"countLeadingZeros", metadata !"countLeadingZeros", metadata !"_ZN11ap_int_baseILi4ELb0ELb1EE17countLeadingZerosEv", metadata !57, i32 1838, metadata !955, i1 false, i1 false, i32 0, i32 0, null, i32 256, i1 false, null, null, i32 0, metadata !69, i32 1838} ; [ DW_TAG_subprogram ]
!955 = metadata !{i32 786453, i32 0, metadata !"", i32 0, i32 0, i64 0, i64 0, i64 0, i32 0, null, metadata !956, i32 0, i32 0} ; [ DW_TAG_subroutine_type ]
!956 = metadata !{metadata !73, metadata !782}
!957 = metadata !{i32 786478, i32 0, metadata !768, metadata !"operator++", metadata !"operator++", metadata !"_ZN11ap_int_baseILi4ELb0ELb1EEppEv", metadata !57, i32 1895, metadata !935, i1 false, i1 false, i32 0, i32 0, null, i32 256, i1 false, null, null, i32 0, metadata !69, i32 1895} ; [ DW_TAG_subprogram ]
!958 = metadata !{i32 786478, i32 0, metadata !768, metadata !"operator--", metadata !"operator--", metadata !"_ZN11ap_int_baseILi4ELb0ELb1EEmmEv", metadata !57, i32 1899, metadata !935, i1 false, i1 false, i32 0, i32 0, null, i32 256, i1 false, null, null, i32 0, metadata !69, i32 1899} ; [ DW_TAG_subprogram ]
!959 = metadata !{i32 786478, i32 0, metadata !768, metadata !"operator++", metadata !"operator++", metadata !"_ZN11ap_int_baseILi4ELb0ELb1EEppEi", metadata !57, i32 1907, metadata !960, i1 false, i1 false, i32 0, i32 0, null, i32 256, i1 false, null, null, i32 0, metadata !69, i32 1907} ; [ DW_TAG_subprogram ]
!960 = metadata !{i32 786453, i32 0, metadata !"", i32 0, i32 0, i64 0, i64 0, i64 0, i32 0, null, metadata !961, i32 0, i32 0} ; [ DW_TAG_subroutine_type ]
!961 = metadata !{metadata !840, metadata !782, metadata !73}
!962 = metadata !{i32 786478, i32 0, metadata !768, metadata !"operator--", metadata !"operator--", metadata !"_ZN11ap_int_baseILi4ELb0ELb1EEmmEi", metadata !57, i32 1912, metadata !960, i1 false, i1 false, i32 0, i32 0, null, i32 256, i1 false, null, null, i32 0, metadata !69, i32 1912} ; [ DW_TAG_subprogram ]
!963 = metadata !{i32 786478, i32 0, metadata !768, metadata !"operator+", metadata !"operator+", metadata !"_ZNK11ap_int_baseILi4ELb0ELb1EEpsEv", metadata !57, i32 1921, metadata !964, i1 false, i1 false, i32 0, i32 0, null, i32 256, i1 false, null, null, i32 0, metadata !69, i32 1921} ; [ DW_TAG_subprogram ]
!964 = metadata !{i32 786453, i32 0, metadata !"", i32 0, i32 0, i64 0, i64 0, i64 0, i32 0, null, metadata !965, i32 0, i32 0} ; [ DW_TAG_subroutine_type ]
!965 = metadata !{metadata !768, metadata !892}
!966 = metadata !{i32 786478, i32 0, metadata !768, metadata !"operator!", metadata !"operator!", metadata !"_ZNK11ap_int_baseILi4ELb0ELb1EEntEv", metadata !57, i32 1927, metadata !894, i1 false, i1 false, i32 0, i32 0, null, i32 256, i1 false, null, null, i32 0, metadata !69, i32 1927} ; [ DW_TAG_subprogram ]
!967 = metadata !{i32 786478, i32 0, metadata !768, metadata !"operator-", metadata !"operator-", metadata !"_ZNK11ap_int_baseILi4ELb0ELb1EEngEv", metadata !57, i32 1932, metadata !968, i1 false, i1 false, i32 0, i32 0, null, i32 256, i1 false, null, null, i32 0, metadata !69, i32 1932} ; [ DW_TAG_subprogram ]
!968 = metadata !{i32 786453, i32 0, metadata !"", i32 0, i32 0, i64 0, i64 0, i64 0, i32 0, null, metadata !969, i32 0, i32 0} ; [ DW_TAG_subroutine_type ]
!969 = metadata !{metadata !970, metadata !892}
!970 = metadata !{i32 786434, null, metadata !"ap_int_base<5, true, true>", metadata !57, i32 1453, i64 8, i64 8, i32 0, i32 0, null, metadata !971, i32 0, null, metadata !1211} ; [ DW_TAG_class_type ]
!971 = metadata !{metadata !972, metadata !981, metadata !985, metadata !988, metadata !991, metadata !994, metadata !997, metadata !1000, metadata !1003, metadata !1006, metadata !1009, metadata !1012, metadata !1015, metadata !1018, metadata !1021, metadata !1024, metadata !1027, metadata !1030, metadata !1033, metadata !1038, metadata !1043, metadata !1048, metadata !1049, metadata !1053, metadata !1056, metadata !1059, metadata !1062, metadata !1065, metadata !1068, metadata !1071, metadata !1074, metadata !1077, metadata !1080, metadata !1083, metadata !1086, metadata !1094, metadata !1097, metadata !1100, metadata !1103, metadata !1106, metadata !1109, metadata !1112, metadata !1115, metadata !1118, metadata !1121, metadata !1124, metadata !1127, metadata !1130, metadata !1131, metadata !1135, metadata !1138, metadata !1139, metadata !1140, metadata !1141, metadata !1142, metadata !1143, metadata !1146, metadata !1147, metadata !1150, metadata !1151, metadata !1152, metadata !1153, metadata !1154, metadata !1155, metadata !1158, metadata !1159, metadata !1160, metadata !1163, metadata !1164, metadata !1167, metadata !1168, metadata !1172, metadata !1176, metadata !1177, metadata !1180, metadata !1181, metadata !1185, metadata !1186, metadata !1187, metadata !1188, metadata !1191, metadata !1192, metadata !1193, metadata !1194, metadata !1195, metadata !1196, metadata !1197, metadata !1198, metadata !1199, metadata !1200, metadata !1201, metadata !1202, metadata !1205, metadata !1208}
!972 = metadata !{i32 786460, metadata !970, null, metadata !57, i32 0, i64 0, i64 0, i64 0, i32 0, metadata !973} ; [ DW_TAG_inheritance ]
!973 = metadata !{i32 786434, null, metadata !"ssdm_int<5 + 1024 * 0, true>", metadata !61, i32 7, i64 8, i64 8, i32 0, i32 0, null, metadata !974, i32 0, null, metadata !429} ; [ DW_TAG_class_type ]
!974 = metadata !{metadata !975, metadata !977}
!975 = metadata !{i32 786445, metadata !973, metadata !"V", metadata !61, i32 7, i64 5, i64 8, i64 0, i32 0, metadata !976} ; [ DW_TAG_member ]
!976 = metadata !{i32 786468, null, metadata !"int5", null, i32 0, i64 5, i64 8, i64 0, i32 0, i32 5} ; [ DW_TAG_base_type ]
!977 = metadata !{i32 786478, i32 0, metadata !973, metadata !"ssdm_int", metadata !"ssdm_int", metadata !"", metadata !61, i32 7, metadata !978, i1 false, i1 false, i32 0, i32 0, null, i32 256, i1 false, null, null, i32 0, metadata !69, i32 7} ; [ DW_TAG_subprogram ]
!978 = metadata !{i32 786453, i32 0, metadata !"", i32 0, i32 0, i64 0, i64 0, i64 0, i32 0, null, metadata !979, i32 0, i32 0} ; [ DW_TAG_subroutine_type ]
!979 = metadata !{null, metadata !980}
!980 = metadata !{i32 786447, i32 0, metadata !"", i32 0, i32 0, i64 64, i64 64, i64 0, i32 64, metadata !973} ; [ DW_TAG_pointer_type ]
!981 = metadata !{i32 786478, i32 0, metadata !970, metadata !"ap_int_base", metadata !"ap_int_base", metadata !"", metadata !57, i32 1494, metadata !982, i1 false, i1 false, i32 0, i32 0, null, i32 256, i1 false, null, null, i32 0, metadata !69, i32 1494} ; [ DW_TAG_subprogram ]
!982 = metadata !{i32 786453, i32 0, metadata !"", i32 0, i32 0, i64 0, i64 0, i64 0, i32 0, null, metadata !983, i32 0, i32 0} ; [ DW_TAG_subroutine_type ]
!983 = metadata !{null, metadata !984}
!984 = metadata !{i32 786447, i32 0, metadata !"", i32 0, i32 0, i64 64, i64 64, i64 0, i32 64, metadata !970} ; [ DW_TAG_pointer_type ]
!985 = metadata !{i32 786478, i32 0, metadata !970, metadata !"ap_int_base", metadata !"ap_int_base", metadata !"", metadata !57, i32 1516, metadata !986, i1 false, i1 false, i32 0, i32 0, null, i32 384, i1 false, null, null, i32 0, metadata !69, i32 1516} ; [ DW_TAG_subprogram ]
!986 = metadata !{i32 786453, i32 0, metadata !"", i32 0, i32 0, i64 0, i64 0, i64 0, i32 0, null, metadata !987, i32 0, i32 0} ; [ DW_TAG_subroutine_type ]
!987 = metadata !{null, metadata !984, metadata !75}
!988 = metadata !{i32 786478, i32 0, metadata !970, metadata !"ap_int_base", metadata !"ap_int_base", metadata !"", metadata !57, i32 1517, metadata !989, i1 false, i1 false, i32 0, i32 0, null, i32 384, i1 false, null, null, i32 0, metadata !69, i32 1517} ; [ DW_TAG_subprogram ]
!989 = metadata !{i32 786453, i32 0, metadata !"", i32 0, i32 0, i64 0, i64 0, i64 0, i32 0, null, metadata !990, i32 0, i32 0} ; [ DW_TAG_subroutine_type ]
!990 = metadata !{null, metadata !984, metadata !100}
!991 = metadata !{i32 786478, i32 0, metadata !970, metadata !"ap_int_base", metadata !"ap_int_base", metadata !"", metadata !57, i32 1518, metadata !992, i1 false, i1 false, i32 0, i32 0, null, i32 384, i1 false, null, null, i32 0, metadata !69, i32 1518} ; [ DW_TAG_subprogram ]
!992 = metadata !{i32 786453, i32 0, metadata !"", i32 0, i32 0, i64 0, i64 0, i64 0, i32 0, null, metadata !993, i32 0, i32 0} ; [ DW_TAG_subroutine_type ]
!993 = metadata !{null, metadata !984, metadata !104}
!994 = metadata !{i32 786478, i32 0, metadata !970, metadata !"ap_int_base", metadata !"ap_int_base", metadata !"", metadata !57, i32 1519, metadata !995, i1 false, i1 false, i32 0, i32 0, null, i32 384, i1 false, null, null, i32 0, metadata !69, i32 1519} ; [ DW_TAG_subprogram ]
!995 = metadata !{i32 786453, i32 0, metadata !"", i32 0, i32 0, i64 0, i64 0, i64 0, i32 0, null, metadata !996, i32 0, i32 0} ; [ DW_TAG_subroutine_type ]
!996 = metadata !{null, metadata !984, metadata !108}
!997 = metadata !{i32 786478, i32 0, metadata !970, metadata !"ap_int_base", metadata !"ap_int_base", metadata !"", metadata !57, i32 1520, metadata !998, i1 false, i1 false, i32 0, i32 0, null, i32 384, i1 false, null, null, i32 0, metadata !69, i32 1520} ; [ DW_TAG_subprogram ]
!998 = metadata !{i32 786453, i32 0, metadata !"", i32 0, i32 0, i64 0, i64 0, i64 0, i32 0, null, metadata !999, i32 0, i32 0} ; [ DW_TAG_subroutine_type ]
!999 = metadata !{null, metadata !984, metadata !112}
!1000 = metadata !{i32 786478, i32 0, metadata !970, metadata !"ap_int_base", metadata !"ap_int_base", metadata !"", metadata !57, i32 1521, metadata !1001, i1 false, i1 false, i32 0, i32 0, null, i32 384, i1 false, null, null, i32 0, metadata !69, i32 1521} ; [ DW_TAG_subprogram ]
!1001 = metadata !{i32 786453, i32 0, metadata !"", i32 0, i32 0, i64 0, i64 0, i64 0, i32 0, null, metadata !1002, i32 0, i32 0} ; [ DW_TAG_subroutine_type ]
!1002 = metadata !{null, metadata !984, metadata !73}
